
/home/michal/Development/esp32-p8/rp2350/build/impulse-cec.elf:     file format elf32-littlearm

Sections:
Idx Name          Size      VMA       LMA       File off  Algn
  0 .text         00005204  10000000  10000000  00001000  2**3
                  CONTENTS, ALLOC, LOAD, READONLY, CODE
  1 .rodata       00000290  10005204  10005204  00006204  2**2
                  CONTENTS, ALLOC, LOAD, READONLY, DATA
  2 .ARM.exidx    00000008  10005494  10005494  00006494  2**2
                  CONTENTS, ALLOC, LOAD, READONLY, DATA
  3 .binary_info  00000020  1000549c  1000549c  0000649c  2**2
                  CONTENTS, ALLOC, LOAD, READONLY, DATA
  4 .ram_vector_table 00000110  20000000  20000000  00009000  2**2
                  ALLOC
  5 .uninitialized_data 00000000  20000110  20000110  00008498  2**0
                  CONTENTS
  6 .data         00000fc8  20000110  100054bc  00007110  2**3
                  CONTENTS, ALLOC, LOAD, READONLY, CODE
  7 .tdata        00000000  200010d8  200010d8  00008498  2**0
                  CONTENTS, ALLOC, LOAD, DATA, THREAD_LOCAL
  8 .tbss         00000000  200010d8  200010d8  00000000  2**0
                  ALLOC, THREAD_LOCAL
  9 .bss          00001518  200010d8  10006484  000090d8  2**3
                  ALLOC
 10 .heap         00000800  200025f0  10006484  000085f0  2**2
                  ALLOC, READONLY
 11 .scratch_x    00000000  20080000  20080000  00008498  2**0
                  CONTENTS
 12 .scratch_y    00000000  20081000  20081000  00008498  2**0
                  CONTENTS
 13 .stack_dummy  00000800  20081000  20081000  00009000  2**5
                  ALLOC, READONLY
 14 .flash_end    00000014  10006484  10006484  00008484  2**2
                  CONTENTS, ALLOC, LOAD, READONLY, DATA
 15 .ARM.attributes 00000034  00000000  00000000  00008498  2**0
                  CONTENTS, READONLY
 16 .comment      0000001e  00000000  00000000  000084cc  2**0
                  CONTENTS, READONLY
 17 .debug_info   0003726f  00000000  00000000  000084ea  2**0
                  CONTENTS, READONLY, DEBUGGING, OCTETS
 18 .debug_abbrev 00009c13  00000000  00000000  0003f759  2**0
                  CONTENTS, READONLY, DEBUGGING, OCTETS
 19 .debug_loclists 0001b0b9  00000000  00000000  0004936c  2**0
                  CONTENTS, READONLY, DEBUGGING, OCTETS
 20 .debug_aranges 00001430  00000000  00000000  00064428  2**3
                  CONTENTS, READONLY, DEBUGGING, OCTETS
 21 .debug_rnglists 00005060  00000000  00000000  00065858  2**0
                  CONTENTS, READONLY, DEBUGGING, OCTETS
 22 .debug_line   00022d94  00000000  00000000  0006a8b8  2**0
                  CONTENTS, READONLY, DEBUGGING, OCTETS
 23 .debug_str    0000a27a  00000000  00000000  0008d64c  2**0
                  CONTENTS, READONLY, DEBUGGING, OCTETS
 24 .debug_frame  0000360c  00000000  00000000  000978c8  2**2
                  CONTENTS, READONLY, DEBUGGING, OCTETS
 25 .debug_line_str 0000012d  00000000  00000000  0009aed4  2**0
                  CONTENTS, READONLY, DEBUGGING, OCTETS

/home/michal/Development/esp32-p8/rp2350/build/impulse-cec.elf:     file format elf32-littlearm


Disassembly of section .text:

10000000 <__VECTOR_TABLE>:
10000000:	20082000 	.word	0x20082000
10000004:	1000015d 	.word	0x1000015d
10000008:	1000011b 	.word	0x1000011b
1000000c:	1000011d 	.word	0x1000011d
10000010:	10000111 	.word	0x10000111
10000014:	10000111 	.word	0x10000111
10000018:	10000111 	.word	0x10000111
1000001c:	10000111 	.word	0x10000111
10000020:	10000119 	.word	0x10000119
10000024:	10000119 	.word	0x10000119
10000028:	10000119 	.word	0x10000119
1000002c:	1000011f 	.word	0x1000011f
10000030:	10000111 	.word	0x10000111
10000034:	10000119 	.word	0x10000119
10000038:	10000121 	.word	0x10000121
1000003c:	10000123 	.word	0x10000123
10000040:	10000111 	.word	0x10000111
10000044:	10000111 	.word	0x10000111
10000048:	10000111 	.word	0x10000111
1000004c:	10000111 	.word	0x10000111
10000050:	10000111 	.word	0x10000111
10000054:	10000111 	.word	0x10000111
10000058:	10000111 	.word	0x10000111
1000005c:	10000111 	.word	0x10000111
10000060:	10000111 	.word	0x10000111
10000064:	10000111 	.word	0x10000111
10000068:	10000111 	.word	0x10000111
1000006c:	10000111 	.word	0x10000111
10000070:	10000111 	.word	0x10000111
10000074:	10000111 	.word	0x10000111
10000078:	10000111 	.word	0x10000111
1000007c:	10000111 	.word	0x10000111
10000080:	10000111 	.word	0x10000111
10000084:	10000111 	.word	0x10000111
10000088:	10000111 	.word	0x10000111
1000008c:	10000111 	.word	0x10000111
10000090:	10000111 	.word	0x10000111
10000094:	10000111 	.word	0x10000111
10000098:	10000111 	.word	0x10000111
1000009c:	10000111 	.word	0x10000111
100000a0:	10000111 	.word	0x10000111
100000a4:	10000111 	.word	0x10000111
100000a8:	10000111 	.word	0x10000111
100000ac:	10000111 	.word	0x10000111
100000b0:	10000111 	.word	0x10000111
100000b4:	10000111 	.word	0x10000111
100000b8:	10000111 	.word	0x10000111
100000bc:	10000111 	.word	0x10000111
100000c0:	10000111 	.word	0x10000111
100000c4:	10000111 	.word	0x10000111
100000c8:	10000111 	.word	0x10000111
100000cc:	10000111 	.word	0x10000111
100000d0:	10000111 	.word	0x10000111
100000d4:	10000111 	.word	0x10000111
100000d8:	10000111 	.word	0x10000111
100000dc:	10000111 	.word	0x10000111
100000e0:	10000111 	.word	0x10000111
100000e4:	10000111 	.word	0x10000111
100000e8:	10000111 	.word	0x10000111
100000ec:	10000111 	.word	0x10000111
100000f0:	10000111 	.word	0x10000111
100000f4:	10000111 	.word	0x10000111
100000f8:	10000111 	.word	0x10000111
100000fc:	10000111 	.word	0x10000111
10000100:	10000111 	.word	0x10000111
10000104:	10000111 	.word	0x10000111
10000108:	10000111 	.word	0x10000111
1000010c:	10000111 	.word	0x10000111

10000110 <__unhandled_user_irq>:
10000110:	f3ef 8005 	mrs	r0, IPSR
10000114:	3810      	subs	r0, #16

10000116 <unhandled_user_irq_num_in_r0>:
10000116:	be00      	bkpt	0x0000

10000118 <isr_invalid>:
10000118:	be00      	bkpt	0x0000

1000011a <isr_nmi>:
1000011a:	be00      	bkpt	0x0000

1000011c <isr_hardfault>:
1000011c:	be00      	bkpt	0x0000

1000011e <isr_svcall>:
1000011e:	be00      	bkpt	0x0000

10000120 <isr_pendsv>:
10000120:	be00      	bkpt	0x0000

10000122 <isr_systick>:
10000122:	be00      	bkpt	0x0000

10000124 <__default_isrs_end>:
10000124:	7188ebf2 	.word	0x7188ebf2
10000128:	1000549c 	.word	0x1000549c
1000012c:	100054bc 	.word	0x100054bc
10000130:	100001a0 	.word	0x100001a0
10000134:	e71aa390 	.word	0xe71aa390

10000138 <__binary_info_header_end>:
10000138:	ffffded3 	.word	0xffffded3
1000013c:	10210142 	.word	0x10210142
10000140:	000001ff 	.word	0x000001ff
10000144:	0000634c 	.word	0x0000634c
10000148:	ab123579 	.word	0xab123579

1000014c <_entry_point>:
1000014c:	f04f 0000 	mov.w	r0, #0

10000150 <_enter_vtable_in_r0>:
10000150:	491e      	ldr	r1, [pc, #120]	@ (100001cc <data_cpy_table+0x2c>)
10000152:	6008      	str	r0, [r1, #0]
10000154:	c806      	ldmia	r0!, {r1, r2}
10000156:	f381 8808 	msr	MSP, r1
1000015a:	4710      	bx	r2

1000015c <_reset_handler>:
1000015c:	f04f 4050 	mov.w	r0, #3489660928	@ 0xd0000000
10000160:	6800      	ldr	r0, [r0, #0]
10000162:	b110      	cbz	r0, 1000016a <hold_non_core0_in_bootrom+0x6>

10000164 <hold_non_core0_in_bootrom>:
10000164:	f04f 0000 	mov.w	r0, #0
10000168:	e7f2      	b.n	10000150 <_enter_vtable_in_r0>
1000016a:	a40d      	add	r4, pc, #52	@ (adr r4, 100001a0 <data_cpy_table>)
1000016c:	cc0e      	ldmia	r4!, {r1, r2, r3}
1000016e:	2900      	cmp	r1, #0
10000170:	d002      	beq.n	10000178 <hold_non_core0_in_bootrom+0x14>
10000172:	f000 f812 	bl	1000019a <data_cpy>
10000176:	e7f9      	b.n	1000016c <hold_non_core0_in_bootrom+0x8>
10000178:	4915      	ldr	r1, [pc, #84]	@ (100001d0 <data_cpy_table+0x30>)
1000017a:	4a16      	ldr	r2, [pc, #88]	@ (100001d4 <data_cpy_table+0x34>)
1000017c:	2000      	movs	r0, #0
1000017e:	e000      	b.n	10000182 <bss_fill_test>

10000180 <bss_fill_loop>:
10000180:	c101      	stmia	r1!, {r0}

10000182 <bss_fill_test>:
10000182:	4291      	cmp	r1, r2
10000184:	d1fc      	bne.n	10000180 <bss_fill_loop>

10000186 <platform_entry>:
10000186:	4914      	ldr	r1, [pc, #80]	@ (100001d8 <data_cpy_table+0x38>)
10000188:	4788      	blx	r1
1000018a:	4914      	ldr	r1, [pc, #80]	@ (100001dc <data_cpy_table+0x3c>)
1000018c:	4788      	blx	r1
1000018e:	4914      	ldr	r1, [pc, #80]	@ (100001e0 <data_cpy_table+0x40>)
10000190:	4788      	blx	r1
10000192:	be00      	bkpt	0x0000
10000194:	e7fd      	b.n	10000192 <platform_entry+0xc>

10000196 <data_cpy_loop>:
10000196:	c901      	ldmia	r1!, {r0}
10000198:	c201      	stmia	r2!, {r0}

1000019a <data_cpy>:
1000019a:	429a      	cmp	r2, r3
1000019c:	d3fb      	bcc.n	10000196 <data_cpy_loop>
1000019e:	4770      	bx	lr

100001a0 <data_cpy_table>:
100001a0:	100054bc 	.word	0x100054bc
100001a4:	20000110 	.word	0x20000110
100001a8:	200010d8 	.word	0x200010d8
100001ac:	10006484 	.word	0x10006484
100001b0:	20080000 	.word	0x20080000
100001b4:	20080000 	.word	0x20080000
100001b8:	10006484 	.word	0x10006484
100001bc:	20081000 	.word	0x20081000
100001c0:	20081000 	.word	0x20081000
100001c4:	00000000 	.word	0x00000000
100001c8:	4770      	bx	lr
100001ca:	0000      	.short	0x0000
100001cc:	e000ed08 	.word	0xe000ed08
100001d0:	200010d8 	.word	0x200010d8
100001d4:	200025f0 	.word	0x200025f0
100001d8:	10002e79 	.word	0x10002e79
100001dc:	10000209 	.word	0x10000209
100001e0:	10002e71 	.word	0x10002e71

100001e4 <_init>:
100001e4:	b5f8      	push	{r3, r4, r5, r6, r7, lr}
100001e6:	bf00      	nop

100001e8 <frame_dummy>:
100001e8:	b508      	push	{r3, lr}
100001ea:	4b03      	ldr	r3, [pc, #12]	@ (100001f8 <frame_dummy+0x10>)
100001ec:	b11b      	cbz	r3, 100001f6 <frame_dummy+0xe>
100001ee:	4903      	ldr	r1, [pc, #12]	@ (100001fc <frame_dummy+0x14>)
100001f0:	4803      	ldr	r0, [pc, #12]	@ (10000200 <frame_dummy+0x18>)
100001f2:	f3af 8000 	nop.w
100001f6:	bd08      	pop	{r3, pc}
100001f8:	00000000 	.word	0x00000000
100001fc:	20002204 	.word	0x20002204
10000200:	10005204 	.word	0x10005204

10000204 <on_cec_frame>:
10000204:	f000 bdd0 	b.w	10000da8 <p8_send_cec_frame>

10000208 <main>:
10000208:	b570      	push	{r4, r5, r6, lr}
1000020a:	b090      	sub	sp, #64	@ 0x40
1000020c:	f000 fc0e 	bl	10000a2c <flash_kv_init>
10000210:	2100      	movs	r1, #0
10000212:	4608      	mov	r0, r1
10000214:	f004 fa0e 	bl	10004634 <tusb_rhport_init>
10000218:	4911      	ldr	r1, [pc, #68]	@ (10000260 <main+0x58>)
1000021a:	201d      	movs	r0, #29
1000021c:	f000 fb88 	bl	10000930 <cec_bus_init>
10000220:	466e      	mov	r6, sp
10000222:	f001 f93b 	bl	1000149c <p8_protocol_init>
10000226:	f04f 30ff 	mov.w	r0, #4294967295	@ 0xffffffff
1000022a:	2100      	movs	r1, #0
1000022c:	f003 f9bc 	bl	100035a8 <tud_task_ext>
10000230:	2000      	movs	r0, #0
10000232:	f003 ff81 	bl	10004138 <tud_cdc_n_connected>
10000236:	b168      	cbz	r0, 10000254 <main+0x4c>
10000238:	2240      	movs	r2, #64	@ 0x40
1000023a:	4631      	mov	r1, r6
1000023c:	2000      	movs	r0, #0
1000023e:	f003 ff91 	bl	10004164 <tud_cdc_n_read>
10000242:	b138      	cbz	r0, 10000254 <main+0x4c>
10000244:	4634      	mov	r4, r6
10000246:	1835      	adds	r5, r6, r0
10000248:	f814 0b01 	ldrb.w	r0, [r4], #1
1000024c:	f000 fe2e 	bl	10000eac <p8_rx_byte>
10000250:	42ac      	cmp	r4, r5
10000252:	d1f9      	bne.n	10000248 <main+0x40>
10000254:	f000 f9cc 	bl	100005f0 <cec_rx_process>
10000258:	f000 fada 	bl	10000810 <cec_bus_tick>
1000025c:	e7e3      	b.n	10000226 <main+0x1e>
1000025e:	bf00      	nop
10000260:	10000205 	.word	0x10000205

10000264 <ack_release_alarm_cb>:
10000264:	4b03      	ldr	r3, [pc, #12]	@ (10000274 <ack_release_alarm_cb+0x10>)
10000266:	f04f 0200 	mov.w	r2, #0
1000026a:	681b      	ldr	r3, [r3, #0]
1000026c:	ec42 3044 	gpioc_bit_oe_put r3, r2
10000270:	4770      	bx	lr
10000272:	bf00      	nop
10000274:	200023bc 	.word	0x200023bc

10000278 <cec_gpio_irq>:
10000278:	b5f8      	push	{r3, r4, r5, r6, r7, lr}
1000027a:	4b15      	ldr	r3, [pc, #84]	@ (100002d0 <cec_gpio_irq+0x58>)
1000027c:	781b      	ldrb	r3, [r3, #0]
1000027e:	b103      	cbz	r3, 10000282 <cec_gpio_irq+0xa>
10000280:	bdf8      	pop	{r3, r4, r5, r6, r7, pc}
10000282:	4606      	mov	r6, r0
10000284:	f002 faba 	bl	100027fc <time_us_64>
10000288:	f04f 4c50 	mov.w	ip, #3489660928	@ 0xd0000000
1000028c:	4604      	mov	r4, r0
1000028e:	460d      	mov	r5, r1
10000290:	4b10      	ldr	r3, [pc, #64]	@ (100002d4 <cec_gpio_irq+0x5c>)
10000292:	4f11      	ldr	r7, [pc, #68]	@ (100002d8 <cec_gpio_irq+0x60>)
10000294:	f8dc c004 	ldr.w	ip, [ip, #4]
10000298:	e9c3 4500 	strd	r4, r5, [r3]
1000029c:	4a0f      	ldr	r2, [pc, #60]	@ (100002dc <cec_gpio_irq+0x64>)
1000029e:	683b      	ldr	r3, [r7, #0]
100002a0:	6812      	ldr	r2, [r2, #0]
100002a2:	3301      	adds	r3, #1
100002a4:	f003 033f 	and.w	r3, r3, #63	@ 0x3f
100002a8:	4293      	cmp	r3, r2
100002aa:	d0e9      	beq.n	10000280 <cec_gpio_irq+0x8>
100002ac:	2201      	movs	r2, #1
100002ae:	fa02 f006 	lsl.w	r0, r2, r6
100002b2:	ea00 000c 	and.w	r0, r0, ip
100002b6:	3800      	subs	r0, #0
100002b8:	bf18      	it	ne
100002ba:	2001      	movne	r0, #1
100002bc:	683a      	ldr	r2, [r7, #0]
100002be:	603b      	str	r3, [r7, #0]
100002c0:	4b07      	ldr	r3, [pc, #28]	@ (100002e0 <cec_gpio_irq+0x68>)
100002c2:	eb03 1302 	add.w	r3, r3, r2, lsl #4
100002c6:	e9c3 4500 	strd	r4, r5, [r3]
100002ca:	6098      	str	r0, [r3, #8]
100002cc:	bdf8      	pop	{r3, r4, r5, r6, r7, pc}
100002ce:	bf00      	nop
100002d0:	200025e7 	.word	0x200025e7
100002d4:	20001260 	.word	0x20001260
100002d8:	2000241c 	.word	0x2000241c
100002dc:	20002420 	.word	0x20002420
100002e0:	20001268 	.word	0x20001268

100002e4 <tx_phase_alarm_cb>:
100002e4:	e92d 41f0 	stmdb	sp!, {r4, r5, r6, r7, r8, lr}
100002e8:	49b7      	ldr	r1, [pc, #732]	@ (100005c8 <tx_phase_alarm_cb+0x2e4>)
100002ea:	780b      	ldrb	r3, [r1, #0]
100002ec:	3b01      	subs	r3, #1
100002ee:	2b09      	cmp	r3, #9
100002f0:	d814      	bhi.n	1000031c <tx_phase_alarm_cb+0x38>
100002f2:	e8df f013 	tbh	[pc, r3, lsl #1]
100002f6:	0015      	.short	0x0015
100002f8:	00590033 	.word	0x00590033
100002fc:	0091007a 	.word	0x0091007a
10000300:	00c700b2 	.word	0x00c700b2
10000304:	00f200dd 	.word	0x00f200dd
10000308:	000a      	.short	0x000a
1000030a:	4bb0      	ldr	r3, [pc, #704]	@ (100005cc <tx_phase_alarm_cb+0x2e8>)
1000030c:	f04f 0200 	mov.w	r2, #0
10000310:	681b      	ldr	r3, [r3, #0]
10000312:	ec42 3044 	gpioc_bit_oe_put r3, r2
10000316:	2201      	movs	r2, #1
10000318:	4bad      	ldr	r3, [pc, #692]	@ (100005d0 <tx_phase_alarm_cb+0x2ec>)
1000031a:	701a      	strb	r2, [r3, #0]
1000031c:	e8bd 81f0 	ldmia.w	sp!, {r4, r5, r6, r7, r8, pc}
10000320:	4baa      	ldr	r3, [pc, #680]	@ (100005cc <tx_phase_alarm_cb+0x2e8>)
10000322:	f04f 0200 	mov.w	r2, #0
10000326:	681b      	ldr	r3, [r3, #0]
10000328:	ec42 3044 	gpioc_bit_oe_put r3, r2
1000032c:	2302      	movs	r3, #2
1000032e:	700b      	strb	r3, [r1, #0]
10000330:	f002 fa64 	bl	100027fc <time_us_64>
10000334:	f04f 3cff 	mov.w	ip, #4294967295	@ 0xffffffff
10000338:	f06f 4400 	mvn.w	r4, #2147483648	@ 0x80000000
1000033c:	f510 7248 	adds.w	r2, r0, #800	@ 0x320
10000340:	f141 0300 	adc.w	r3, r1, #0
10000344:	4594      	cmp	ip, r2
10000346:	eb74 0103 	sbcs.w	r1, r4, r3
1000034a:	bf38      	it	cc
1000034c:	4623      	movcc	r3, r4
1000034e:	e8bd 41f0 	ldmia.w	sp!, {r4, r5, r6, r7, r8, lr}
10000352:	bf38      	it	cc
10000354:	4662      	movcc	r2, ip
10000356:	2000      	movs	r0, #0
10000358:	f002 bab8 	b.w	100028cc <hardware_alarm_set_target>
1000035c:	2303      	movs	r3, #3
1000035e:	2207      	movs	r2, #7
10000360:	2600      	movs	r6, #0
10000362:	4c9c      	ldr	r4, [pc, #624]	@ (100005d4 <tx_phase_alarm_cb+0x2f0>)
10000364:	489c      	ldr	r0, [pc, #624]	@ (100005d8 <tx_phase_alarm_cb+0x2f4>)
10000366:	7825      	ldrb	r5, [r4, #0]
10000368:	700b      	strb	r3, [r1, #0]
1000036a:	4b9c      	ldr	r3, [pc, #624]	@ (100005dc <tx_phase_alarm_cb+0x2f8>)
1000036c:	4115      	asrs	r5, r2
1000036e:	601a      	str	r2, [r3, #0]
10000370:	6006      	str	r6, [r0, #0]
10000372:	f002 fa43 	bl	100027fc <time_us_64>
10000376:	4b9a      	ldr	r3, [pc, #616]	@ (100005e0 <tx_phase_alarm_cb+0x2fc>)
10000378:	4a94      	ldr	r2, [pc, #592]	@ (100005cc <tx_phase_alarm_cb+0x2e8>)
1000037a:	f04f 0c01 	mov.w	ip, #1
1000037e:	6812      	ldr	r2, [r2, #0]
10000380:	4604      	mov	r4, r0
10000382:	e9c3 0100 	strd	r0, r1, [r3]
10000386:	ec4c 2044 	gpioc_bit_oe_put r2, ip
1000038a:	f240 52dc 	movw	r2, #1500	@ 0x5dc
1000038e:	42b5      	cmp	r5, r6
10000390:	bf18      	it	ne
10000392:	f44f 7216 	movne.w	r2, #600	@ 0x258
10000396:	1912      	adds	r2, r2, r4
10000398:	f04f 0000 	mov.w	r0, #0
1000039c:	e8bd 41f0 	ldmia.w	sp!, {r4, r5, r6, r7, r8, lr}
100003a0:	f141 0300 	adc.w	r3, r1, #0
100003a4:	f002 ba92 	b.w	100028cc <hardware_alarm_set_target>
100003a8:	4b88      	ldr	r3, [pc, #544]	@ (100005cc <tx_phase_alarm_cb+0x2e8>)
100003aa:	f04f 0200 	mov.w	r2, #0
100003ae:	681b      	ldr	r3, [r3, #0]
100003b0:	ec42 3044 	gpioc_bit_oe_put r3, r2
100003b4:	4b88      	ldr	r3, [pc, #544]	@ (100005d8 <tx_phase_alarm_cb+0x2f4>)
100003b6:	4887      	ldr	r0, [pc, #540]	@ (100005d4 <tx_phase_alarm_cb+0x2f0>)
100003b8:	681b      	ldr	r3, [r3, #0]
100003ba:	4a88      	ldr	r2, [pc, #544]	@ (100005dc <tx_phase_alarm_cb+0x2f8>)
100003bc:	5cc0      	ldrb	r0, [r0, r3]
100003be:	6812      	ldr	r2, [r2, #0]
100003c0:	4b87      	ldr	r3, [pc, #540]	@ (100005e0 <tx_phase_alarm_cb+0x2fc>)
100003c2:	4110      	asrs	r0, r2
100003c4:	f010 0001 	ands.w	r0, r0, #1
100003c8:	e9d3 2300 	ldrd	r2, r3, [r3]
100003cc:	f000 80c2 	beq.w	10000554 <tx_phase_alarm_cb+0x270>
100003d0:	f240 441a 	movw	r4, #1050	@ 0x41a
100003d4:	2504      	movs	r5, #4
100003d6:	1912      	adds	r2, r2, r4
100003d8:	700d      	strb	r5, [r1, #0]
100003da:	f04f 0000 	mov.w	r0, #0
100003de:	e8bd 41f0 	ldmia.w	sp!, {r4, r5, r6, r7, r8, lr}
100003e2:	f143 0300 	adc.w	r3, r3, #0
100003e6:	f002 ba71 	b.w	100028cc <hardware_alarm_set_target>
100003ea:	f04f 4250 	mov.w	r2, #3489660928	@ 0xd0000000
100003ee:	2001      	movs	r0, #1
100003f0:	4b76      	ldr	r3, [pc, #472]	@ (100005cc <tx_phase_alarm_cb+0x2e8>)
100003f2:	6852      	ldr	r2, [r2, #4]
100003f4:	681b      	ldr	r3, [r3, #0]
100003f6:	fa00 f303 	lsl.w	r3, r0, r3
100003fa:	4013      	ands	r3, r2
100003fc:	f040 80e2 	bne.w	100005c4 <tx_phase_alarm_cb+0x2e0>
10000400:	2511      	movs	r5, #17
10000402:	220a      	movs	r2, #10
10000404:	4c77      	ldr	r4, [pc, #476]	@ (100005e4 <tx_phase_alarm_cb+0x300>)
10000406:	7023      	strb	r3, [r4, #0]
10000408:	4c77      	ldr	r4, [pc, #476]	@ (100005e8 <tx_phase_alarm_cb+0x304>)
1000040a:	7023      	strb	r3, [r4, #0]
1000040c:	4c77      	ldr	r4, [pc, #476]	@ (100005ec <tx_phase_alarm_cb+0x308>)
1000040e:	4b70      	ldr	r3, [pc, #448]	@ (100005d0 <tx_phase_alarm_cb+0x2ec>)
10000410:	7025      	strb	r5, [r4, #0]
10000412:	700a      	strb	r2, [r1, #0]
10000414:	7018      	strb	r0, [r3, #0]
10000416:	e781      	b.n	1000031c <tx_phase_alarm_cb+0x38>
10000418:	4a70      	ldr	r2, [pc, #448]	@ (100005dc <tx_phase_alarm_cb+0x2f8>)
1000041a:	486f      	ldr	r0, [pc, #444]	@ (100005d8 <tx_phase_alarm_cb+0x2f4>)
1000041c:	6813      	ldr	r3, [r2, #0]
1000041e:	6804      	ldr	r4, [r0, #0]
10000420:	3b01      	subs	r3, #1
10000422:	2b00      	cmp	r3, #0
10000424:	6013      	str	r3, [r2, #0]
10000426:	f2c0 80ad 	blt.w	10000584 <tx_phase_alarm_cb+0x2a0>
1000042a:	2003      	movs	r0, #3
1000042c:	4a69      	ldr	r2, [pc, #420]	@ (100005d4 <tx_phase_alarm_cb+0x2f0>)
1000042e:	7008      	strb	r0, [r1, #0]
10000430:	5d12      	ldrb	r2, [r2, r4]
10000432:	f04f 0601 	mov.w	r6, #1
10000436:	fa42 f303 	asr.w	r3, r2, r3
1000043a:	f003 0501 	and.w	r5, r3, #1
1000043e:	f002 f9dd 	bl	100027fc <time_us_64>
10000442:	4b67      	ldr	r3, [pc, #412]	@ (100005e0 <tx_phase_alarm_cb+0x2fc>)
10000444:	4a61      	ldr	r2, [pc, #388]	@ (100005cc <tx_phase_alarm_cb+0x2e8>)
10000446:	4604      	mov	r4, r0
10000448:	e9c3 0100 	strd	r0, r1, [r3]
1000044c:	6812      	ldr	r2, [r2, #0]
1000044e:	ec46 2044 	gpioc_bit_oe_put r2, r6
10000452:	f240 52dc 	movw	r2, #1500	@ 0x5dc
10000456:	2d00      	cmp	r5, #0
10000458:	e79a      	b.n	10000390 <tx_phase_alarm_cb+0xac>
1000045a:	4b5c      	ldr	r3, [pc, #368]	@ (100005cc <tx_phase_alarm_cb+0x2e8>)
1000045c:	f04f 0200 	mov.w	r2, #0
10000460:	681b      	ldr	r3, [r3, #0]
10000462:	ec42 3044 	gpioc_bit_oe_put r3, r2
10000466:	2407      	movs	r4, #7
10000468:	4b5d      	ldr	r3, [pc, #372]	@ (100005e0 <tx_phase_alarm_cb+0x2fc>)
1000046a:	700c      	strb	r4, [r1, #0]
1000046c:	e9d3 2300 	ldrd	r2, r3, [r3]
10000470:	f512 6216 	adds.w	r2, r2, #2400	@ 0x960
10000474:	f04f 0000 	mov.w	r0, #0
10000478:	e8bd 41f0 	ldmia.w	sp!, {r4, r5, r6, r7, r8, lr}
1000047c:	f143 0300 	adc.w	r3, r3, #0
10000480:	f002 ba24 	b.w	100028cc <hardware_alarm_set_target>
10000484:	2308      	movs	r3, #8
10000486:	700b      	strb	r3, [r1, #0]
10000488:	f002 f9b8 	bl	100027fc <time_us_64>
1000048c:	4b54      	ldr	r3, [pc, #336]	@ (100005e0 <tx_phase_alarm_cb+0x2fc>)
1000048e:	4a4f      	ldr	r2, [pc, #316]	@ (100005cc <tx_phase_alarm_cb+0x2e8>)
10000490:	f04f 0401 	mov.w	r4, #1
10000494:	e9c3 0100 	strd	r0, r1, [r3]
10000498:	6812      	ldr	r2, [r2, #0]
1000049a:	ec44 2044 	gpioc_bit_oe_put r2, r4
1000049e:	f510 7216 	adds.w	r2, r0, #600	@ 0x258
100004a2:	f141 0300 	adc.w	r3, r1, #0
100004a6:	2000      	movs	r0, #0
100004a8:	e8bd 41f0 	ldmia.w	sp!, {r4, r5, r6, r7, r8, lr}
100004ac:	f002 ba0e 	b.w	100028cc <hardware_alarm_set_target>
100004b0:	4b46      	ldr	r3, [pc, #280]	@ (100005cc <tx_phase_alarm_cb+0x2e8>)
100004b2:	f04f 0200 	mov.w	r2, #0
100004b6:	681b      	ldr	r3, [r3, #0]
100004b8:	ec42 3044 	gpioc_bit_oe_put r3, r2
100004bc:	f240 401a 	movw	r0, #1050	@ 0x41a
100004c0:	2409      	movs	r4, #9
100004c2:	4b47      	ldr	r3, [pc, #284]	@ (100005e0 <tx_phase_alarm_cb+0x2fc>)
100004c4:	700c      	strb	r4, [r1, #0]
100004c6:	e9d3 2300 	ldrd	r2, r3, [r3]
100004ca:	1812      	adds	r2, r2, r0
100004cc:	f143 0300 	adc.w	r3, r3, #0
100004d0:	2000      	movs	r0, #0
100004d2:	e8bd 41f0 	ldmia.w	sp!, {r4, r5, r6, r7, r8, lr}
100004d6:	f002 b9f9 	b.w	100028cc <hardware_alarm_set_target>
100004da:	f04f 4c50 	mov.w	ip, #3489660928	@ 0xd0000000
100004de:	4b3d      	ldr	r3, [pc, #244]	@ (100005d4 <tx_phase_alarm_cb+0x2f0>)
100004e0:	4c3d      	ldr	r4, [pc, #244]	@ (100005d8 <tx_phase_alarm_cb+0x2f4>)
100004e2:	f893 e010 	ldrb.w	lr, [r3, #16]
100004e6:	7c98      	ldrb	r0, [r3, #18]
100004e8:	4b3d      	ldr	r3, [pc, #244]	@ (100005e0 <tx_phase_alarm_cb+0x2fc>)
100004ea:	6825      	ldr	r5, [r4, #0]
100004ec:	e9d3 2300 	ldrd	r2, r3, [r3]
100004f0:	f512 6216 	adds.w	r2, r2, #2400	@ 0x960
100004f4:	f8dc 6004 	ldr.w	r6, [ip, #4]
100004f8:	f10e 3eff 	add.w	lr, lr, #4294967295	@ 0xffffffff
100004fc:	f143 0300 	adc.w	r3, r3, #0
10000500:	b1d0      	cbz	r0, 10000538 <tx_phase_alarm_cb+0x254>
10000502:	f04f 0c01 	mov.w	ip, #1
10000506:	4831      	ldr	r0, [pc, #196]	@ (100005cc <tx_phase_alarm_cb+0x2e8>)
10000508:	6800      	ldr	r0, [r0, #0]
1000050a:	fa0c fc00 	lsl.w	ip, ip, r0
1000050e:	ea1c 0f06 	tst.w	ip, r6
10000512:	d011      	beq.n	10000538 <tx_phase_alarm_cb+0x254>
10000514:	45ae      	cmp	lr, r5
10000516:	d111      	bne.n	1000053c <tx_phase_alarm_cb+0x258>
10000518:	2000      	movs	r0, #0
1000051a:	240a      	movs	r4, #10
1000051c:	f04f 0c12 	mov.w	ip, #18
10000520:	4d30      	ldr	r5, [pc, #192]	@ (100005e4 <tx_phase_alarm_cb+0x300>)
10000522:	4f31      	ldr	r7, [pc, #196]	@ (100005e8 <tx_phase_alarm_cb+0x304>)
10000524:	4e31      	ldr	r6, [pc, #196]	@ (100005ec <tx_phase_alarm_cb+0x308>)
10000526:	7028      	strb	r0, [r5, #0]
10000528:	7038      	strb	r0, [r7, #0]
1000052a:	f886 c000 	strb.w	ip, [r6]
1000052e:	700c      	strb	r4, [r1, #0]
10000530:	e8bd 41f0 	ldmia.w	sp!, {r4, r5, r6, r7, r8, lr}
10000534:	f002 b9ca 	b.w	100028cc <hardware_alarm_set_target>
10000538:	45ae      	cmp	lr, r5
1000053a:	d015      	beq.n	10000568 <tx_phase_alarm_cb+0x284>
1000053c:	3501      	adds	r5, #1
1000053e:	6025      	str	r5, [r4, #0]
10000540:	2405      	movs	r4, #5
10000542:	2508      	movs	r5, #8
10000544:	4825      	ldr	r0, [pc, #148]	@ (100005dc <tx_phase_alarm_cb+0x2f8>)
10000546:	700c      	strb	r4, [r1, #0]
10000548:	6005      	str	r5, [r0, #0]
1000054a:	2000      	movs	r0, #0
1000054c:	e8bd 41f0 	ldmia.w	sp!, {r4, r5, r6, r7, r8, lr}
10000550:	f002 b9bc 	b.w	100028cc <hardware_alarm_set_target>
10000554:	2405      	movs	r4, #5
10000556:	f512 6216 	adds.w	r2, r2, #2400	@ 0x960
1000055a:	700c      	strb	r4, [r1, #0]
1000055c:	f143 0300 	adc.w	r3, r3, #0
10000560:	e8bd 41f0 	ldmia.w	sp!, {r4, r5, r6, r7, r8, lr}
10000564:	f002 b9b2 	b.w	100028cc <hardware_alarm_set_target>
10000568:	240a      	movs	r4, #10
1000056a:	2000      	movs	r0, #0
1000056c:	f04f 0c01 	mov.w	ip, #1
10000570:	4d1c      	ldr	r5, [pc, #112]	@ (100005e4 <tx_phase_alarm_cb+0x300>)
10000572:	4e1d      	ldr	r6, [pc, #116]	@ (100005e8 <tx_phase_alarm_cb+0x304>)
10000574:	7028      	strb	r0, [r5, #0]
10000576:	f886 c000 	strb.w	ip, [r6]
1000057a:	700c      	strb	r4, [r1, #0]
1000057c:	e8bd 41f0 	ldmia.w	sp!, {r4, r5, r6, r7, r8, lr}
10000580:	f002 b9a4 	b.w	100028cc <hardware_alarm_set_target>
10000584:	2306      	movs	r3, #6
10000586:	4a13      	ldr	r2, [pc, #76]	@ (100005d4 <tx_phase_alarm_cb+0x2f0>)
10000588:	700b      	strb	r3, [r1, #0]
1000058a:	7c15      	ldrb	r5, [r2, #16]
1000058c:	f002 f936 	bl	100027fc <time_us_64>
10000590:	4b13      	ldr	r3, [pc, #76]	@ (100005e0 <tx_phase_alarm_cb+0x2fc>)
10000592:	4a0e      	ldr	r2, [pc, #56]	@ (100005cc <tx_phase_alarm_cb+0x2e8>)
10000594:	f04f 0c01 	mov.w	ip, #1
10000598:	6816      	ldr	r6, [r2, #0]
1000059a:	e9c3 0100 	strd	r0, r1, [r3]
1000059e:	4602      	mov	r2, r0
100005a0:	3d01      	subs	r5, #1
100005a2:	ec4c 6044 	gpioc_bit_oe_put r6, ip
100005a6:	f240 53dc 	movw	r3, #1500	@ 0x5dc
100005aa:	42a5      	cmp	r5, r4
100005ac:	bf08      	it	eq
100005ae:	f44f 7316 	moveq.w	r3, #600	@ 0x258
100005b2:	e8bd 41f0 	ldmia.w	sp!, {r4, r5, r6, r7, r8, lr}
100005b6:	18d2      	adds	r2, r2, r3
100005b8:	f04f 0000 	mov.w	r0, #0
100005bc:	f141 0300 	adc.w	r3, r1, #0
100005c0:	f002 b984 	b.w	100028cc <hardware_alarm_set_target>
100005c4:	2405      	movs	r4, #5
100005c6:	e74f      	b.n	10000468 <tx_phase_alarm_cb+0x184>
100005c8:	200025ea 	.word	0x200025ea
100005cc:	200023bc 	.word	0x200023bc
100005d0:	200025eb 	.word	0x200025eb
100005d4:	20002364 	.word	0x20002364
100005d8:	2000252c 	.word	0x2000252c
100005dc:	20002528 	.word	0x20002528
100005e0:	20001668 	.word	0x20001668
100005e4:	200025e7 	.word	0x200025e7
100005e8:	200025ec 	.word	0x200025ec
100005ec:	200025e8 	.word	0x200025e8

100005f0 <cec_rx_process>:
100005f0:	4a78      	ldr	r2, [pc, #480]	@ (100007d4 <cec_rx_process+0x1e4>)
100005f2:	e92d 4ff8 	stmdb	sp!, {r3, r4, r5, r6, r7, r8, r9, sl, fp, lr}
100005f6:	7813      	ldrb	r3, [r2, #0]
100005f8:	2b00      	cmp	r3, #0
100005fa:	f000 80ad 	beq.w	10000758 <cec_rx_process+0x168>
100005fe:	4f76      	ldr	r7, [pc, #472]	@ (100007d8 <cec_rx_process+0x1e8>)
10000600:	4e76      	ldr	r6, [pc, #472]	@ (100007dc <cec_rx_process+0x1ec>)
10000602:	683b      	ldr	r3, [r7, #0]
10000604:	6832      	ldr	r2, [r6, #0]
10000606:	4293      	cmp	r3, r2
10000608:	d04f      	beq.n	100006aa <cec_rx_process+0xba>
1000060a:	f8df 81f8 	ldr.w	r8, [pc, #504]	@ 10000804 <cec_rx_process+0x214>
1000060e:	f04f 0a00 	mov.w	sl, #0
10000612:	f898 1000 	ldrb.w	r1, [r8]
10000616:	4d72      	ldr	r5, [pc, #456]	@ (100007e0 <cec_rx_process+0x1f0>)
10000618:	4c72      	ldr	r4, [pc, #456]	@ (100007e4 <cec_rx_process+0x1f4>)
1000061a:	f8df 91ec 	ldr.w	r9, [pc, #492]	@ 10000808 <cec_rx_process+0x218>
1000061e:	e00d      	b.n	1000063c <cec_rx_process+0x4c>
10000620:	2901      	cmp	r1, #1
10000622:	e9c4 c300 	strd	ip, r3, [r4]
10000626:	d04c      	beq.n	100006c2 <cec_rx_process+0xd2>
10000628:	2903      	cmp	r1, #3
1000062a:	d04e      	beq.n	100006ca <cec_rx_process+0xda>
1000062c:	2900      	cmp	r1, #0
1000062e:	d148      	bne.n	100006c2 <cec_rx_process+0xd2>
10000630:	2101      	movs	r1, #1
10000632:	f888 1000 	strb.w	r1, [r8]
10000636:	683b      	ldr	r3, [r7, #0]
10000638:	4293      	cmp	r3, r2
1000063a:	d036      	beq.n	100006aa <cec_rx_process+0xba>
1000063c:	eb05 1302 	add.w	r3, r5, r2, lsl #4
10000640:	6898      	ldr	r0, [r3, #8]
10000642:	f102 0e01 	add.w	lr, r2, #1
10000646:	ea4f 1c02 	mov.w	ip, r2, lsl #4
1000064a:	f00e 023f 	and.w	r2, lr, #63	@ 0x3f
1000064e:	f855 c00c 	ldr.w	ip, [r5, ip]
10000652:	685b      	ldr	r3, [r3, #4]
10000654:	6032      	str	r2, [r6, #0]
10000656:	2800      	cmp	r0, #0
10000658:	d0e2      	beq.n	10000620 <cec_rx_process+0x30>
1000065a:	6820      	ldr	r0, [r4, #0]
1000065c:	ebbc 0c00 	subs.w	ip, ip, r0
10000660:	6860      	ldr	r0, [r4, #4]
10000662:	eb63 0300 	sbc.w	r3, r3, r0
10000666:	2901      	cmp	r1, #1
10000668:	d021      	beq.n	100006ae <cec_rx_process+0xbe>
1000066a:	2902      	cmp	r1, #2
1000066c:	d1e3      	bne.n	10000636 <cec_rx_process+0x46>
1000066e:	f240 4b1a 	movw	fp, #1050	@ 0x41a
10000672:	485d      	ldr	r0, [pc, #372]	@ (100007e8 <cec_rx_process+0x1f8>)
10000674:	45dc      	cmp	ip, fp
10000676:	6801      	ldr	r1, [r0, #0]
10000678:	f173 0e00 	sbcs.w	lr, r3, #0
1000067c:	bf34      	ite	cc
1000067e:	f04f 0e01 	movcc.w	lr, #1
10000682:	f04f 0e00 	movcs.w	lr, #0
10000686:	2907      	cmp	r1, #7
10000688:	dc27      	bgt.n	100006da <cec_rx_process+0xea>
1000068a:	f8df b180 	ldr.w	fp, [pc, #384]	@ 1000080c <cec_rx_process+0x21c>
1000068e:	3101      	adds	r1, #1
10000690:	f89b 3000 	ldrb.w	r3, [fp]
10000694:	ea4e 0343 	orr.w	r3, lr, r3, lsl #1
10000698:	f88b 3000 	strb.w	r3, [fp]
1000069c:	6001      	str	r1, [r0, #0]
1000069e:	2103      	movs	r1, #3
100006a0:	683b      	ldr	r3, [r7, #0]
100006a2:	f888 1000 	strb.w	r1, [r8]
100006a6:	4293      	cmp	r3, r2
100006a8:	d1c8      	bne.n	1000063c <cec_rx_process+0x4c>
100006aa:	e8bd 8ff8 	ldmia.w	sp!, {r3, r4, r5, r6, r7, r8, r9, sl, fp, pc}
100006ae:	f240 3121 	movw	r1, #801	@ 0x321
100006b2:	eb1c 0c09 	adds.w	ip, ip, r9
100006b6:	f163 0300 	sbc.w	r3, r3, #0
100006ba:	458c      	cmp	ip, r1
100006bc:	f173 0300 	sbcs.w	r3, r3, #0
100006c0:	d311      	bcc.n	100006e6 <cec_rx_process+0xf6>
100006c2:	2100      	movs	r1, #0
100006c4:	f888 a000 	strb.w	sl, [r8]
100006c8:	e7b5      	b.n	10000636 <cec_rx_process+0x46>
100006ca:	4947      	ldr	r1, [pc, #284]	@ (100007e8 <cec_rx_process+0x1f8>)
100006cc:	6809      	ldr	r1, [r1, #0]
100006ce:	2909      	cmp	r1, #9
100006d0:	d021      	beq.n	10000716 <cec_rx_process+0x126>
100006d2:	2102      	movs	r1, #2
100006d4:	f888 1000 	strb.w	r1, [r8]
100006d8:	e7ad      	b.n	10000636 <cec_rx_process+0x46>
100006da:	2908      	cmp	r1, #8
100006dc:	d016      	beq.n	1000070c <cec_rx_process+0x11c>
100006de:	2909      	cmp	r1, #9
100006e0:	d04e      	beq.n	10000780 <cec_rx_process+0x190>
100006e2:	3101      	adds	r1, #1
100006e4:	e7da      	b.n	1000069c <cec_rx_process+0xac>
100006e6:	2000      	movs	r0, #0
100006e8:	2103      	movs	r1, #3
100006ea:	4b40      	ldr	r3, [pc, #256]	@ (100007ec <cec_rx_process+0x1fc>)
100006ec:	f8df b11c 	ldr.w	fp, [pc, #284]	@ 1000080c <cec_rx_process+0x21c>
100006f0:	e9c3 0000 	strd	r0, r0, [r3]
100006f4:	e9c3 0002 	strd	r0, r0, [r3, #8]
100006f8:	8218      	strh	r0, [r3, #16]
100006fa:	4b3b      	ldr	r3, [pc, #236]	@ (100007e8 <cec_rx_process+0x1f8>)
100006fc:	f88b 0000 	strb.w	r0, [fp]
10000700:	6018      	str	r0, [r3, #0]
10000702:	4b3b      	ldr	r3, [pc, #236]	@ (100007f0 <cec_rx_process+0x200>)
10000704:	f888 1000 	strb.w	r1, [r8]
10000708:	7018      	strb	r0, [r3, #0]
1000070a:	e794      	b.n	10000636 <cec_rx_process+0x46>
1000070c:	4b38      	ldr	r3, [pc, #224]	@ (100007f0 <cec_rx_process+0x200>)
1000070e:	2109      	movs	r1, #9
10000710:	f883 e000 	strb.w	lr, [r3]
10000714:	e7c2      	b.n	1000069c <cec_rx_process+0xac>
10000716:	4935      	ldr	r1, [pc, #212]	@ (100007ec <cec_rx_process+0x1fc>)
10000718:	7c08      	ldrb	r0, [r1, #16]
1000071a:	b330      	cbz	r0, 1000076a <cec_rx_process+0x17a>
1000071c:	7808      	ldrb	r0, [r1, #0]
1000071e:	f000 000f 	and.w	r0, r0, #15
10000722:	4934      	ldr	r1, [pc, #208]	@ (100007f4 <cec_rx_process+0x204>)
10000724:	8809      	ldrh	r1, [r1, #0]
10000726:	40c1      	lsrs	r1, r0
10000728:	f011 0f01 	tst.w	r1, #1
1000072c:	4932      	ldr	r1, [pc, #200]	@ (100007f8 <cec_rx_process+0x208>)
1000072e:	d023      	beq.n	10000778 <cec_rx_process+0x188>
10000730:	2200      	movs	r2, #0
10000732:	700a      	strb	r2, [r1, #0]
10000734:	4a31      	ldr	r2, [pc, #196]	@ (100007fc <cec_rx_process+0x20c>)
10000736:	f04f 0101 	mov.w	r1, #1
1000073a:	6812      	ldr	r2, [r2, #0]
1000073c:	ec41 2044 	gpioc_bit_oe_put r2, r1
10000740:	f240 52dc 	movw	r2, #1500	@ 0x5dc
10000744:	eb1c 0202 	adds.w	r2, ip, r2
10000748:	f04f 0001 	mov.w	r0, #1
1000074c:	f143 0300 	adc.w	r3, r3, #0
10000750:	f002 f8bc 	bl	100028cc <hardware_alarm_set_target>
10000754:	6832      	ldr	r2, [r6, #0]
10000756:	e7bc      	b.n	100006d2 <cec_rx_process+0xe2>
10000758:	2001      	movs	r0, #1
1000075a:	4924      	ldr	r1, [pc, #144]	@ (100007ec <cec_rx_process+0x1fc>)
1000075c:	7010      	strb	r0, [r2, #0]
1000075e:	e9c1 3300 	strd	r3, r3, [r1]
10000762:	e9c1 3302 	strd	r3, r3, [r1, #8]
10000766:	820b      	strh	r3, [r1, #16]
10000768:	e749      	b.n	100005fe <cec_rx_process+0xe>
1000076a:	f8df b0a0 	ldr.w	fp, [pc, #160]	@ 1000080c <cec_rx_process+0x21c>
1000076e:	f89b 0000 	ldrb.w	r0, [fp]
10000772:	f000 000f 	and.w	r0, r0, #15
10000776:	e7d4      	b.n	10000722 <cec_rx_process+0x132>
10000778:	7808      	ldrb	r0, [r1, #0]
1000077a:	2800      	cmp	r0, #0
1000077c:	d0a9      	beq.n	100006d2 <cec_rx_process+0xe2>
1000077e:	e7d7      	b.n	10000730 <cec_rx_process+0x140>
10000780:	45dc      	cmp	ip, fp
10000782:	f173 0300 	sbcs.w	r3, r3, #0
10000786:	bf2c      	ite	cs
10000788:	2101      	movcs	r1, #1
1000078a:	2100      	movcc	r1, #0
1000078c:	4b17      	ldr	r3, [pc, #92]	@ (100007ec <cec_rx_process+0x1fc>)
1000078e:	f8df b07c 	ldr.w	fp, [pc, #124]	@ 1000080c <cec_rx_process+0x21c>
10000792:	7459      	strb	r1, [r3, #17]
10000794:	7c19      	ldrb	r1, [r3, #16]
10000796:	290f      	cmp	r1, #15
10000798:	bf9f      	itttt	ls
1000079a:	f101 0c01 	addls.w	ip, r1, #1
1000079e:	f883 c010 	strbls.w	ip, [r3, #16]
100007a2:	f89b c000 	ldrbls.w	ip, [fp]
100007a6:	f803 c001 	strbls.w	ip, [r3, r1]
100007aa:	2300      	movs	r3, #0
100007ac:	f88b 3000 	strb.w	r3, [fp]
100007b0:	f04f 33ff 	mov.w	r3, #4294967295	@ 0xffffffff
100007b4:	6003      	str	r3, [r0, #0]
100007b6:	4b0e      	ldr	r3, [pc, #56]	@ (100007f0 <cec_rx_process+0x200>)
100007b8:	7819      	ldrb	r1, [r3, #0]
100007ba:	2900      	cmp	r1, #0
100007bc:	f43f af6e 	beq.w	1000069c <cec_rx_process+0xac>
100007c0:	4b0f      	ldr	r3, [pc, #60]	@ (10000800 <cec_rx_process+0x210>)
100007c2:	681b      	ldr	r3, [r3, #0]
100007c4:	b113      	cbz	r3, 100007cc <cec_rx_process+0x1dc>
100007c6:	4809      	ldr	r0, [pc, #36]	@ (100007ec <cec_rx_process+0x1fc>)
100007c8:	4798      	blx	r3
100007ca:	6832      	ldr	r2, [r6, #0]
100007cc:	2100      	movs	r1, #0
100007ce:	f888 1000 	strb.w	r1, [r8]
100007d2:	e730      	b.n	10000636 <cec_rx_process+0x46>
100007d4:	200025e2 	.word	0x200025e2
100007d8:	2000241c 	.word	0x2000241c
100007dc:	20002420 	.word	0x20002420
100007e0:	20001268 	.word	0x20001268
100007e4:	20001258 	.word	0x20001258
100007e8:	20001c9c 	.word	0x20001c9c
100007ec:	20001de4 	.word	0x20001de4
100007f0:	200025e1 	.word	0x200025e1
100007f4:	200025da 	.word	0x200025da
100007f8:	200025e5 	.word	0x200025e5
100007fc:	200023bc 	.word	0x200023bc
10000800:	20002424 	.word	0x20002424
10000804:	200025ed 	.word	0x200025ed
10000808:	fffff31c 	.word	0xfffff31c
1000080c:	200025e0 	.word	0x200025e0

10000810 <cec_bus_tick>:
10000810:	4b39      	ldr	r3, [pc, #228]	@ (100008f8 <cec_bus_tick+0xe8>)
10000812:	e92d 47f0 	stmdb	sp!, {r4, r5, r6, r7, r8, r9, sl, lr}
10000816:	781a      	ldrb	r2, [r3, #0]
10000818:	b14a      	cbz	r2, 1000082e <cec_bus_tick+0x1e>
1000081a:	2100      	movs	r1, #0
1000081c:	4a37      	ldr	r2, [pc, #220]	@ (100008fc <cec_bus_tick+0xec>)
1000081e:	7019      	strb	r1, [r3, #0]
10000820:	6952      	ldr	r2, [r2, #20]
10000822:	b122      	cbz	r2, 1000082e <cec_bus_tick+0x1e>
10000824:	4936      	ldr	r1, [pc, #216]	@ (10000900 <cec_bus_tick+0xf0>)
10000826:	4b37      	ldr	r3, [pc, #220]	@ (10000904 <cec_bus_tick+0xf4>)
10000828:	7808      	ldrb	r0, [r1, #0]
1000082a:	7819      	ldrb	r1, [r3, #0]
1000082c:	4790      	blx	r2
1000082e:	4c36      	ldr	r4, [pc, #216]	@ (10000908 <cec_bus_tick+0xf8>)
10000830:	7823      	ldrb	r3, [r4, #0]
10000832:	b123      	cbz	r3, 1000083e <cec_bus_tick+0x2e>
10000834:	4d35      	ldr	r5, [pc, #212]	@ (1000090c <cec_bus_tick+0xfc>)
10000836:	782b      	ldrb	r3, [r5, #0]
10000838:	f003 06ff 	and.w	r6, r3, #255	@ 0xff
1000083c:	b10b      	cbz	r3, 10000842 <cec_bus_tick+0x32>
1000083e:	e8bd 87f0 	ldmia.w	sp!, {r4, r5, r6, r7, r8, r9, sl, pc}
10000842:	f001 ffdb 	bl	100027fc <time_us_64>
10000846:	f44f 6216 	mov.w	r2, #2400	@ 0x960
1000084a:	4f31      	ldr	r7, [pc, #196]	@ (10000910 <cec_bus_tick+0x100>)
1000084c:	4b31      	ldr	r3, [pc, #196]	@ (10000914 <cec_bus_tick+0x104>)
1000084e:	f897 c011 	ldrb.w	ip, [r7, #17]
10000852:	e9d3 8900 	ldrd	r8, r9, [r3]
10000856:	fb02 fc0c 	mul.w	ip, r2, ip
1000085a:	ebb0 0208 	subs.w	r2, r0, r8
1000085e:	eb61 0309 	sbc.w	r3, r1, r9
10000862:	4562      	cmp	r2, ip
10000864:	f173 0300 	sbcs.w	r3, r3, #0
10000868:	d213      	bcs.n	10000892 <cec_bus_tick+0x82>
1000086a:	4b2b      	ldr	r3, [pc, #172]	@ (10000918 <cec_bus_tick+0x108>)
1000086c:	4d2b      	ldr	r5, [pc, #172]	@ (1000091c <cec_bus_tick+0x10c>)
1000086e:	681a      	ldr	r2, [r3, #0]
10000870:	685b      	ldr	r3, [r3, #4]
10000872:	1a80      	subs	r0, r0, r2
10000874:	eb61 0103 	sbc.w	r1, r1, r3
10000878:	4285      	cmp	r5, r0
1000087a:	eb76 0101 	sbcs.w	r1, r6, r1
1000087e:	d2de      	bcs.n	1000083e <cec_bus_tick+0x2e>
10000880:	697b      	ldr	r3, [r7, #20]
10000882:	7026      	strb	r6, [r4, #0]
10000884:	2b00      	cmp	r3, #0
10000886:	d0da      	beq.n	1000083e <cec_bus_tick+0x2e>
10000888:	4630      	mov	r0, r6
1000088a:	e8bd 47f0 	ldmia.w	sp!, {r4, r5, r6, r7, r8, r9, sl, lr}
1000088e:	2114      	movs	r1, #20
10000890:	4718      	bx	r3
10000892:	7026      	strb	r6, [r4, #0]
10000894:	2401      	movs	r4, #1
10000896:	46bc      	mov	ip, r7
10000898:	f04f 0e07 	mov.w	lr, #7
1000089c:	4818      	ldr	r0, [pc, #96]	@ (10000900 <cec_bus_tick+0xf0>)
1000089e:	4a19      	ldr	r2, [pc, #100]	@ (10000904 <cec_bus_tick+0xf4>)
100008a0:	4b1f      	ldr	r3, [pc, #124]	@ (10000920 <cec_bus_tick+0x110>)
100008a2:	4920      	ldr	r1, [pc, #128]	@ (10000924 <cec_bus_tick+0x114>)
100008a4:	702c      	strb	r4, [r5, #0]
100008a6:	600e      	str	r6, [r1, #0]
100008a8:	7006      	strb	r6, [r0, #0]
100008aa:	491f      	ldr	r1, [pc, #124]	@ (10000928 <cec_bus_tick+0x118>)
100008ac:	7016      	strb	r6, [r2, #0]
100008ae:	4f13      	ldr	r7, [pc, #76]	@ (100008fc <cec_bus_tick+0xec>)
100008b0:	701c      	strb	r4, [r3, #0]
100008b2:	4b1e      	ldr	r3, [pc, #120]	@ (1000092c <cec_bus_tick+0x11c>)
100008b4:	f8c1 e000 	str.w	lr, [r1]
100008b8:	681d      	ldr	r5, [r3, #0]
100008ba:	e8bc 000f 	ldmia.w	ip!, {r0, r1, r2, r3}
100008be:	c70f      	stmia	r7!, {r0, r1, r2, r3}
100008c0:	e89c 0003 	ldmia.w	ip, {r0, r1}
100008c4:	e887 0003 	stmia.w	r7, {r0, r1}
100008c8:	ec44 5044 	gpioc_bit_oe_put r5, r4
100008cc:	f001 ff96 	bl	100027fc <time_us_64>
100008d0:	f640 6374 	movw	r3, #3700	@ 0xe74
100008d4:	f04f 35ff 	mov.w	r5, #4294967295	@ 0xffffffff
100008d8:	f06f 4400 	mvn.w	r4, #2147483648	@ 0x80000000
100008dc:	18c2      	adds	r2, r0, r3
100008de:	f141 0300 	adc.w	r3, r1, #0
100008e2:	4295      	cmp	r5, r2
100008e4:	eb74 0103 	sbcs.w	r1, r4, r3
100008e8:	bf3c      	itt	cc
100008ea:	462a      	movcc	r2, r5
100008ec:	4623      	movcc	r3, r4
100008ee:	e8bd 47f0 	ldmia.w	sp!, {r4, r5, r6, r7, r8, r9, sl, lr}
100008f2:	2000      	movs	r0, #0
100008f4:	f001 bfea 	b.w	100028cc <hardware_alarm_set_target>
100008f8:	200025eb 	.word	0x200025eb
100008fc:	20002364 	.word	0x20002364
10000900:	200025ec 	.word	0x200025ec
10000904:	200025e8 	.word	0x200025e8
10000908:	200025e9 	.word	0x200025e9
1000090c:	200025e7 	.word	0x200025e7
10000910:	20002404 	.word	0x20002404
10000914:	20001260 	.word	0x20001260
10000918:	20001670 	.word	0x20001670
1000091c:	0007a11f 	.word	0x0007a11f
10000920:	200025ea 	.word	0x200025ea
10000924:	2000252c 	.word	0x2000252c
10000928:	20002528 	.word	0x20002528
1000092c:	200023bc 	.word	0x200023bc

10000930 <cec_bus_init>:
10000930:	b538      	push	{r3, r4, r5, lr}
10000932:	4a19      	ldr	r2, [pc, #100]	@ (10000998 <cec_bus_init+0x68>)
10000934:	4b19      	ldr	r3, [pc, #100]	@ (1000099c <cec_bus_init+0x6c>)
10000936:	4604      	mov	r4, r0
10000938:	6011      	str	r1, [r2, #0]
1000093a:	6018      	str	r0, [r3, #0]
1000093c:	f001 ff5e 	bl	100027fc <time_us_64>
10000940:	4d17      	ldr	r5, [pc, #92]	@ (100009a0 <cec_bus_init+0x70>)
10000942:	1942      	adds	r2, r0, r5
10000944:	4817      	ldr	r0, [pc, #92]	@ (100009a4 <cec_bus_init+0x74>)
10000946:	f161 0300 	sbc.w	r3, r1, #0
1000094a:	e9c0 2300 	strd	r2, r3, [r0]
1000094e:	4620      	mov	r0, r4
10000950:	f000 ff62 	bl	10001818 <gpio_init>
10000954:	2200      	movs	r2, #0
10000956:	2101      	movs	r1, #1
10000958:	4620      	mov	r0, r4
1000095a:	f000 fef5 	bl	10001748 <gpio_set_pulls>
1000095e:	f04f 0300 	mov.w	r3, #0
10000962:	ec43 4040 	gpioc_bit_out_put r4, r3
10000966:	ec43 4044 	gpioc_bit_oe_put r4, r3
1000096a:	2000      	movs	r0, #0
1000096c:	f001 ff34 	bl	100027d8 <hardware_alarm_claim>
10000970:	490d      	ldr	r1, [pc, #52]	@ (100009a8 <cec_bus_init+0x78>)
10000972:	2000      	movs	r0, #0
10000974:	f001 ff5e 	bl	10002834 <hardware_alarm_set_callback>
10000978:	2001      	movs	r0, #1
1000097a:	f001 ff2d 	bl	100027d8 <hardware_alarm_claim>
1000097e:	2001      	movs	r0, #1
10000980:	490a      	ldr	r1, [pc, #40]	@ (100009ac <cec_bus_init+0x7c>)
10000982:	f001 ff57 	bl	10002834 <hardware_alarm_set_callback>
10000986:	4620      	mov	r0, r4
10000988:	2201      	movs	r2, #1
1000098a:	210c      	movs	r1, #12
1000098c:	4b08      	ldr	r3, [pc, #32]	@ (100009b0 <cec_bus_init+0x80>)
1000098e:	f000 feef 	bl	10001770 <gpio_set_irq_enabled_with_callback>
10000992:	2000      	movs	r0, #0
10000994:	bd38      	pop	{r3, r4, r5, pc}
10000996:	bf00      	nop
10000998:	20002424 	.word	0x20002424
1000099c:	200023bc 	.word	0x200023bc
100009a0:	ffffaba0 	.word	0xffffaba0
100009a4:	20001260 	.word	0x20001260
100009a8:	100002e5 	.word	0x100002e5
100009ac:	10000265 	.word	0x10000265
100009b0:	10000279 	.word	0x10000279

100009b4 <cec_bus_transmit>:
100009b4:	4694      	mov	ip, r2
100009b6:	460a      	mov	r2, r1
100009b8:	4601      	mov	r1, r0
100009ba:	1e50      	subs	r0, r2, #1
100009bc:	280f      	cmp	r0, #15
100009be:	d824      	bhi.n	10000a0a <cec_bus_transmit+0x56>
100009c0:	b5f8      	push	{r3, r4, r5, r6, r7, lr}
100009c2:	4d13      	ldr	r5, [pc, #76]	@ (10000a10 <cec_bus_transmit+0x5c>)
100009c4:	7828      	ldrb	r0, [r5, #0]
100009c6:	b9e8      	cbnz	r0, 10000a04 <cec_bus_transmit+0x50>
100009c8:	4812      	ldr	r0, [pc, #72]	@ (10000a14 <cec_bus_transmit+0x60>)
100009ca:	7800      	ldrb	r0, [r0, #0]
100009cc:	f000 04ff 	and.w	r4, r0, #255	@ 0xff
100009d0:	b9c0      	cbnz	r0, 10000a04 <cec_bus_transmit+0x50>
100009d2:	f1bc 0f00 	cmp.w	ip, #0
100009d6:	bf08      	it	eq
100009d8:	f04f 0c07 	moveq.w	ip, #7
100009dc:	480e      	ldr	r0, [pc, #56]	@ (10000a18 <cec_bus_transmit+0x64>)
100009de:	7483      	strb	r3, [r0, #18]
100009e0:	9b06      	ldr	r3, [sp, #24]
100009e2:	7402      	strb	r2, [r0, #16]
100009e4:	6143      	str	r3, [r0, #20]
100009e6:	f880 c011 	strb.w	ip, [r0, #17]
100009ea:	f004 facb 	bl	10004f84 <memcpy>
100009ee:	f001 ff05 	bl	100027fc <time_us_64>
100009f2:	2201      	movs	r2, #1
100009f4:	4606      	mov	r6, r0
100009f6:	460f      	mov	r7, r1
100009f8:	4b08      	ldr	r3, [pc, #32]	@ (10000a1c <cec_bus_transmit+0x68>)
100009fa:	4620      	mov	r0, r4
100009fc:	e9c3 6700 	strd	r6, r7, [r3]
10000a00:	702a      	strb	r2, [r5, #0]
10000a02:	bdf8      	pop	{r3, r4, r5, r6, r7, pc}
10000a04:	f04f 30ff 	mov.w	r0, #4294967295	@ 0xffffffff
10000a08:	bdf8      	pop	{r3, r4, r5, r6, r7, pc}
10000a0a:	f06f 0001 	mvn.w	r0, #1
10000a0e:	4770      	bx	lr
10000a10:	200025e9 	.word	0x200025e9
10000a14:	200025e7 	.word	0x200025e7
10000a18:	20002404 	.word	0x20002404
10000a1c:	20001670 	.word	0x20001670

10000a20 <cec_bus_set_ack_mask>:
10000a20:	4b01      	ldr	r3, [pc, #4]	@ (10000a28 <cec_bus_set_ack_mask+0x8>)
10000a22:	8018      	strh	r0, [r3, #0]
10000a24:	4770      	bx	lr
10000a26:	bf00      	nop
10000a28:	200025da 	.word	0x200025da

10000a2c <flash_kv_init>:
10000a2c:	4917      	ldr	r1, [pc, #92]	@ (10000a8c <flash_kv_init+0x60>)
10000a2e:	b5f8      	push	{r3, r4, r5, r6, r7, lr}
10000a30:	4d17      	ldr	r5, [pc, #92]	@ (10000a90 <flash_kv_init+0x64>)
10000a32:	680b      	ldr	r3, [r1, #0]
10000a34:	42ab      	cmp	r3, r5
10000a36:	d108      	bne.n	10000a4a <flash_kv_init+0x1e>
10000a38:	f44f 7280 	mov.w	r2, #256	@ 0x100
10000a3c:	4815      	ldr	r0, [pc, #84]	@ (10000a94 <flash_kv_init+0x68>)
10000a3e:	f004 faa1 	bl	10004f84 <memcpy>
10000a42:	2200      	movs	r2, #0
10000a44:	4b14      	ldr	r3, [pc, #80]	@ (10000a98 <flash_kv_init+0x6c>)
10000a46:	701a      	strb	r2, [r3, #0]
10000a48:	bdf8      	pop	{r3, r4, r5, r6, r7, pc}
10000a4a:	22f8      	movs	r2, #248	@ 0xf8
10000a4c:	21ff      	movs	r1, #255	@ 0xff
10000a4e:	4813      	ldr	r0, [pc, #76]	@ (10000a9c <flash_kv_init+0x70>)
10000a50:	f004 f92e 	bl	10004cb0 <memset>
10000a54:	220e      	movs	r2, #14
10000a56:	2005      	movs	r0, #5
10000a58:	f04f 5380 	mov.w	r3, #268435456	@ 0x10000000
10000a5c:	4f0f      	ldr	r7, [pc, #60]	@ (10000a9c <flash_kv_init+0x70>)
10000a5e:	4e10      	ldr	r6, [pc, #64]	@ (10000aa0 <flash_kv_init+0x74>)
10000a60:	f1a7 0408 	sub.w	r4, r7, #8
10000a64:	490f      	ldr	r1, [pc, #60]	@ (10000aa4 <flash_kv_init+0x78>)
10000a66:	7220      	strb	r0, [r4, #8]
10000a68:	18a0      	adds	r0, r4, r2
10000a6a:	f8c7 3002 	str.w	r3, [r7, #2]
10000a6e:	e947 5602 	strd	r5, r6, [r7, #-8]
10000a72:	f004 f96b 	bl	10004d4c <strlcpy>
10000a76:	22e4      	movs	r2, #228	@ 0xe4
10000a78:	21ff      	movs	r1, #255	@ 0xff
10000a7a:	f107 0014 	add.w	r0, r7, #20
10000a7e:	f004 f917 	bl	10004cb0 <memset>
10000a82:	2200      	movs	r2, #0
10000a84:	4b04      	ldr	r3, [pc, #16]	@ (10000a98 <flash_kv_init+0x6c>)
10000a86:	701a      	strb	r2, [r3, #0]
10000a88:	bdf8      	pop	{r3, r4, r5, r6, r7, pc}
10000a8a:	bf00      	nop
10000a8c:	103ff000 	.word	0x103ff000
10000a90:	50383552 	.word	0x50383552
10000a94:	20002428 	.word	0x20002428
10000a98:	200025e4 	.word	0x200025e4
10000a9c:	20002430 	.word	0x20002430
10000aa0:	040f0001 	.word	0x040f0001
10000aa4:	10005204 	.word	0x10005204

10000aa8 <flash_kv_get_u8>:
10000aa8:	b538      	push	{r3, r4, r5, lr}
10000aaa:	460c      	mov	r4, r1
10000aac:	4914      	ldr	r1, [pc, #80]	@ (10000b00 <flash_kv_get_u8+0x58>)
10000aae:	4605      	mov	r5, r0
10000ab0:	f004 f98a 	bl	10004dc8 <strcmp>
10000ab4:	b1c0      	cbz	r0, 10000ae8 <flash_kv_get_u8+0x40>
10000ab6:	4628      	mov	r0, r5
10000ab8:	4912      	ldr	r1, [pc, #72]	@ (10000b04 <flash_kv_get_u8+0x5c>)
10000aba:	f004 f985 	bl	10004dc8 <strcmp>
10000abe:	b180      	cbz	r0, 10000ae2 <flash_kv_get_u8+0x3a>
10000ac0:	4628      	mov	r0, r5
10000ac2:	4911      	ldr	r1, [pc, #68]	@ (10000b08 <flash_kv_get_u8+0x60>)
10000ac4:	f004 f980 	bl	10004dc8 <strcmp>
10000ac8:	b1a0      	cbz	r0, 10000af4 <flash_kv_get_u8+0x4c>
10000aca:	4628      	mov	r0, r5
10000acc:	490f      	ldr	r1, [pc, #60]	@ (10000b0c <flash_kv_get_u8+0x64>)
10000ace:	f004 f97b 	bl	10004dc8 <strcmp>
10000ad2:	b160      	cbz	r0, 10000aee <flash_kv_get_u8+0x46>
10000ad4:	4628      	mov	r0, r5
10000ad6:	490e      	ldr	r1, [pc, #56]	@ (10000b10 <flash_kv_get_u8+0x68>)
10000ad8:	f004 f976 	bl	10004dc8 <strcmp>
10000adc:	b168      	cbz	r0, 10000afa <flash_kv_get_u8+0x52>
10000ade:	4620      	mov	r0, r4
10000ae0:	bd38      	pop	{r3, r4, r5, pc}
10000ae2:	4b0c      	ldr	r3, [pc, #48]	@ (10000b14 <flash_kv_get_u8+0x6c>)
10000ae4:	7958      	ldrb	r0, [r3, #5]
10000ae6:	bd38      	pop	{r3, r4, r5, pc}
10000ae8:	4b0a      	ldr	r3, [pc, #40]	@ (10000b14 <flash_kv_get_u8+0x6c>)
10000aea:	7918      	ldrb	r0, [r3, #4]
10000aec:	bd38      	pop	{r3, r4, r5, pc}
10000aee:	4b09      	ldr	r3, [pc, #36]	@ (10000b14 <flash_kv_get_u8+0x6c>)
10000af0:	79d8      	ldrb	r0, [r3, #7]
10000af2:	bd38      	pop	{r3, r4, r5, pc}
10000af4:	4b07      	ldr	r3, [pc, #28]	@ (10000b14 <flash_kv_get_u8+0x6c>)
10000af6:	7998      	ldrb	r0, [r3, #6]
10000af8:	bd38      	pop	{r3, r4, r5, pc}
10000afa:	4b06      	ldr	r3, [pc, #24]	@ (10000b14 <flash_kv_get_u8+0x6c>)
10000afc:	7a18      	ldrb	r0, [r3, #8]
10000afe:	bd38      	pop	{r3, r4, r5, pc}
10000b00:	10005210 	.word	0x10005210
10000b04:	10005218 	.word	0x10005218
10000b08:	10005224 	.word	0x10005224
10000b0c:	1000522c 	.word	0x1000522c
10000b10:	10005238 	.word	0x10005238
10000b14:	20002428 	.word	0x20002428

10000b18 <flash_kv_get_u16>:
10000b18:	b538      	push	{r3, r4, r5, lr}
10000b1a:	460c      	mov	r4, r1
10000b1c:	4908      	ldr	r1, [pc, #32]	@ (10000b40 <flash_kv_get_u16+0x28>)
10000b1e:	4605      	mov	r5, r0
10000b20:	f004 f952 	bl	10004dc8 <strcmp>
10000b24:	b148      	cbz	r0, 10000b3a <flash_kv_get_u16+0x22>
10000b26:	4628      	mov	r0, r5
10000b28:	4906      	ldr	r1, [pc, #24]	@ (10000b44 <flash_kv_get_u16+0x2c>)
10000b2a:	f004 f94d 	bl	10004dc8 <strcmp>
10000b2e:	b108      	cbz	r0, 10000b34 <flash_kv_get_u16+0x1c>
10000b30:	4620      	mov	r0, r4
10000b32:	bd38      	pop	{r3, r4, r5, pc}
10000b34:	4b04      	ldr	r3, [pc, #16]	@ (10000b48 <flash_kv_get_u16+0x30>)
10000b36:	8998      	ldrh	r0, [r3, #12]
10000b38:	bd38      	pop	{r3, r4, r5, pc}
10000b3a:	4b03      	ldr	r3, [pc, #12]	@ (10000b48 <flash_kv_get_u16+0x30>)
10000b3c:	8958      	ldrh	r0, [r3, #10]
10000b3e:	bd38      	pop	{r3, r4, r5, pc}
10000b40:	10005244 	.word	0x10005244
10000b44:	1000524c 	.word	0x1000524c
10000b48:	20002428 	.word	0x20002428

10000b4c <flash_kv_get_str>:
10000b4c:	b538      	push	{r3, r4, r5, lr}
10000b4e:	460c      	mov	r4, r1
10000b50:	4906      	ldr	r1, [pc, #24]	@ (10000b6c <flash_kv_get_str+0x20>)
10000b52:	4615      	mov	r5, r2
10000b54:	f004 f938 	bl	10004dc8 <strcmp>
10000b58:	b108      	cbz	r0, 10000b5e <flash_kv_get_str+0x12>
10000b5a:	2000      	movs	r0, #0
10000b5c:	bd38      	pop	{r3, r4, r5, pc}
10000b5e:	462a      	mov	r2, r5
10000b60:	4620      	mov	r0, r4
10000b62:	4903      	ldr	r1, [pc, #12]	@ (10000b70 <flash_kv_get_str+0x24>)
10000b64:	f004 f8f2 	bl	10004d4c <strlcpy>
10000b68:	2001      	movs	r0, #1
10000b6a:	bd38      	pop	{r3, r4, r5, pc}
10000b6c:	10005258 	.word	0x10005258
10000b70:	20002436 	.word	0x20002436

10000b74 <flash_kv_set_u8>:
10000b74:	b538      	push	{r3, r4, r5, lr}
10000b76:	460d      	mov	r5, r1
10000b78:	4915      	ldr	r1, [pc, #84]	@ (10000bd0 <flash_kv_set_u8+0x5c>)
10000b7a:	4604      	mov	r4, r0
10000b7c:	f004 f924 	bl	10004dc8 <strcmp>
10000b80:	b928      	cbnz	r0, 10000b8e <flash_kv_set_u8+0x1a>
10000b82:	4b14      	ldr	r3, [pc, #80]	@ (10000bd4 <flash_kv_set_u8+0x60>)
10000b84:	711d      	strb	r5, [r3, #4]
10000b86:	2201      	movs	r2, #1
10000b88:	4b13      	ldr	r3, [pc, #76]	@ (10000bd8 <flash_kv_set_u8+0x64>)
10000b8a:	701a      	strb	r2, [r3, #0]
10000b8c:	bd38      	pop	{r3, r4, r5, pc}
10000b8e:	4620      	mov	r0, r4
10000b90:	4912      	ldr	r1, [pc, #72]	@ (10000bdc <flash_kv_set_u8+0x68>)
10000b92:	f004 f919 	bl	10004dc8 <strcmp>
10000b96:	b910      	cbnz	r0, 10000b9e <flash_kv_set_u8+0x2a>
10000b98:	4b0e      	ldr	r3, [pc, #56]	@ (10000bd4 <flash_kv_set_u8+0x60>)
10000b9a:	715d      	strb	r5, [r3, #5]
10000b9c:	e7f3      	b.n	10000b86 <flash_kv_set_u8+0x12>
10000b9e:	4620      	mov	r0, r4
10000ba0:	490f      	ldr	r1, [pc, #60]	@ (10000be0 <flash_kv_set_u8+0x6c>)
10000ba2:	f004 f911 	bl	10004dc8 <strcmp>
10000ba6:	b138      	cbz	r0, 10000bb8 <flash_kv_set_u8+0x44>
10000ba8:	4620      	mov	r0, r4
10000baa:	490e      	ldr	r1, [pc, #56]	@ (10000be4 <flash_kv_set_u8+0x70>)
10000bac:	f004 f90c 	bl	10004dc8 <strcmp>
10000bb0:	b928      	cbnz	r0, 10000bbe <flash_kv_set_u8+0x4a>
10000bb2:	4b08      	ldr	r3, [pc, #32]	@ (10000bd4 <flash_kv_set_u8+0x60>)
10000bb4:	71dd      	strb	r5, [r3, #7]
10000bb6:	e7e6      	b.n	10000b86 <flash_kv_set_u8+0x12>
10000bb8:	4b06      	ldr	r3, [pc, #24]	@ (10000bd4 <flash_kv_set_u8+0x60>)
10000bba:	719d      	strb	r5, [r3, #6]
10000bbc:	e7e3      	b.n	10000b86 <flash_kv_set_u8+0x12>
10000bbe:	4620      	mov	r0, r4
10000bc0:	4909      	ldr	r1, [pc, #36]	@ (10000be8 <flash_kv_set_u8+0x74>)
10000bc2:	f004 f901 	bl	10004dc8 <strcmp>
10000bc6:	2800      	cmp	r0, #0
10000bc8:	d1e0      	bne.n	10000b8c <flash_kv_set_u8+0x18>
10000bca:	4b02      	ldr	r3, [pc, #8]	@ (10000bd4 <flash_kv_set_u8+0x60>)
10000bcc:	721d      	strb	r5, [r3, #8]
10000bce:	e7da      	b.n	10000b86 <flash_kv_set_u8+0x12>
10000bd0:	10005210 	.word	0x10005210
10000bd4:	20002428 	.word	0x20002428
10000bd8:	200025e4 	.word	0x200025e4
10000bdc:	10005218 	.word	0x10005218
10000be0:	10005224 	.word	0x10005224
10000be4:	1000522c 	.word	0x1000522c
10000be8:	10005238 	.word	0x10005238

10000bec <flash_kv_set_u16>:
10000bec:	b538      	push	{r3, r4, r5, lr}
10000bee:	460c      	mov	r4, r1
10000bf0:	4909      	ldr	r1, [pc, #36]	@ (10000c18 <flash_kv_set_u16+0x2c>)
10000bf2:	4605      	mov	r5, r0
10000bf4:	f004 f8e8 	bl	10004dc8 <strcmp>
10000bf8:	b928      	cbnz	r0, 10000c06 <flash_kv_set_u16+0x1a>
10000bfa:	4b08      	ldr	r3, [pc, #32]	@ (10000c1c <flash_kv_set_u16+0x30>)
10000bfc:	815c      	strh	r4, [r3, #10]
10000bfe:	2201      	movs	r2, #1
10000c00:	4b07      	ldr	r3, [pc, #28]	@ (10000c20 <flash_kv_set_u16+0x34>)
10000c02:	701a      	strb	r2, [r3, #0]
10000c04:	bd38      	pop	{r3, r4, r5, pc}
10000c06:	4628      	mov	r0, r5
10000c08:	4906      	ldr	r1, [pc, #24]	@ (10000c24 <flash_kv_set_u16+0x38>)
10000c0a:	f004 f8dd 	bl	10004dc8 <strcmp>
10000c0e:	2800      	cmp	r0, #0
10000c10:	d1f8      	bne.n	10000c04 <flash_kv_set_u16+0x18>
10000c12:	4b02      	ldr	r3, [pc, #8]	@ (10000c1c <flash_kv_set_u16+0x30>)
10000c14:	819c      	strh	r4, [r3, #12]
10000c16:	e7f2      	b.n	10000bfe <flash_kv_set_u16+0x12>
10000c18:	10005244 	.word	0x10005244
10000c1c:	20002428 	.word	0x20002428
10000c20:	200025e4 	.word	0x200025e4
10000c24:	1000524c 	.word	0x1000524c

10000c28 <flash_kv_set_str>:
10000c28:	b510      	push	{r4, lr}
10000c2a:	460c      	mov	r4, r1
10000c2c:	4906      	ldr	r1, [pc, #24]	@ (10000c48 <flash_kv_set_str+0x20>)
10000c2e:	f004 f8cb 	bl	10004dc8 <strcmp>
10000c32:	b100      	cbz	r0, 10000c36 <flash_kv_set_str+0xe>
10000c34:	bd10      	pop	{r4, pc}
10000c36:	220e      	movs	r2, #14
10000c38:	4621      	mov	r1, r4
10000c3a:	4804      	ldr	r0, [pc, #16]	@ (10000c4c <flash_kv_set_str+0x24>)
10000c3c:	f004 f886 	bl	10004d4c <strlcpy>
10000c40:	2201      	movs	r2, #1
10000c42:	4b03      	ldr	r3, [pc, #12]	@ (10000c50 <flash_kv_set_str+0x28>)
10000c44:	701a      	strb	r2, [r3, #0]
10000c46:	bd10      	pop	{r4, pc}
10000c48:	10005258 	.word	0x10005258
10000c4c:	20002436 	.word	0x20002436
10000c50:	200025e4 	.word	0x200025e4

10000c54 <flash_kv_commit>:
10000c54:	b538      	push	{r3, r4, r5, lr}
10000c56:	4c0e      	ldr	r4, [pc, #56]	@ (10000c90 <flash_kv_commit+0x3c>)
10000c58:	7823      	ldrb	r3, [r4, #0]
10000c5a:	b903      	cbnz	r3, 10000c5e <flash_kv_commit+0xa>
10000c5c:	bd38      	pop	{r3, r4, r5, pc}
10000c5e:	f44f 7280 	mov.w	r2, #256	@ 0x100
10000c62:	490c      	ldr	r1, [pc, #48]	@ (10000c94 <flash_kv_commit+0x40>)
10000c64:	480c      	ldr	r0, [pc, #48]	@ (10000c98 <flash_kv_commit+0x44>)
10000c66:	f004 f98d 	bl	10004f84 <memcpy>
10000c6a:	f3ef 8510 	mrs	r5, PRIMASK
10000c6e:	b672      	cpsid	i
10000c70:	f44f 5180 	mov.w	r1, #4096	@ 0x1000
10000c74:	4809      	ldr	r0, [pc, #36]	@ (10000c9c <flash_kv_commit+0x48>)
10000c76:	f004 fa8b 	bl	10005190 <__flash_range_erase_veneer>
10000c7a:	f44f 7280 	mov.w	r2, #256	@ 0x100
10000c7e:	4906      	ldr	r1, [pc, #24]	@ (10000c98 <flash_kv_commit+0x44>)
10000c80:	4806      	ldr	r0, [pc, #24]	@ (10000c9c <flash_kv_commit+0x48>)
10000c82:	f004 fa71 	bl	10005168 <__flash_range_program_veneer>
10000c86:	f385 8810 	msr	PRIMASK, r5
10000c8a:	2300      	movs	r3, #0
10000c8c:	7023      	strb	r3, [r4, #0]
10000c8e:	bd38      	pop	{r3, r4, r5, pc}
10000c90:	200025e4 	.word	0x200025e4
10000c94:	20002428 	.word	0x20002428
10000c98:	2000221c 	.word	0x2000221c
10000c9c:	003ff000 	.word	0x003ff000

10000ca0 <tud_descriptor_device_cb>:
10000ca0:	4800      	ldr	r0, [pc, #0]	@ (10000ca4 <tud_descriptor_device_cb+0x4>)
10000ca2:	4770      	bx	lr
10000ca4:	100053fc 	.word	0x100053fc

10000ca8 <tud_descriptor_configuration_cb>:
10000ca8:	4800      	ldr	r0, [pc, #0]	@ (10000cac <tud_descriptor_configuration_cb+0x4>)
10000caa:	4770      	bx	lr
10000cac:	100053b0 	.word	0x100053b0

10000cb0 <tud_descriptor_string_cb>:
10000cb0:	b320      	cbz	r0, 10000cfc <tud_descriptor_string_cb+0x4c>
10000cb2:	2804      	cmp	r0, #4
10000cb4:	d824      	bhi.n	10000d00 <tud_descriptor_string_cb+0x50>
10000cb6:	4b13      	ldr	r3, [pc, #76]	@ (10000d04 <tud_descriptor_string_cb+0x54>)
10000cb8:	3801      	subs	r0, #1
10000cba:	b510      	push	{r4, lr}
10000cbc:	f853 4020 	ldr.w	r4, [r3, r0, lsl #2]
10000cc0:	4620      	mov	r0, r4
10000cc2:	f004 f9d5 	bl	10005070 <strlen>
10000cc6:	b2c0      	uxtb	r0, r0
10000cc8:	281f      	cmp	r0, #31
10000cca:	4684      	mov	ip, r0
10000ccc:	bf28      	it	cs
10000cce:	f04f 0c1f 	movcs.w	ip, #31
10000cd2:	f10c 0301 	add.w	r3, ip, #1
10000cd6:	b2db      	uxtb	r3, r3
10000cd8:	4a0b      	ldr	r2, [pc, #44]	@ (10000d08 <tud_descriptor_string_cb+0x58>)
10000cda:	005b      	lsls	r3, r3, #1
10000cdc:	f443 7340 	orr.w	r3, r3, #768	@ 0x300
10000ce0:	8013      	strh	r3, [r2, #0]
10000ce2:	b148      	cbz	r0, 10000cf8 <tud_descriptor_string_cb+0x48>
10000ce4:	2300      	movs	r3, #0
10000ce6:	1e60      	subs	r0, r4, #1
10000ce8:	3301      	adds	r3, #1
10000cea:	f810 1f01 	ldrb.w	r1, [r0, #1]!
10000cee:	b2db      	uxtb	r3, r3
10000cf0:	459c      	cmp	ip, r3
10000cf2:	f822 1f02 	strh.w	r1, [r2, #2]!
10000cf6:	d8f7      	bhi.n	10000ce8 <tud_descriptor_string_cb+0x38>
10000cf8:	4803      	ldr	r0, [pc, #12]	@ (10000d08 <tud_descriptor_string_cb+0x58>)
10000cfa:	bd10      	pop	{r4, pc}
10000cfc:	4803      	ldr	r0, [pc, #12]	@ (10000d0c <tud_descriptor_string_cb+0x5c>)
10000cfe:	4770      	bx	lr
10000d00:	2000      	movs	r0, #0
10000d02:	4770      	bx	lr
10000d04:	1000539c 	.word	0x1000539c
10000d08:	2000237c 	.word	0x2000237c
10000d0c:	100053ac 	.word	0x100053ac

10000d10 <cec_tx_done>:
10000d10:	b510      	push	{r4, lr}
10000d12:	b9d0      	cbnz	r0, 10000d4a <cec_tx_done+0x3a>
10000d14:	2900      	cmp	r1, #0
10000d16:	460b      	mov	r3, r1
10000d18:	bf14      	ite	ne
10000d1a:	460b      	movne	r3, r1
10000d1c:	2311      	moveq	r3, #17
10000d1e:	2203      	movs	r2, #3
10000d20:	f04f 0eff 	mov.w	lr, #255	@ 0xff
10000d24:	f04f 0cfe 	mov.w	ip, #254	@ 0xfe
10000d28:	4909      	ldr	r1, [pc, #36]	@ (10000d50 <cec_tx_done+0x40>)
10000d2a:	4c0a      	ldr	r4, [pc, #40]	@ (10000d54 <cec_tx_done+0x44>)
10000d2c:	2000      	movs	r0, #0
10000d2e:	704b      	strb	r3, [r1, #1]
10000d30:	6022      	str	r2, [r4, #0]
10000d32:	f881 e000 	strb.w	lr, [r1]
10000d36:	f881 c002 	strb.w	ip, [r1, #2]
10000d3a:	f003 faa5 	bl	10004288 <tud_cdc_n_write>
10000d3e:	2000      	movs	r0, #0
10000d40:	f003 fa5a 	bl	100041f8 <tud_cdc_n_write_flush>
10000d44:	2300      	movs	r3, #0
10000d46:	6023      	str	r3, [r4, #0]
10000d48:	bd10      	pop	{r4, pc}
10000d4a:	2310      	movs	r3, #16
10000d4c:	e7e7      	b.n	10000d1e <cec_tx_done+0xe>
10000d4e:	bf00      	nop
10000d50:	20002530 	.word	0x20002530
10000d54:	200025b0 	.word	0x200025b0

10000d58 <send_accepted_echo>:
10000d58:	f640 02ff 	movw	r2, #2303	@ 0x8ff
10000d5c:	4b10      	ldr	r3, [pc, #64]	@ (10000da0 <send_accepted_echo+0x48>)
10000d5e:	28fc      	cmp	r0, #252	@ 0xfc
10000d60:	b510      	push	{r4, lr}
10000d62:	801a      	strh	r2, [r3, #0]
10000d64:	d917      	bls.n	10000d96 <send_accepted_echo+0x3e>
10000d66:	2205      	movs	r2, #5
10000d68:	1ec1      	subs	r1, r0, #3
10000d6a:	70d9      	strb	r1, [r3, #3]
10000d6c:	f04f 0c04 	mov.w	ip, #4
10000d70:	20fd      	movs	r0, #253	@ 0xfd
10000d72:	4611      	mov	r1, r2
10000d74:	f04f 0efe 	mov.w	lr, #254	@ 0xfe
10000d78:	4c0a      	ldr	r4, [pc, #40]	@ (10000da4 <send_accepted_echo+0x4c>)
10000d7a:	7098      	strb	r0, [r3, #2]
10000d7c:	6021      	str	r1, [r4, #0]
10000d7e:	2000      	movs	r0, #0
10000d80:	4907      	ldr	r1, [pc, #28]	@ (10000da0 <send_accepted_echo+0x48>)
10000d82:	f803 e00c 	strb.w	lr, [r3, ip]
10000d86:	f003 fa7f 	bl	10004288 <tud_cdc_n_write>
10000d8a:	2000      	movs	r0, #0
10000d8c:	f003 fa34 	bl	100041f8 <tud_cdc_n_write_flush>
10000d90:	2300      	movs	r3, #0
10000d92:	6023      	str	r3, [r4, #0]
10000d94:	bd10      	pop	{r4, pc}
10000d96:	2204      	movs	r2, #4
10000d98:	f04f 0c03 	mov.w	ip, #3
10000d9c:	4611      	mov	r1, r2
10000d9e:	e7e9      	b.n	10000d74 <send_accepted_echo+0x1c>
10000da0:	20002530 	.word	0x20002530
10000da4:	200025b0 	.word	0x200025b0

10000da8 <p8_send_cec_frame>:
10000da8:	7c02      	ldrb	r2, [r0, #16]
10000daa:	2a00      	cmp	r2, #0
10000dac:	d070      	beq.n	10000e90 <p8_send_cec_frame+0xe8>
10000dae:	e92d 4ff8 	stmdb	sp!, {r3, r4, r5, r6, r7, r8, r9, sl, fp, lr}
10000db2:	7801      	ldrb	r1, [r0, #0]
10000db4:	f890 e011 	ldrb.w	lr, [r0, #17]
10000db8:	f001 010f 	and.w	r1, r1, #15
10000dbc:	290f      	cmp	r1, #15
10000dbe:	bf08      	it	eq
10000dc0:	f08e 0e01 	eoreq.w	lr, lr, #1
10000dc4:	2300      	movs	r3, #0
10000dc6:	4c37      	ldr	r4, [pc, #220]	@ (10000ea4 <p8_send_cec_frame+0xfc>)
10000dc8:	ea4f 1e8e 	mov.w	lr, lr, lsl #6
10000dcc:	f04f 0c85 	mov.w	ip, #133	@ 0x85
10000dd0:	f04f 0805 	mov.w	r8, #5
10000dd4:	f04f 0bff 	mov.w	fp, #255	@ 0xff
10000dd8:	f04f 0afe 	mov.w	sl, #254	@ 0xfe
10000ddc:	4619      	mov	r1, r3
10000dde:	4699      	mov	r9, r3
10000de0:	4d31      	ldr	r5, [pc, #196]	@ (10000ea8 <p8_send_cec_frame+0x100>)
10000de2:	1e47      	subs	r7, r0, #1
10000de4:	6023      	str	r3, [r4, #0]
10000de6:	fa5f fe8e 	uxtb.w	lr, lr
10000dea:	1e56      	subs	r6, r2, #1
10000dec:	e01e      	b.n	10000e2c <p8_send_cec_frame+0x84>
10000dee:	2e80      	cmp	r6, #128	@ 0x80
10000df0:	d035      	beq.n	10000e5e <p8_send_cec_frame+0xb6>
10000df2:	f06f 0c02 	mvn.w	ip, #2
10000df6:	3a03      	subs	r2, #3
10000df8:	2b7d      	cmp	r3, #125	@ 0x7d
10000dfa:	f805 c006 	strb.w	ip, [r5, r6]
10000dfe:	b2d2      	uxtb	r2, r2
10000e00:	f103 0603 	add.w	r6, r3, #3
10000e04:	d02b      	beq.n	10000e5e <p8_send_cec_frame+0xb6>
10000e06:	55aa      	strb	r2, [r5, r6]
10000e08:	3304      	adds	r3, #4
10000e0a:	2b80      	cmp	r3, #128	@ 0x80
10000e0c:	d041      	beq.n	10000e92 <p8_send_cec_frame+0xea>
10000e0e:	f805 a003 	strb.w	sl, [r5, r3]
10000e12:	7c02      	ldrb	r2, [r0, #16]
10000e14:	3101      	adds	r1, #1
10000e16:	428a      	cmp	r2, r1
10000e18:	f103 0301 	add.w	r3, r3, #1
10000e1c:	dd29      	ble.n	10000e72 <p8_send_cec_frame+0xca>
10000e1e:	f04f 0901 	mov.w	r9, #1
10000e22:	f04f 0c86 	mov.w	ip, #134	@ 0x86
10000e26:	f04f 0806 	mov.w	r8, #6
10000e2a:	1e56      	subs	r6, r2, #1
10000e2c:	428e      	cmp	r6, r1
10000e2e:	bf18      	it	ne
10000e30:	46c4      	movne	ip, r8
10000e32:	2b80      	cmp	r3, #128	@ 0x80
10000e34:	d016      	beq.n	10000e64 <p8_send_cec_frame+0xbc>
10000e36:	2b7f      	cmp	r3, #127	@ 0x7f
10000e38:	f805 b003 	strb.w	fp, [r5, r3]
10000e3c:	f103 0201 	add.w	r2, r3, #1
10000e40:	d00d      	beq.n	10000e5e <p8_send_cec_frame+0xb6>
10000e42:	ea4c 0c0e 	orr.w	ip, ip, lr
10000e46:	f805 c002 	strb.w	ip, [r5, r2]
10000e4a:	f817 2f01 	ldrb.w	r2, [r7, #1]!
10000e4e:	1c9e      	adds	r6, r3, #2
10000e50:	2afc      	cmp	r2, #252	@ 0xfc
10000e52:	d8cc      	bhi.n	10000dee <p8_send_cec_frame+0x46>
10000e54:	2e80      	cmp	r6, #128	@ 0x80
10000e56:	d002      	beq.n	10000e5e <p8_send_cec_frame+0xb6>
10000e58:	55aa      	strb	r2, [r5, r6]
10000e5a:	3303      	adds	r3, #3
10000e5c:	e7d5      	b.n	10000e0a <p8_send_cec_frame+0x62>
10000e5e:	f04f 0901 	mov.w	r9, #1
10000e62:	7c02      	ldrb	r2, [r0, #16]
10000e64:	3101      	adds	r1, #1
10000e66:	4291      	cmp	r1, r2
10000e68:	dbfc      	blt.n	10000e64 <p8_send_cec_frame+0xbc>
10000e6a:	2380      	movs	r3, #128	@ 0x80
10000e6c:	f1b9 0f00 	cmp.w	r9, #0
10000e70:	d00c      	beq.n	10000e8c <p8_send_cec_frame+0xe4>
10000e72:	461a      	mov	r2, r3
10000e74:	6023      	str	r3, [r4, #0]
10000e76:	490c      	ldr	r1, [pc, #48]	@ (10000ea8 <p8_send_cec_frame+0x100>)
10000e78:	2000      	movs	r0, #0
10000e7a:	f003 fa05 	bl	10004288 <tud_cdc_n_write>
10000e7e:	2000      	movs	r0, #0
10000e80:	f003 f9ba 	bl	100041f8 <tud_cdc_n_write_flush>
10000e84:	2300      	movs	r3, #0
10000e86:	6023      	str	r3, [r4, #0]
10000e88:	e8bd 8ff8 	ldmia.w	sp!, {r3, r4, r5, r6, r7, r8, r9, sl, fp, pc}
10000e8c:	464a      	mov	r2, r9
10000e8e:	e7f2      	b.n	10000e76 <p8_send_cec_frame+0xce>
10000e90:	4770      	bx	lr
10000e92:	7c02      	ldrb	r2, [r0, #16]
10000e94:	3101      	adds	r1, #1
10000e96:	4291      	cmp	r1, r2
10000e98:	bfb8      	it	lt
10000e9a:	f04f 0901 	movlt.w	r9, #1
10000e9e:	dbe1      	blt.n	10000e64 <p8_send_cec_frame+0xbc>
10000ea0:	e7e7      	b.n	10000e72 <p8_send_cec_frame+0xca>
10000ea2:	bf00      	nop
10000ea4:	200025b0 	.word	0x200025b0
10000ea8:	20002530 	.word	0x20002530

10000eac <p8_rx_byte>:
10000eac:	b5f0      	push	{r4, r5, r6, r7, lr}
10000eae:	28ff      	cmp	r0, #255	@ 0xff
10000eb0:	b083      	sub	sp, #12
10000eb2:	d015      	beq.n	10000ee0 <p8_rx_byte+0x34>
10000eb4:	28fe      	cmp	r0, #254	@ 0xfe
10000eb6:	d01a      	beq.n	10000eee <p8_rx_byte+0x42>
10000eb8:	4b94      	ldr	r3, [pc, #592]	@ (1000110c <p8_rx_byte+0x260>)
10000eba:	781a      	ldrb	r2, [r3, #0]
10000ebc:	b95a      	cbnz	r2, 10000ed6 <p8_rx_byte+0x2a>
10000ebe:	28fd      	cmp	r0, #253	@ 0xfd
10000ec0:	d051      	beq.n	10000f66 <p8_rx_byte+0xba>
10000ec2:	4a93      	ldr	r2, [pc, #588]	@ (10001110 <p8_rx_byte+0x264>)
10000ec4:	6813      	ldr	r3, [r2, #0]
10000ec6:	2b3f      	cmp	r3, #63	@ 0x3f
10000ec8:	dc03      	bgt.n	10000ed2 <p8_rx_byte+0x26>
10000eca:	4992      	ldr	r1, [pc, #584]	@ (10001114 <p8_rx_byte+0x268>)
10000ecc:	1c5c      	adds	r4, r3, #1
10000ece:	6014      	str	r4, [r2, #0]
10000ed0:	54c8      	strb	r0, [r1, r3]
10000ed2:	b003      	add	sp, #12
10000ed4:	bdf0      	pop	{r4, r5, r6, r7, pc}
10000ed6:	2200      	movs	r2, #0
10000ed8:	3003      	adds	r0, #3
10000eda:	b2c0      	uxtb	r0, r0
10000edc:	701a      	strb	r2, [r3, #0]
10000ede:	e7f0      	b.n	10000ec2 <p8_rx_byte+0x16>
10000ee0:	4c8b      	ldr	r4, [pc, #556]	@ (10001110 <p8_rx_byte+0x264>)
10000ee2:	2300      	movs	r3, #0
10000ee4:	4a89      	ldr	r2, [pc, #548]	@ (1000110c <p8_rx_byte+0x260>)
10000ee6:	6023      	str	r3, [r4, #0]
10000ee8:	7013      	strb	r3, [r2, #0]
10000eea:	b003      	add	sp, #12
10000eec:	bdf0      	pop	{r4, r5, r6, r7, pc}
10000eee:	4c88      	ldr	r4, [pc, #544]	@ (10001110 <p8_rx_byte+0x264>)
10000ef0:	6826      	ldr	r6, [r4, #0]
10000ef2:	2e00      	cmp	r6, #0
10000ef4:	ddf5      	ble.n	10000ee2 <p8_rx_byte+0x36>
10000ef6:	4d87      	ldr	r5, [pc, #540]	@ (10001114 <p8_rx_byte+0x268>)
10000ef8:	2e01      	cmp	r6, #1
10000efa:	782a      	ldrb	r2, [r5, #0]
10000efc:	f002 023f 	and.w	r2, r2, #63	@ 0x3f
10000f00:	f102 32ff 	add.w	r2, r2, #4294967295	@ 0xffffffff
10000f04:	d032      	beq.n	10000f6c <p8_rx_byte+0xc0>
10000f06:	7869      	ldrb	r1, [r5, #1]
10000f08:	2a2a      	cmp	r2, #42	@ 0x2a
10000f0a:	d85e      	bhi.n	10000fca <p8_rx_byte+0x11e>
10000f0c:	e8df f012 	tbh	[pc, r2, lsl #1]
10000f10:	005d0094 	.word	0x005d0094
10000f14:	005d005d 	.word	0x005d005d
10000f18:	005d005d 	.word	0x005d005d
10000f1c:	005d005d 	.word	0x005d005d
10000f20:	0227005d 	.word	0x0227005d
10000f24:	0203009d 	.word	0x0203009d
10000f28:	0236023f 	.word	0x0236023f
10000f2c:	005d0099 	.word	0x005d0099
10000f30:	005d005d 	.word	0x005d005d
10000f34:	005d005d 	.word	0x005d005d
10000f38:	02450132 	.word	0x02450132
10000f3c:	0099011e 	.word	0x0099011e
10000f40:	00f000f6 	.word	0x00f000f6
10000f44:	00d200da 	.word	0x00d200da
10000f48:	01f700a5 	.word	0x01f700a5
10000f4c:	021b01be 	.word	0x021b01be
10000f50:	01af01b5 	.word	0x01af01b5
10000f54:	019f01a5 	.word	0x019f01a5
10000f58:	01e60156 	.word	0x01e60156
10000f5c:	014e0070 	.word	0x014e0070
10000f60:	01440094 	.word	0x01440094
10000f64:	013e      	.short	0x013e
10000f66:	2201      	movs	r2, #1
10000f68:	701a      	strb	r2, [r3, #0]
10000f6a:	e7b2      	b.n	10000ed2 <p8_rx_byte+0x26>
10000f6c:	2a2a      	cmp	r2, #42	@ 0x2a
10000f6e:	d82c      	bhi.n	10000fca <p8_rx_byte+0x11e>
10000f70:	e8df f012 	tbh	[pc, r2, lsl #1]
10000f74:	002b0062 	.word	0x002b0062
10000f78:	002b002b 	.word	0x002b002b
10000f7c:	002b002b 	.word	0x002b002b
10000f80:	002b002b 	.word	0x002b002b
10000f84:	002b002b 	.word	0x002b002b
10000f88:	002b002b 	.word	0x002b002b
10000f8c:	022c022f 	.word	0x022c022f
10000f90:	002b0066 	.word	0x002b0066
10000f94:	002b002b 	.word	0x002b002b
10000f98:	002b002b 	.word	0x002b002b
10000f9c:	02130100 	.word	0x02130100
10000fa0:	006600ec 	.word	0x006600ec
10000fa4:	00bd00c4 	.word	0x00bd00c4
10000fa8:	009f00a8 	.word	0x009f00a8
10000fac:	002b0073 	.word	0x002b0073
10000fb0:	002b018c 	.word	0x002b018c
10000fb4:	017c0183 	.word	0x017c0183
10000fb8:	016c0173 	.word	0x016c0173
10000fbc:	00620124 	.word	0x00620124
10000fc0:	011c003e 	.word	0x011c003e
10000fc4:	01120062 	.word	0x01120062
10000fc8:	010b      	.short	0x010b
10000fca:	2203      	movs	r2, #3
10000fcc:	f640 13ff 	movw	r3, #2559	@ 0x9ff
10000fd0:	21fe      	movs	r1, #254	@ 0xfe
10000fd2:	4851      	ldr	r0, [pc, #324]	@ (10001118 <p8_rx_byte+0x26c>)
10000fd4:	4d51      	ldr	r5, [pc, #324]	@ (1000111c <p8_rx_byte+0x270>)
10000fd6:	7081      	strb	r1, [r0, #2]
10000fd8:	8003      	strh	r3, [r0, #0]
10000fda:	4601      	mov	r1, r0
10000fdc:	2000      	movs	r0, #0
10000fde:	602a      	str	r2, [r5, #0]
10000fe0:	f003 f952 	bl	10004288 <tud_cdc_n_write>
10000fe4:	2000      	movs	r0, #0
10000fe6:	f003 f907 	bl	100041f8 <tud_cdc_n_write_flush>
10000fea:	2300      	movs	r3, #0
10000fec:	602b      	str	r3, [r5, #0]
10000fee:	e778      	b.n	10000ee2 <p8_rx_byte+0x36>
10000ff0:	4d4b      	ldr	r5, [pc, #300]	@ (10001120 <p8_rx_byte+0x274>)
10000ff2:	484c      	ldr	r0, [pc, #304]	@ (10001124 <p8_rx_byte+0x278>)
10000ff4:	7829      	ldrb	r1, [r5, #0]
10000ff6:	f7ff fdbd 	bl	10000b74 <flash_kv_set_u8>
10000ffa:	484b      	ldr	r0, [pc, #300]	@ (10001128 <p8_rx_byte+0x27c>)
10000ffc:	7869      	ldrb	r1, [r5, #1]
10000ffe:	f7ff fdb9 	bl	10000b74 <flash_kv_set_u8>
10001002:	484a      	ldr	r0, [pc, #296]	@ (1000112c <p8_rx_byte+0x280>)
10001004:	78a9      	ldrb	r1, [r5, #2]
10001006:	f7ff fdb5 	bl	10000b74 <flash_kv_set_u8>
1000100a:	4849      	ldr	r0, [pc, #292]	@ (10001130 <p8_rx_byte+0x284>)
1000100c:	88a9      	ldrh	r1, [r5, #4]
1000100e:	f7ff fded 	bl	10000bec <flash_kv_set_u16>
10001012:	4848      	ldr	r0, [pc, #288]	@ (10001134 <p8_rx_byte+0x288>)
10001014:	88e9      	ldrh	r1, [r5, #6]
10001016:	f7ff fde9 	bl	10000bec <flash_kv_set_u16>
1000101a:	4847      	ldr	r0, [pc, #284]	@ (10001138 <p8_rx_byte+0x28c>)
1000101c:	7a29      	ldrb	r1, [r5, #8]
1000101e:	f7ff fda9 	bl	10000b74 <flash_kv_set_u8>
10001022:	4846      	ldr	r0, [pc, #280]	@ (1000113c <p8_rx_byte+0x290>)
10001024:	7a69      	ldrb	r1, [r5, #9]
10001026:	f7ff fda5 	bl	10000b74 <flash_kv_set_u8>
1000102a:	4845      	ldr	r0, [pc, #276]	@ (10001140 <p8_rx_byte+0x294>)
1000102c:	f105 010a 	add.w	r1, r5, #10
10001030:	f7ff fdfa 	bl	10000c28 <flash_kv_set_str>
10001034:	f7ff fe0e 	bl	10000c54 <flash_kv_commit>
10001038:	2203      	movs	r2, #3
1000103a:	f640 03ff 	movw	r3, #2303	@ 0x8ff
1000103e:	e7c7      	b.n	10000fd0 <p8_rx_byte+0x124>
10001040:	2100      	movs	r1, #0
10001042:	4608      	mov	r0, r1
10001044:	f7ff fe88 	bl	10000d58 <send_accepted_echo>
10001048:	e74b      	b.n	10000ee2 <p8_rx_byte+0x36>
1000104a:	4a3e      	ldr	r2, [pc, #248]	@ (10001144 <p8_rx_byte+0x298>)
1000104c:	7c13      	ldrb	r3, [r2, #16]
1000104e:	2b0f      	cmp	r3, #15
10001050:	d8f7      	bhi.n	10001042 <p8_rx_byte+0x196>
10001052:	1c58      	adds	r0, r3, #1
10001054:	7410      	strb	r0, [r2, #16]
10001056:	54d1      	strb	r1, [r2, r3]
10001058:	e7f3      	b.n	10001042 <p8_rx_byte+0x196>
1000105a:	f641 51ff 	movw	r1, #7679	@ 0x1dff
1000105e:	4a30      	ldr	r2, [pc, #192]	@ (10001120 <p8_rx_byte+0x274>)
10001060:	4b2d      	ldr	r3, [pc, #180]	@ (10001118 <p8_rx_byte+0x26c>)
10001062:	8892      	ldrh	r2, [r2, #4]
10001064:	8019      	strh	r1, [r3, #0]
10001066:	f5b2 4f7d 	cmp.w	r2, #64768	@ 0xfd00
1000106a:	ea4f 2012 	mov.w	r0, r2, lsr #8
1000106e:	f0c0 81bb 	bcc.w	100013e8 <p8_rx_byte+0x53c>
10001072:	3803      	subs	r0, #3
10001074:	70d8      	strb	r0, [r3, #3]
10001076:	2104      	movs	r1, #4
10001078:	20fd      	movs	r0, #253	@ 0xfd
1000107a:	4e28      	ldr	r6, [pc, #160]	@ (1000111c <p8_rx_byte+0x270>)
1000107c:	b2d2      	uxtb	r2, r2
1000107e:	2afc      	cmp	r2, #252	@ 0xfc
10001080:	7098      	strb	r0, [r3, #2]
10001082:	6031      	str	r1, [r6, #0]
10001084:	f101 0001 	add.w	r0, r1, #1
10001088:	f240 81ac 	bls.w	100013e4 <p8_rx_byte+0x538>
1000108c:	25fd      	movs	r5, #253	@ 0xfd
1000108e:	3a03      	subs	r2, #3
10001090:	545d      	strb	r5, [r3, r1]
10001092:	541a      	strb	r2, [r3, r0]
10001094:	1c88      	adds	r0, r1, #2
10001096:	21fe      	movs	r1, #254	@ 0xfe
10001098:	1c42      	adds	r2, r0, #1
1000109a:	6032      	str	r2, [r6, #0]
1000109c:	5419      	strb	r1, [r3, r0]
1000109e:	2000      	movs	r0, #0
100010a0:	491d      	ldr	r1, [pc, #116]	@ (10001118 <p8_rx_byte+0x26c>)
100010a2:	f003 f8f1 	bl	10004288 <tud_cdc_n_write>
100010a6:	2000      	movs	r0, #0
100010a8:	f003 f8a6 	bl	100041f8 <tud_cdc_n_write_flush>
100010ac:	2300      	movs	r3, #0
100010ae:	6033      	str	r3, [r6, #0]
100010b0:	e717      	b.n	10000ee2 <p8_rx_byte+0x36>
100010b2:	2100      	movs	r1, #0
100010b4:	4b1a      	ldr	r3, [pc, #104]	@ (10001120 <p8_rx_byte+0x274>)
100010b6:	f001 020f 	and.w	r2, r1, #15
100010ba:	4608      	mov	r0, r1
100010bc:	709a      	strb	r2, [r3, #2]
100010be:	f7ff fe4b 	bl	10000d58 <send_accepted_echo>
100010c2:	e70e      	b.n	10000ee2 <p8_rx_byte+0x36>
100010c4:	f641 32ff 	movw	r2, #7167	@ 0x1bff
100010c8:	4915      	ldr	r1, [pc, #84]	@ (10001120 <p8_rx_byte+0x274>)
100010ca:	4b13      	ldr	r3, [pc, #76]	@ (10001118 <p8_rx_byte+0x26c>)
100010cc:	7889      	ldrb	r1, [r1, #2]
100010ce:	801a      	strh	r2, [r3, #0]
100010d0:	29fc      	cmp	r1, #252	@ 0xfc
100010d2:	d969      	bls.n	100011a8 <p8_rx_byte+0x2fc>
100010d4:	1eca      	subs	r2, r1, #3
100010d6:	2504      	movs	r5, #4
100010d8:	21fd      	movs	r1, #253	@ 0xfd
100010da:	70da      	strb	r2, [r3, #3]
100010dc:	27fe      	movs	r7, #254	@ 0xfe
100010de:	4e0f      	ldr	r6, [pc, #60]	@ (1000111c <p8_rx_byte+0x270>)
100010e0:	1c6a      	adds	r2, r5, #1
100010e2:	7099      	strb	r1, [r3, #2]
100010e4:	6032      	str	r2, [r6, #0]
100010e6:	2000      	movs	r0, #0
100010e8:	490b      	ldr	r1, [pc, #44]	@ (10001118 <p8_rx_byte+0x26c>)
100010ea:	555f      	strb	r7, [r3, r5]
100010ec:	e7d9      	b.n	100010a2 <p8_rx_byte+0x1f6>
100010ee:	2100      	movs	r1, #0
100010f0:	4b0b      	ldr	r3, [pc, #44]	@ (10001120 <p8_rx_byte+0x274>)
100010f2:	4608      	mov	r0, r1
100010f4:	7019      	strb	r1, [r3, #0]
100010f6:	f7ff fe2f 	bl	10000d58 <send_accepted_echo>
100010fa:	e6f2      	b.n	10000ee2 <p8_rx_byte+0x36>
100010fc:	2204      	movs	r2, #4
100010fe:	4d07      	ldr	r5, [pc, #28]	@ (1000111c <p8_rx_byte+0x270>)
10001100:	4b11      	ldr	r3, [pc, #68]	@ (10001148 <p8_rx_byte+0x29c>)
10001102:	4905      	ldr	r1, [pc, #20]	@ (10001118 <p8_rx_byte+0x26c>)
10001104:	2000      	movs	r0, #0
10001106:	600b      	str	r3, [r1, #0]
10001108:	602a      	str	r2, [r5, #0]
1000110a:	e769      	b.n	10000fe0 <p8_rx_byte+0x134>
1000110c:	200025e6 	.word	0x200025e6
10001110:	20002400 	.word	0x20002400
10001114:	200023c0 	.word	0x200023c0
10001118:	20002530 	.word	0x20002530
1000111c:	200025b0 	.word	0x200025b0
10001120:	2000234c 	.word	0x2000234c
10001124:	10005210 	.word	0x10005210
10001128:	10005218 	.word	0x10005218
1000112c:	10005224 	.word	0x10005224
10001130:	10005244 	.word	0x10005244
10001134:	1000524c 	.word	0x1000524c
10001138:	1000522c 	.word	0x1000522c
1000113c:	10005238 	.word	0x10005238
10001140:	10005258 	.word	0x10005258
10001144:	20001038 	.word	0x20001038
10001148:	fe0119ff 	.word	0xfe0119ff
1000114c:	2500      	movs	r5, #0
1000114e:	23fe      	movs	r3, #254	@ 0xfe
10001150:	f241 71ff 	movw	r1, #6143	@ 0x17ff
10001154:	2207      	movs	r2, #7
10001156:	48af      	ldr	r0, [pc, #700]	@ (10001414 <p8_rx_byte+0x568>)
10001158:	4eaf      	ldr	r6, [pc, #700]	@ (10001418 <p8_rx_byte+0x56c>)
1000115a:	6001      	str	r1, [r0, #0]
1000115c:	7183      	strb	r3, [r0, #6]
1000115e:	4601      	mov	r1, r0
10001160:	8085      	strh	r5, [r0, #4]
10001162:	4628      	mov	r0, r5
10001164:	6032      	str	r2, [r6, #0]
10001166:	f003 f88f 	bl	10004288 <tud_cdc_n_write>
1000116a:	4628      	mov	r0, r5
1000116c:	f003 f844 	bl	100041f8 <tud_cdc_n_write_flush>
10001170:	6035      	str	r5, [r6, #0]
10001172:	e6b6      	b.n	10000ee2 <p8_rx_byte+0x36>
10001174:	2205      	movs	r2, #5
10001176:	23fe      	movs	r3, #254	@ 0xfe
10001178:	4ea6      	ldr	r6, [pc, #664]	@ (10001414 <p8_rx_byte+0x568>)
1000117a:	49a8      	ldr	r1, [pc, #672]	@ (1000141c <p8_rx_byte+0x570>)
1000117c:	4da6      	ldr	r5, [pc, #664]	@ (10001418 <p8_rx_byte+0x56c>)
1000117e:	6031      	str	r1, [r6, #0]
10001180:	2000      	movs	r0, #0
10001182:	4631      	mov	r1, r6
10001184:	602a      	str	r2, [r5, #0]
10001186:	7133      	strb	r3, [r6, #4]
10001188:	e72a      	b.n	10000fe0 <p8_rx_byte+0x134>
1000118a:	2100      	movs	r1, #0
1000118c:	4ba4      	ldr	r3, [pc, #656]	@ (10001420 <p8_rx_byte+0x574>)
1000118e:	4608      	mov	r0, r1
10001190:	7059      	strb	r1, [r3, #1]
10001192:	f7ff fde1 	bl	10000d58 <send_accepted_echo>
10001196:	e6a4      	b.n	10000ee2 <p8_rx_byte+0x36>
10001198:	f642 22ff 	movw	r2, #11007	@ 0x2aff
1000119c:	49a0      	ldr	r1, [pc, #640]	@ (10001420 <p8_rx_byte+0x574>)
1000119e:	4b9d      	ldr	r3, [pc, #628]	@ (10001414 <p8_rx_byte+0x568>)
100011a0:	7849      	ldrb	r1, [r1, #1]
100011a2:	801a      	strh	r2, [r3, #0]
100011a4:	29fc      	cmp	r1, #252	@ 0xfc
100011a6:	d895      	bhi.n	100010d4 <p8_rx_byte+0x228>
100011a8:	2503      	movs	r5, #3
100011aa:	e797      	b.n	100010dc <p8_rx_byte+0x230>
100011ac:	2204      	movs	r2, #4
100011ae:	4d9a      	ldr	r5, [pc, #616]	@ (10001418 <p8_rx_byte+0x56c>)
100011b0:	4b9c      	ldr	r3, [pc, #624]	@ (10001424 <p8_rx_byte+0x578>)
100011b2:	4998      	ldr	r1, [pc, #608]	@ (10001414 <p8_rx_byte+0x568>)
100011b4:	2000      	movs	r0, #0
100011b6:	600b      	str	r3, [r1, #0]
100011b8:	602a      	str	r2, [r5, #0]
100011ba:	e711      	b.n	10000fe0 <p8_rx_byte+0x134>
100011bc:	489a      	ldr	r0, [pc, #616]	@ (10001428 <p8_rx_byte+0x57c>)
100011be:	f003 ff57 	bl	10005070 <strlen>
100011c2:	2102      	movs	r1, #2
100011c4:	f242 52ff 	movw	r2, #9727	@ 0x25ff
100011c8:	4e93      	ldr	r6, [pc, #588]	@ (10001418 <p8_rx_byte+0x56c>)
100011ca:	4b92      	ldr	r3, [pc, #584]	@ (10001414 <p8_rx_byte+0x568>)
100011cc:	4686      	mov	lr, r0
100011ce:	801a      	strh	r2, [r3, #0]
100011d0:	6031      	str	r1, [r6, #0]
100011d2:	2800      	cmp	r0, #0
100011d4:	f000 8134 	beq.w	10001440 <p8_rx_byte+0x594>
100011d8:	f8df c25c 	ldr.w	ip, [pc, #604]	@ 10001438 <p8_rx_byte+0x58c>
100011dc:	2500      	movs	r5, #0
100011de:	27fd      	movs	r7, #253	@ 0xfd
100011e0:	44e6      	add	lr, ip
100011e2:	e011      	b.n	10001208 <p8_rx_byte+0x35c>
100011e4:	2980      	cmp	r1, #128	@ 0x80
100011e6:	d022      	beq.n	1000122e <p8_rx_byte+0x382>
100011e8:	3a03      	subs	r2, #3
100011ea:	297f      	cmp	r1, #127	@ 0x7f
100011ec:	b2d5      	uxtb	r5, r2
100011ee:	545f      	strb	r7, [r3, r1]
100011f0:	f101 0201 	add.w	r2, r1, #1
100011f4:	f000 813f 	beq.w	10001476 <p8_rx_byte+0x5ca>
100011f8:	4684      	mov	ip, r0
100011fa:	549d      	strb	r5, [r3, r2]
100011fc:	3102      	adds	r1, #2
100011fe:	4570      	cmp	r0, lr
10001200:	f04f 0501 	mov.w	r5, #1
10001204:	f000 80e9 	beq.w	100013da <p8_rx_byte+0x52e>
10001208:	f89c 2001 	ldrb.w	r2, [ip, #1]
1000120c:	f10c 0001 	add.w	r0, ip, #1
10001210:	2afc      	cmp	r2, #252	@ 0xfc
10001212:	d8e7      	bhi.n	100011e4 <p8_rx_byte+0x338>
10001214:	297f      	cmp	r1, #127	@ 0x7f
10001216:	dc03      	bgt.n	10001220 <p8_rx_byte+0x374>
10001218:	545a      	strb	r2, [r3, r1]
1000121a:	4684      	mov	ip, r0
1000121c:	3101      	adds	r1, #1
1000121e:	e7ee      	b.n	100011fe <p8_rx_byte+0x352>
10001220:	4586      	cmp	lr, r0
10001222:	f000 810b 	beq.w	1000143c <p8_rx_byte+0x590>
10001226:	f810 2f01 	ldrb.w	r2, [r0, #1]!
1000122a:	2afc      	cmp	r2, #252	@ 0xfc
1000122c:	d9f8      	bls.n	10001220 <p8_rx_byte+0x374>
1000122e:	4586      	cmp	lr, r0
10001230:	f000 80d2 	beq.w	100013d8 <p8_rx_byte+0x52c>
10001234:	f810 2f01 	ldrb.w	r2, [r0, #1]!
10001238:	2afc      	cmp	r2, #252	@ 0xfc
1000123a:	d8f8      	bhi.n	1000122e <p8_rx_byte+0x382>
1000123c:	4570      	cmp	r0, lr
1000123e:	f000 80cb 	beq.w	100013d8 <p8_rx_byte+0x52c>
10001242:	f810 2f01 	ldrb.w	r2, [r0, #1]!
10001246:	2afc      	cmp	r2, #252	@ 0xfc
10001248:	d9e4      	bls.n	10001214 <p8_rx_byte+0x368>
1000124a:	e7f0      	b.n	1000122e <p8_rx_byte+0x382>
1000124c:	2100      	movs	r1, #0
1000124e:	4b74      	ldr	r3, [pc, #464]	@ (10001420 <p8_rx_byte+0x574>)
10001250:	4608      	mov	r0, r1
10001252:	7259      	strb	r1, [r3, #9]
10001254:	f7ff fd80 	bl	10000d58 <send_accepted_echo>
10001258:	e643      	b.n	10000ee2 <p8_rx_byte+0x36>
1000125a:	f242 32ff 	movw	r2, #9215	@ 0x23ff
1000125e:	4970      	ldr	r1, [pc, #448]	@ (10001420 <p8_rx_byte+0x574>)
10001260:	4b6c      	ldr	r3, [pc, #432]	@ (10001414 <p8_rx_byte+0x568>)
10001262:	7a49      	ldrb	r1, [r1, #9]
10001264:	801a      	strh	r2, [r3, #0]
10001266:	29fc      	cmp	r1, #252	@ 0xfc
10001268:	d99e      	bls.n	100011a8 <p8_rx_byte+0x2fc>
1000126a:	e733      	b.n	100010d4 <p8_rx_byte+0x228>
1000126c:	2100      	movs	r1, #0
1000126e:	4b6c      	ldr	r3, [pc, #432]	@ (10001420 <p8_rx_byte+0x574>)
10001270:	4608      	mov	r0, r1
10001272:	7219      	strb	r1, [r3, #8]
10001274:	f7ff fd70 	bl	10000d58 <send_accepted_echo>
10001278:	e633      	b.n	10000ee2 <p8_rx_byte+0x36>
1000127a:	f242 12ff 	movw	r2, #8703	@ 0x21ff
1000127e:	4968      	ldr	r1, [pc, #416]	@ (10001420 <p8_rx_byte+0x574>)
10001280:	4b64      	ldr	r3, [pc, #400]	@ (10001414 <p8_rx_byte+0x568>)
10001282:	7a09      	ldrb	r1, [r1, #8]
10001284:	801a      	strh	r2, [r3, #0]
10001286:	29fc      	cmp	r1, #252	@ 0xfc
10001288:	d98e      	bls.n	100011a8 <p8_rx_byte+0x2fc>
1000128a:	e723      	b.n	100010d4 <p8_rx_byte+0x228>
1000128c:	f64f 73ff 	movw	r3, #65535	@ 0xffff
10001290:	4a63      	ldr	r2, [pc, #396]	@ (10001420 <p8_rx_byte+0x574>)
10001292:	88d2      	ldrh	r2, [r2, #6]
10001294:	429a      	cmp	r2, r3
10001296:	f000 80b1 	beq.w	100013fc <p8_rx_byte+0x550>
1000129a:	f641 70ff 	movw	r0, #8191	@ 0x1fff
1000129e:	4b5d      	ldr	r3, [pc, #372]	@ (10001414 <p8_rx_byte+0x568>)
100012a0:	f5b2 4f7d 	cmp.w	r2, #64768	@ 0xfd00
100012a4:	ea4f 2112 	mov.w	r1, r2, lsr #8
100012a8:	8018      	strh	r0, [r3, #0]
100012aa:	f0c0 80e2 	bcc.w	10001472 <p8_rx_byte+0x5c6>
100012ae:	3903      	subs	r1, #3
100012b0:	70d9      	strb	r1, [r3, #3]
100012b2:	2004      	movs	r0, #4
100012b4:	21fd      	movs	r1, #253	@ 0xfd
100012b6:	4e58      	ldr	r6, [pc, #352]	@ (10001418 <p8_rx_byte+0x56c>)
100012b8:	b2d2      	uxtb	r2, r2
100012ba:	2afc      	cmp	r2, #252	@ 0xfc
100012bc:	7099      	strb	r1, [r3, #2]
100012be:	6030      	str	r0, [r6, #0]
100012c0:	f100 0101 	add.w	r1, r0, #1
100012c4:	f240 80a4 	bls.w	10001410 <p8_rx_byte+0x564>
100012c8:	25fd      	movs	r5, #253	@ 0xfd
100012ca:	3a03      	subs	r2, #3
100012cc:	541d      	strb	r5, [r3, r0]
100012ce:	545a      	strb	r2, [r3, r1]
100012d0:	1c81      	adds	r1, r0, #2
100012d2:	20fe      	movs	r0, #254	@ 0xfe
100012d4:	1c4a      	adds	r2, r1, #1
100012d6:	6032      	str	r2, [r6, #0]
100012d8:	5458      	strb	r0, [r3, r1]
100012da:	e6e0      	b.n	1000109e <p8_rx_byte+0x1f2>
100012dc:	3e01      	subs	r6, #1
100012de:	2e0d      	cmp	r6, #13
100012e0:	bfa8      	it	ge
100012e2:	260d      	movge	r6, #13
100012e4:	4951      	ldr	r1, [pc, #324]	@ (1000142c <p8_rx_byte+0x580>)
100012e6:	4632      	mov	r2, r6
100012e8:	484f      	ldr	r0, [pc, #316]	@ (10001428 <p8_rx_byte+0x57c>)
100012ea:	f003 fe4b 	bl	10004f84 <memcpy>
100012ee:	2100      	movs	r1, #0
100012f0:	4a4b      	ldr	r2, [pc, #300]	@ (10001420 <p8_rx_byte+0x574>)
100012f2:	7868      	ldrb	r0, [r5, #1]
100012f4:	4432      	add	r2, r6
100012f6:	7291      	strb	r1, [r2, #10]
100012f8:	f7ff fd2e 	bl	10000d58 <send_accepted_echo>
100012fc:	e5f1      	b.n	10000ee2 <p8_rx_byte+0x36>
100012fe:	2e02      	cmp	r6, #2
10001300:	f43f ae63 	beq.w	10000fca <p8_rx_byte+0x11e>
10001304:	f8b5 3001 	ldrh.w	r3, [r5, #1]
10001308:	4a45      	ldr	r2, [pc, #276]	@ (10001420 <p8_rx_byte+0x574>)
1000130a:	ba5b      	rev16	r3, r3
1000130c:	7868      	ldrb	r0, [r5, #1]
1000130e:	8093      	strh	r3, [r2, #4]
10001310:	f7ff fd22 	bl	10000d58 <send_accepted_echo>
10001314:	e5e5      	b.n	10000ee2 <p8_rx_byte+0x36>
10001316:	4d46      	ldr	r5, [pc, #280]	@ (10001430 <p8_rx_byte+0x584>)
10001318:	7c2b      	ldrb	r3, [r5, #16]
1000131a:	2b0f      	cmp	r3, #15
1000131c:	d802      	bhi.n	10001324 <p8_rx_byte+0x478>
1000131e:	1c5a      	adds	r2, r3, #1
10001320:	742a      	strb	r2, [r5, #16]
10001322:	54e9      	strb	r1, [r5, r3]
10001324:	4608      	mov	r0, r1
10001326:	f7ff fd17 	bl	10000d58 <send_accepted_echo>
1000132a:	4a42      	ldr	r2, [pc, #264]	@ (10001434 <p8_rx_byte+0x588>)
1000132c:	7cab      	ldrb	r3, [r5, #18]
1000132e:	9200      	str	r2, [sp, #0]
10001330:	483f      	ldr	r0, [pc, #252]	@ (10001430 <p8_rx_byte+0x584>)
10001332:	7c6a      	ldrb	r2, [r5, #17]
10001334:	7c29      	ldrb	r1, [r5, #16]
10001336:	f7ff fb3d 	bl	100009b4 <cec_bus_transmit>
1000133a:	2800      	cmp	r0, #0
1000133c:	f040 8086 	bne.w	1000144c <p8_rx_byte+0x5a0>
10001340:	2300      	movs	r3, #0
10001342:	742b      	strb	r3, [r5, #16]
10001344:	e5cd      	b.n	10000ee2 <p8_rx_byte+0x36>
10001346:	2e02      	cmp	r6, #2
10001348:	f43f ae3f 	beq.w	10000fca <p8_rx_byte+0x11e>
1000134c:	f8b5 3001 	ldrh.w	r3, [r5, #1]
10001350:	4a33      	ldr	r2, [pc, #204]	@ (10001420 <p8_rx_byte+0x574>)
10001352:	ba5b      	rev16	r3, r3
10001354:	7868      	ldrb	r0, [r5, #1]
10001356:	80d3      	strh	r3, [r2, #6]
10001358:	f7ff fcfe 	bl	10000d58 <send_accepted_echo>
1000135c:	e5c1      	b.n	10000ee2 <p8_rx_byte+0x36>
1000135e:	2e02      	cmp	r6, #2
10001360:	f43f ae33 	beq.w	10000fca <p8_rx_byte+0x11e>
10001364:	f8b5 3001 	ldrh.w	r3, [r5, #1]
10001368:	4a2d      	ldr	r2, [pc, #180]	@ (10001420 <p8_rx_byte+0x574>)
1000136a:	ba5b      	rev16	r3, r3
1000136c:	b298      	uxth	r0, r3
1000136e:	8093      	strh	r3, [r2, #4]
10001370:	f7ff fb56 	bl	10000a20 <cec_bus_set_ack_mask>
10001374:	7868      	ldrb	r0, [r5, #1]
10001376:	f7ff fcef 	bl	10000d58 <send_accepted_echo>
1000137a:	e5b2      	b.n	10000ee2 <p8_rx_byte+0x36>
1000137c:	fab1 f381 	clz	r3, r1
10001380:	095b      	lsrs	r3, r3, #5
10001382:	4a2b      	ldr	r2, [pc, #172]	@ (10001430 <p8_rx_byte+0x584>)
10001384:	4608      	mov	r0, r1
10001386:	7493      	strb	r3, [r2, #18]
10001388:	f7ff fce6 	bl	10000d58 <send_accepted_echo>
1000138c:	e5a9      	b.n	10000ee2 <p8_rx_byte+0x36>
1000138e:	4608      	mov	r0, r1
10001390:	4b27      	ldr	r3, [pc, #156]	@ (10001430 <p8_rx_byte+0x584>)
10001392:	7459      	strb	r1, [r3, #17]
10001394:	f7ff fce0 	bl	10000d58 <send_accepted_echo>
10001398:	e5a3      	b.n	10000ee2 <p8_rx_byte+0x36>
1000139a:	2203      	movs	r2, #3
1000139c:	23fe      	movs	r3, #254	@ 0xfe
1000139e:	f640 05ff 	movw	r5, #2303	@ 0x8ff
100013a2:	491c      	ldr	r1, [pc, #112]	@ (10001414 <p8_rx_byte+0x568>)
100013a4:	4c1c      	ldr	r4, [pc, #112]	@ (10001418 <p8_rx_byte+0x56c>)
100013a6:	2000      	movs	r0, #0
100013a8:	708b      	strb	r3, [r1, #2]
100013aa:	800d      	strh	r5, [r1, #0]
100013ac:	6022      	str	r2, [r4, #0]
100013ae:	f002 ff6b 	bl	10004288 <tud_cdc_n_write>
100013b2:	2000      	movs	r0, #0
100013b4:	f002 ff20 	bl	100041f8 <tud_cdc_n_write_flush>
100013b8:	2300      	movs	r3, #0
100013ba:	2064      	movs	r0, #100	@ 0x64
100013bc:	6023      	str	r3, [r4, #0]
100013be:	f001 f8bf 	bl	10002540 <sleep_ms>
100013c2:	2101      	movs	r1, #1
100013c4:	4608      	mov	r0, r1
100013c6:	f001 fb99 	bl	10002afc <watchdog_enable>
100013ca:	e7fe      	b.n	100013ca <p8_rx_byte+0x51e>
100013cc:	2100      	movs	r1, #0
100013ce:	2301      	movs	r3, #1
100013d0:	e7d7      	b.n	10001382 <p8_rx_byte+0x4d6>
100013d2:	2000      	movs	r0, #0
100013d4:	2107      	movs	r1, #7
100013d6:	e7db      	b.n	10001390 <p8_rx_byte+0x4e4>
100013d8:	b395      	cbz	r5, 10001440 <p8_rx_byte+0x594>
100013da:	297f      	cmp	r1, #127	@ 0x7f
100013dc:	dd06      	ble.n	100013ec <p8_rx_byte+0x540>
100013de:	460a      	mov	r2, r1
100013e0:	6031      	str	r1, [r6, #0]
100013e2:	e65c      	b.n	1000109e <p8_rx_byte+0x1f2>
100013e4:	545a      	strb	r2, [r3, r1]
100013e6:	e656      	b.n	10001096 <p8_rx_byte+0x1ea>
100013e8:	2103      	movs	r1, #3
100013ea:	e646      	b.n	1000107a <p8_rx_byte+0x1ce>
100013ec:	20fe      	movs	r0, #254	@ 0xfe
100013ee:	1c4a      	adds	r2, r1, #1
100013f0:	2a00      	cmp	r2, #0
100013f2:	6032      	str	r2, [r6, #0]
100013f4:	5458      	strb	r0, [r3, r1]
100013f6:	f77f ae59 	ble.w	100010ac <p8_rx_byte+0x200>
100013fa:	e650      	b.n	1000109e <p8_rx_byte+0x1f2>
100013fc:	f641 77ff 	movw	r7, #8191	@ 0x1fff
10001400:	2510      	movs	r5, #16
10001402:	2003      	movs	r0, #3
10001404:	2200      	movs	r2, #0
10001406:	2104      	movs	r1, #4
10001408:	4b02      	ldr	r3, [pc, #8]	@ (10001414 <p8_rx_byte+0x568>)
1000140a:	4e03      	ldr	r6, [pc, #12]	@ (10001418 <p8_rx_byte+0x56c>)
1000140c:	801f      	strh	r7, [r3, #0]
1000140e:	709d      	strb	r5, [r3, #2]
10001410:	541a      	strb	r2, [r3, r0]
10001412:	e75e      	b.n	100012d2 <p8_rx_byte+0x426>
10001414:	20002530 	.word	0x20002530
10001418:	200025b0 	.word	0x200025b0
1000141c:	020015ff 	.word	0x020015ff
10001420:	2000234c 	.word	0x2000234c
10001424:	fe0128ff 	.word	0xfe0128ff
10001428:	20002356 	.word	0x20002356
1000142c:	200023c1 	.word	0x200023c1
10001430:	20001038 	.word	0x20001038
10001434:	10000d11 	.word	0x10000d11
10001438:	20002355 	.word	0x20002355
1000143c:	2d00      	cmp	r5, #0
1000143e:	d1ce      	bne.n	100013de <p8_rx_byte+0x532>
10001440:	22fe      	movs	r2, #254	@ 0xfe
10001442:	2103      	movs	r1, #3
10001444:	709a      	strb	r2, [r3, #2]
10001446:	6031      	str	r1, [r6, #0]
10001448:	2203      	movs	r2, #3
1000144a:	e628      	b.n	1000109e <p8_rx_byte+0x1f2>
1000144c:	23fe      	movs	r3, #254	@ 0xfe
1000144e:	f241 11ff 	movw	r1, #4607	@ 0x11ff
10001452:	2203      	movs	r2, #3
10001454:	480f      	ldr	r0, [pc, #60]	@ (10001494 <p8_rx_byte+0x5e8>)
10001456:	4e10      	ldr	r6, [pc, #64]	@ (10001498 <p8_rx_byte+0x5ec>)
10001458:	7083      	strb	r3, [r0, #2]
1000145a:	8001      	strh	r1, [r0, #0]
1000145c:	4601      	mov	r1, r0
1000145e:	2000      	movs	r0, #0
10001460:	6032      	str	r2, [r6, #0]
10001462:	f002 ff11 	bl	10004288 <tud_cdc_n_write>
10001466:	2000      	movs	r0, #0
10001468:	f002 fec6 	bl	100041f8 <tud_cdc_n_write_flush>
1000146c:	2300      	movs	r3, #0
1000146e:	6033      	str	r3, [r6, #0]
10001470:	e766      	b.n	10001340 <p8_rx_byte+0x494>
10001472:	2003      	movs	r0, #3
10001474:	e71f      	b.n	100012b6 <p8_rx_byte+0x40a>
10001476:	4586      	cmp	lr, r0
10001478:	d009      	beq.n	1000148e <p8_rx_byte+0x5e2>
1000147a:	f89c 1002 	ldrb.w	r1, [ip, #2]
1000147e:	2501      	movs	r5, #1
10001480:	29fc      	cmp	r1, #252	@ 0xfc
10001482:	f10c 0002 	add.w	r0, ip, #2
10001486:	4611      	mov	r1, r2
10001488:	f63f aed1 	bhi.w	1000122e <p8_rx_byte+0x382>
1000148c:	e6d6      	b.n	1000123c <p8_rx_byte+0x390>
1000148e:	6032      	str	r2, [r6, #0]
10001490:	e605      	b.n	1000109e <p8_rx_byte+0x1f2>
10001492:	bf00      	nop
10001494:	20002530 	.word	0x20002530
10001498:	200025b0 	.word	0x200025b0

1000149c <p8_protocol_init>:
1000149c:	b538      	push	{r3, r4, r5, lr}
1000149e:	2101      	movs	r1, #1
100014a0:	4827      	ldr	r0, [pc, #156]	@ (10001540 <p8_protocol_init+0xa4>)
100014a2:	f7ff fb01 	bl	10000aa8 <flash_kv_get_u8>
100014a6:	4603      	mov	r3, r0
100014a8:	4c26      	ldr	r4, [pc, #152]	@ (10001544 <p8_protocol_init+0xa8>)
100014aa:	2100      	movs	r1, #0
100014ac:	4826      	ldr	r0, [pc, #152]	@ (10001548 <p8_protocol_init+0xac>)
100014ae:	7023      	strb	r3, [r4, #0]
100014b0:	f7ff fafa 	bl	10000aa8 <flash_kv_get_u8>
100014b4:	4603      	mov	r3, r0
100014b6:	210f      	movs	r1, #15
100014b8:	4824      	ldr	r0, [pc, #144]	@ (1000154c <p8_protocol_init+0xb0>)
100014ba:	7063      	strb	r3, [r4, #1]
100014bc:	f7ff faf4 	bl	10000aa8 <flash_kv_get_u8>
100014c0:	4603      	mov	r3, r0
100014c2:	2100      	movs	r1, #0
100014c4:	4822      	ldr	r0, [pc, #136]	@ (10001550 <p8_protocol_init+0xb4>)
100014c6:	70a3      	strb	r3, [r4, #2]
100014c8:	f7ff fb26 	bl	10000b18 <flash_kv_get_u16>
100014cc:	4603      	mov	r3, r0
100014ce:	f44f 5180 	mov.w	r1, #4096	@ 0x1000
100014d2:	4820      	ldr	r0, [pc, #128]	@ (10001554 <p8_protocol_init+0xb8>)
100014d4:	80a3      	strh	r3, [r4, #4]
100014d6:	f7ff fb1f 	bl	10000b18 <flash_kv_get_u16>
100014da:	4603      	mov	r3, r0
100014dc:	2104      	movs	r1, #4
100014de:	481e      	ldr	r0, [pc, #120]	@ (10001558 <p8_protocol_init+0xbc>)
100014e0:	80e3      	strh	r3, [r4, #6]
100014e2:	f7ff fae1 	bl	10000aa8 <flash_kv_get_u8>
100014e6:	4603      	mov	r3, r0
100014e8:	2105      	movs	r1, #5
100014ea:	481c      	ldr	r0, [pc, #112]	@ (1000155c <p8_protocol_init+0xc0>)
100014ec:	7223      	strb	r3, [r4, #8]
100014ee:	f7ff fadb 	bl	10000aa8 <flash_kv_get_u8>
100014f2:	4603      	mov	r3, r0
100014f4:	220e      	movs	r2, #14
100014f6:	481a      	ldr	r0, [pc, #104]	@ (10001560 <p8_protocol_init+0xc4>)
100014f8:	f104 010a 	add.w	r1, r4, #10
100014fc:	7263      	strb	r3, [r4, #9]
100014fe:	f7ff fb25 	bl	10000b4c <flash_kv_get_str>
10001502:	b1a8      	cbz	r0, 10001530 <p8_protocol_init+0x94>
10001504:	2000      	movs	r0, #0
10001506:	f7ff fa8b 	bl	10000a20 <cec_bus_set_ack_mask>
1000150a:	4816      	ldr	r0, [pc, #88]	@ (10001564 <p8_protocol_init+0xc8>)
1000150c:	2205      	movs	r2, #5
1000150e:	23fe      	movs	r3, #254	@ 0xfe
10001510:	4605      	mov	r5, r0
10001512:	4915      	ldr	r1, [pc, #84]	@ (10001568 <p8_protocol_init+0xcc>)
10001514:	4c15      	ldr	r4, [pc, #84]	@ (1000156c <p8_protocol_init+0xd0>)
10001516:	6001      	str	r1, [r0, #0]
10001518:	4601      	mov	r1, r0
1000151a:	2000      	movs	r0, #0
1000151c:	6022      	str	r2, [r4, #0]
1000151e:	712b      	strb	r3, [r5, #4]
10001520:	f002 feb2 	bl	10004288 <tud_cdc_n_write>
10001524:	2000      	movs	r0, #0
10001526:	f002 fe67 	bl	100041f8 <tud_cdc_n_write_flush>
1000152a:	2000      	movs	r0, #0
1000152c:	6020      	str	r0, [r4, #0]
1000152e:	bd38      	pop	{r3, r4, r5, pc}
10001530:	220e      	movs	r2, #14
10001532:	490f      	ldr	r1, [pc, #60]	@ (10001570 <p8_protocol_init+0xd4>)
10001534:	f104 000a 	add.w	r0, r4, #10
10001538:	f003 fc08 	bl	10004d4c <strlcpy>
1000153c:	e7e2      	b.n	10001504 <p8_protocol_init+0x68>
1000153e:	bf00      	nop
10001540:	10005210 	.word	0x10005210
10001544:	2000234c 	.word	0x2000234c
10001548:	10005218 	.word	0x10005218
1000154c:	10005224 	.word	0x10005224
10001550:	10005244 	.word	0x10005244
10001554:	1000524c 	.word	0x1000524c
10001558:	1000522c 	.word	0x1000522c
1000155c:	10005238 	.word	0x10005238
10001560:	10005258 	.word	0x10005258
10001564:	20002530 	.word	0x20002530
10001568:	020015ff 	.word	0x020015ff
1000156c:	200025b0 	.word	0x200025b0
10001570:	10005204 	.word	0x10005204

10001574 <gpio_default_irq_handler>:
10001574:	f04f 4250 	mov.w	r2, #3489660928	@ 0xd0000000
10001578:	e92d 4ff8 	stmdb	sp!, {r3, r4, r5, r6, r7, r8, r9, sl, fp, lr}
1000157c:	4b6d      	ldr	r3, [pc, #436]	@ (10001734 <gpio_default_irq_handler+0x1c0>)
1000157e:	f8d2 a000 	ldr.w	sl, [r2]
10001582:	f853 702a 	ldr.w	r7, [r3, sl, lsl #2]
10001586:	f1ba 0f00 	cmp.w	sl, #0
1000158a:	d02c      	beq.n	100015e6 <gpio_default_irq_handler+0x72>
1000158c:	f8df 81b0 	ldr.w	r8, [pc, #432]	@ 10001740 <gpio_default_irq_handler+0x1cc>
10001590:	b36f      	cbz	r7, 100015ee <gpio_default_irq_handler+0x7a>
10001592:	2600      	movs	r6, #0
10001594:	f8df b1a0 	ldr.w	fp, [pc, #416]	@ 10001738 <gpio_default_irq_handler+0x1c4>
10001598:	f8df 91a0 	ldr.w	r9, [pc, #416]	@ 1000173c <gpio_default_irq_handler+0x1c8>
1000159c:	08f3      	lsrs	r3, r6, #3
1000159e:	330c      	adds	r3, #12
100015a0:	f858 5023 	ldr.w	r5, [r8, r3, lsl #2]
100015a4:	4634      	mov	r4, r6
100015a6:	3608      	adds	r6, #8
100015a8:	b1cd      	cbz	r5, 100015de <gpio_default_irq_handler+0x6a>
100015aa:	f005 010f 	and.w	r1, r5, #15
100015ae:	4620      	mov	r0, r4
100015b0:	092d      	lsrs	r5, r5, #4
100015b2:	3401      	adds	r4, #1
100015b4:	b189      	cbz	r1, 100015da <gpio_default_irq_handler+0x66>
100015b6:	f85b 202a 	ldr.w	r2, [fp, sl, lsl #2]
100015ba:	f000 0307 	and.w	r3, r0, #7
100015be:	40c2      	lsrs	r2, r0
100015c0:	ea4f 0cd0 	mov.w	ip, r0, lsr #3
100015c4:	009b      	lsls	r3, r3, #2
100015c6:	07d2      	lsls	r2, r2, #31
100015c8:	fa01 f303 	lsl.w	r3, r1, r3
100015cc:	f10c 0c8c 	add.w	ip, ip, #140	@ 0x8c
100015d0:	d402      	bmi.n	100015d8 <gpio_default_irq_handler+0x64>
100015d2:	f849 302c 	str.w	r3, [r9, ip, lsl #2]
100015d6:	47b8      	blx	r7
100015d8:	b10d      	cbz	r5, 100015de <gpio_default_irq_handler+0x6a>
100015da:	42b4      	cmp	r4, r6
100015dc:	d3e5      	bcc.n	100015aa <gpio_default_irq_handler+0x36>
100015de:	2e20      	cmp	r6, #32
100015e0:	d1dc      	bne.n	1000159c <gpio_default_irq_handler+0x28>
100015e2:	e8bd 8ff8 	ldmia.w	sp!, {r3, r4, r5, r6, r7, r8, r9, sl, fp, pc}
100015e6:	f8df 815c 	ldr.w	r8, [pc, #348]	@ 10001744 <gpio_default_irq_handler+0x1d0>
100015ea:	2f00      	cmp	r7, #0
100015ec:	d1d1      	bne.n	10001592 <gpio_default_irq_handler+0x1e>
100015ee:	4852      	ldr	r0, [pc, #328]	@ (10001738 <gpio_default_irq_handler+0x1c4>)
100015f0:	08f9      	lsrs	r1, r7, #3
100015f2:	f101 030c 	add.w	r3, r1, #12
100015f6:	f858 3023 	ldr.w	r3, [r8, r3, lsl #2]
100015fa:	2b00      	cmp	r3, #0
100015fc:	d07b      	beq.n	100016f6 <gpio_default_irq_handler+0x182>
100015fe:	f013 050f 	ands.w	r5, r3, #15
10001602:	ea4f 1213 	mov.w	r2, r3, lsr #4
10001606:	d00a      	beq.n	1000161e <gpio_default_irq_handler+0xaa>
10001608:	f850 402a 	ldr.w	r4, [r0, sl, lsl #2]
1000160c:	40fc      	lsrs	r4, r7
1000160e:	07e6      	lsls	r6, r4, #31
10001610:	d403      	bmi.n	1000161a <gpio_default_irq_handler+0xa6>
10001612:	4c4a      	ldr	r4, [pc, #296]	@ (1000173c <gpio_default_irq_handler+0x1c8>)
10001614:	318c      	adds	r1, #140	@ 0x8c
10001616:	f844 5021 	str.w	r5, [r4, r1, lsl #2]
1000161a:	2a00      	cmp	r2, #0
1000161c:	d06b      	beq.n	100016f6 <gpio_default_irq_handler+0x182>
1000161e:	f012 020f 	ands.w	r2, r2, #15
10001622:	ea4f 2113 	mov.w	r1, r3, lsr #8
10001626:	d00d      	beq.n	10001644 <gpio_default_irq_handler+0xd0>
10001628:	f850 402a 	ldr.w	r4, [r0, sl, lsl #2]
1000162c:	1c7d      	adds	r5, r7, #1
1000162e:	40ec      	lsrs	r4, r5
10001630:	07e4      	lsls	r4, r4, #31
10001632:	d405      	bmi.n	10001640 <gpio_default_irq_handler+0xcc>
10001634:	08ec      	lsrs	r4, r5, #3
10001636:	4d41      	ldr	r5, [pc, #260]	@ (1000173c <gpio_default_irq_handler+0x1c8>)
10001638:	0112      	lsls	r2, r2, #4
1000163a:	348c      	adds	r4, #140	@ 0x8c
1000163c:	f845 2024 	str.w	r2, [r5, r4, lsl #2]
10001640:	2900      	cmp	r1, #0
10001642:	d058      	beq.n	100016f6 <gpio_default_irq_handler+0x182>
10001644:	f011 010f 	ands.w	r1, r1, #15
10001648:	ea4f 3213 	mov.w	r2, r3, lsr #12
1000164c:	d007      	beq.n	1000165e <gpio_default_irq_handler+0xea>
1000164e:	f850 402a 	ldr.w	r4, [r0, sl, lsl #2]
10001652:	1cbd      	adds	r5, r7, #2
10001654:	40ec      	lsrs	r4, r5
10001656:	07e6      	lsls	r6, r4, #31
10001658:	d557      	bpl.n	1000170a <gpio_default_irq_handler+0x196>
1000165a:	2a00      	cmp	r2, #0
1000165c:	d04b      	beq.n	100016f6 <gpio_default_irq_handler+0x182>
1000165e:	f012 020f 	ands.w	r2, r2, #15
10001662:	ea4f 4113 	mov.w	r1, r3, lsr #16
10001666:	d007      	beq.n	10001678 <gpio_default_irq_handler+0x104>
10001668:	f850 402a 	ldr.w	r4, [r0, sl, lsl #2]
1000166c:	1cfd      	adds	r5, r7, #3
1000166e:	40ec      	lsrs	r4, r5
10001670:	07e4      	lsls	r4, r4, #31
10001672:	d551      	bpl.n	10001718 <gpio_default_irq_handler+0x1a4>
10001674:	2900      	cmp	r1, #0
10001676:	d03e      	beq.n	100016f6 <gpio_default_irq_handler+0x182>
10001678:	f011 010f 	ands.w	r1, r1, #15
1000167c:	ea4f 5213 	mov.w	r2, r3, lsr #20
10001680:	d007      	beq.n	10001692 <gpio_default_irq_handler+0x11e>
10001682:	4c2d      	ldr	r4, [pc, #180]	@ (10001738 <gpio_default_irq_handler+0x1c4>)
10001684:	f854 502a 	ldr.w	r5, [r4, sl, lsl #2]
10001688:	1d3c      	adds	r4, r7, #4
1000168a:	40e5      	lsrs	r5, r4
1000168c:	07ee      	lsls	r6, r5, #31
1000168e:	d54a      	bpl.n	10001726 <gpio_default_irq_handler+0x1b2>
10001690:	b38a      	cbz	r2, 100016f6 <gpio_default_irq_handler+0x182>
10001692:	f012 020f 	ands.w	r2, r2, #15
10001696:	ea4f 6113 	mov.w	r1, r3, lsr #24
1000169a:	d00d      	beq.n	100016b8 <gpio_default_irq_handler+0x144>
1000169c:	4c26      	ldr	r4, [pc, #152]	@ (10001738 <gpio_default_irq_handler+0x1c4>)
1000169e:	f854 502a 	ldr.w	r5, [r4, sl, lsl #2]
100016a2:	1d7c      	adds	r4, r7, #5
100016a4:	40e5      	lsrs	r5, r4
100016a6:	07ed      	lsls	r5, r5, #31
100016a8:	d405      	bmi.n	100016b6 <gpio_default_irq_handler+0x142>
100016aa:	4d24      	ldr	r5, [pc, #144]	@ (1000173c <gpio_default_irq_handler+0x1c8>)
100016ac:	08e4      	lsrs	r4, r4, #3
100016ae:	0512      	lsls	r2, r2, #20
100016b0:	348c      	adds	r4, #140	@ 0x8c
100016b2:	f845 2024 	str.w	r2, [r5, r4, lsl #2]
100016b6:	b1f1      	cbz	r1, 100016f6 <gpio_default_irq_handler+0x182>
100016b8:	f011 010f 	ands.w	r1, r1, #15
100016bc:	ea4f 7313 	mov.w	r3, r3, lsr #28
100016c0:	d01f      	beq.n	10001702 <gpio_default_irq_handler+0x18e>
100016c2:	4c1d      	ldr	r4, [pc, #116]	@ (10001738 <gpio_default_irq_handler+0x1c4>)
100016c4:	1dbd      	adds	r5, r7, #6
100016c6:	f854 202a 	ldr.w	r2, [r4, sl, lsl #2]
100016ca:	40ea      	lsrs	r2, r5
100016cc:	07d6      	lsls	r6, r2, #31
100016ce:	d405      	bmi.n	100016dc <gpio_default_irq_handler+0x168>
100016d0:	08ea      	lsrs	r2, r5, #3
100016d2:	4d1a      	ldr	r5, [pc, #104]	@ (1000173c <gpio_default_irq_handler+0x1c8>)
100016d4:	0609      	lsls	r1, r1, #24
100016d6:	328c      	adds	r2, #140	@ 0x8c
100016d8:	f845 1022 	str.w	r1, [r5, r2, lsl #2]
100016dc:	b15b      	cbz	r3, 100016f6 <gpio_default_irq_handler+0x182>
100016de:	f854 102a 	ldr.w	r1, [r4, sl, lsl #2]
100016e2:	1dfa      	adds	r2, r7, #7
100016e4:	40d1      	lsrs	r1, r2
100016e6:	07c9      	lsls	r1, r1, #31
100016e8:	d405      	bmi.n	100016f6 <gpio_default_irq_handler+0x182>
100016ea:	4914      	ldr	r1, [pc, #80]	@ (1000173c <gpio_default_irq_handler+0x1c8>)
100016ec:	08d2      	lsrs	r2, r2, #3
100016ee:	071b      	lsls	r3, r3, #28
100016f0:	328c      	adds	r2, #140	@ 0x8c
100016f2:	f841 3022 	str.w	r3, [r1, r2, lsl #2]
100016f6:	3708      	adds	r7, #8
100016f8:	2f20      	cmp	r7, #32
100016fa:	f47f af79 	bne.w	100015f0 <gpio_default_irq_handler+0x7c>
100016fe:	e8bd 8ff8 	ldmia.w	sp!, {r3, r4, r5, r6, r7, r8, r9, sl, fp, pc}
10001702:	2b00      	cmp	r3, #0
10001704:	d0f7      	beq.n	100016f6 <gpio_default_irq_handler+0x182>
10001706:	4c0c      	ldr	r4, [pc, #48]	@ (10001738 <gpio_default_irq_handler+0x1c4>)
10001708:	e7e9      	b.n	100016de <gpio_default_irq_handler+0x16a>
1000170a:	08ec      	lsrs	r4, r5, #3
1000170c:	4d0b      	ldr	r5, [pc, #44]	@ (1000173c <gpio_default_irq_handler+0x1c8>)
1000170e:	0209      	lsls	r1, r1, #8
10001710:	348c      	adds	r4, #140	@ 0x8c
10001712:	f845 1024 	str.w	r1, [r5, r4, lsl #2]
10001716:	e7a0      	b.n	1000165a <gpio_default_irq_handler+0xe6>
10001718:	08ec      	lsrs	r4, r5, #3
1000171a:	4d08      	ldr	r5, [pc, #32]	@ (1000173c <gpio_default_irq_handler+0x1c8>)
1000171c:	0312      	lsls	r2, r2, #12
1000171e:	348c      	adds	r4, #140	@ 0x8c
10001720:	f845 2024 	str.w	r2, [r5, r4, lsl #2]
10001724:	e7a6      	b.n	10001674 <gpio_default_irq_handler+0x100>
10001726:	4d05      	ldr	r5, [pc, #20]	@ (1000173c <gpio_default_irq_handler+0x1c8>)
10001728:	08e4      	lsrs	r4, r4, #3
1000172a:	0409      	lsls	r1, r1, #16
1000172c:	348c      	adds	r4, #140	@ 0x8c
1000172e:	f845 1024 	str.w	r1, [r5, r4, lsl #2]
10001732:	e7ad      	b.n	10001690 <gpio_default_irq_handler+0x11c>
10001734:	20001da0 	.word	0x20001da0
10001738:	2000233c 	.word	0x2000233c
1000173c:	40028000 	.word	0x40028000
10001740:	40028290 	.word	0x40028290
10001744:	40028248 	.word	0x40028248

10001748 <gpio_set_pulls>:
10001748:	b410      	push	{r4}
1000174a:	4c08      	ldr	r4, [pc, #32]	@ (1000176c <gpio_set_pulls+0x24>)
1000174c:	00c9      	lsls	r1, r1, #3
1000174e:	ea41 0182 	orr.w	r1, r1, r2, lsl #2
10001752:	f854 2020 	ldr.w	r2, [r4, r0, lsl #2]
10001756:	eb04 0380 	add.w	r3, r4, r0, lsl #2
1000175a:	4051      	eors	r1, r2
1000175c:	f503 5380 	add.w	r3, r3, #4096	@ 0x1000
10001760:	f001 010c 	and.w	r1, r1, #12
10001764:	f85d 4b04 	ldr.w	r4, [sp], #4
10001768:	6019      	str	r1, [r3, #0]
1000176a:	4770      	bx	lr
1000176c:	40038004 	.word	0x40038004

10001770 <gpio_set_irq_enabled_with_callback>:
10001770:	e92d 43f0 	stmdb	sp!, {r4, r5, r6, r7, r8, r9, lr}
10001774:	f04f 4950 	mov.w	r9, #3489660928	@ 0xd0000000
10001778:	461f      	mov	r7, r3
1000177a:	f8df 8098 	ldr.w	r8, [pc, #152]	@ 10001814 <gpio_set_irq_enabled_with_callback+0xa4>
1000177e:	f8d9 3000 	ldr.w	r3, [r9]
10001782:	4616      	mov	r6, r2
10001784:	f858 2023 	ldr.w	r2, [r8, r3, lsl #2]
10001788:	4604      	mov	r4, r0
1000178a:	460d      	mov	r5, r1
1000178c:	b083      	sub	sp, #12
1000178e:	b332      	cbz	r2, 100017de <gpio_set_irq_enabled_with_callback+0x6e>
10001790:	b387      	cbz	r7, 100017f4 <gpio_set_irq_enabled_with_callback+0x84>
10001792:	f848 7023 	str.w	r7, [r8, r3, lsl #2]
10001796:	f04f 4350 	mov.w	r3, #3489660928	@ 0xd0000000
1000179a:	681b      	ldr	r3, [r3, #0]
1000179c:	b1bb      	cbz	r3, 100017ce <gpio_set_irq_enabled_with_callback+0x5e>
1000179e:	4b19      	ldr	r3, [pc, #100]	@ (10001804 <gpio_set_irq_enabled_with_callback+0x94>)
100017a0:	08e1      	lsrs	r1, r4, #3
100017a2:	f004 0407 	and.w	r4, r4, #7
100017a6:	4a18      	ldr	r2, [pc, #96]	@ (10001808 <gpio_set_irq_enabled_with_callback+0x98>)
100017a8:	00a4      	lsls	r4, r4, #2
100017aa:	fa05 f404 	lsl.w	r4, r5, r4
100017ae:	eb03 0381 	add.w	r3, r3, r1, lsl #2
100017b2:	318c      	adds	r1, #140	@ 0x8c
100017b4:	f842 4021 	str.w	r4, [r2, r1, lsl #2]
100017b8:	b15e      	cbz	r6, 100017d2 <gpio_set_irq_enabled_with_callback+0x62>
100017ba:	2101      	movs	r1, #1
100017bc:	2015      	movs	r0, #21
100017be:	f503 5300 	add.w	r3, r3, #8192	@ 0x2000
100017c2:	601c      	str	r4, [r3, #0]
100017c4:	b003      	add	sp, #12
100017c6:	e8bd 43f0 	ldmia.w	sp!, {r4, r5, r6, r7, r8, r9, lr}
100017ca:	f000 b91d 	b.w	10001a08 <irq_set_enabled>
100017ce:	4b0f      	ldr	r3, [pc, #60]	@ (1000180c <gpio_set_irq_enabled_with_callback+0x9c>)
100017d0:	e7e6      	b.n	100017a0 <gpio_set_irq_enabled_with_callback+0x30>
100017d2:	f503 5340 	add.w	r3, r3, #12288	@ 0x3000
100017d6:	601c      	str	r4, [r3, #0]
100017d8:	b003      	add	sp, #12
100017da:	e8bd 83f0 	ldmia.w	sp!, {r4, r5, r6, r7, r8, r9, pc}
100017de:	2f00      	cmp	r7, #0
100017e0:	d0dc      	beq.n	1000179c <gpio_set_irq_enabled_with_callback+0x2c>
100017e2:	2015      	movs	r0, #21
100017e4:	490a      	ldr	r1, [pc, #40]	@ (10001810 <gpio_set_irq_enabled_with_callback+0xa0>)
100017e6:	f848 7023 	str.w	r7, [r8, r3, lsl #2]
100017ea:	f000 f95b 	bl	10001aa4 <irq_add_shared_handler>
100017ee:	f8d9 3000 	ldr.w	r3, [r9]
100017f2:	e7d3      	b.n	1000179c <gpio_set_irq_enabled_with_callback+0x2c>
100017f4:	2015      	movs	r0, #21
100017f6:	4906      	ldr	r1, [pc, #24]	@ (10001810 <gpio_set_irq_enabled_with_callback+0xa0>)
100017f8:	9301      	str	r3, [sp, #4]
100017fa:	f000 fa47 	bl	10001c8c <irq_remove_handler>
100017fe:	9b01      	ldr	r3, [sp, #4]
10001800:	e7c7      	b.n	10001792 <gpio_set_irq_enabled_with_callback+0x22>
10001802:	bf00      	nop
10001804:	40028290 	.word	0x40028290
10001808:	40028000 	.word	0x40028000
1000180c:	40028248 	.word	0x40028248
10001810:	10001575 	.word	0x10001575
10001814:	20001da0 	.word	0x20001da0

10001818 <gpio_init>:
10001818:	b430      	push	{r4, r5}
1000181a:	f04f 0300 	mov.w	r3, #0
1000181e:	ec43 0044 	gpioc_bit_oe_put r0, r3
10001822:	ec43 0040 	gpioc_bit_out_put r0, r3
10001826:	2505      	movs	r5, #5
10001828:	f44f 7480 	mov.w	r4, #256	@ 0x100
1000182c:	4b0b      	ldr	r3, [pc, #44]	@ (1000185c <gpio_init+0x44>)
1000182e:	00c2      	lsls	r2, r0, #3
10001830:	f853 1020 	ldr.w	r1, [r3, r0, lsl #2]
10001834:	eb03 0080 	add.w	r0, r3, r0, lsl #2
10001838:	f081 0140 	eor.w	r1, r1, #64	@ 0x40
1000183c:	f102 4380 	add.w	r3, r2, #1073741824	@ 0x40000000
10001840:	f503 3320 	add.w	r3, r3, #163840	@ 0x28000
10001844:	f001 02c0 	and.w	r2, r1, #192	@ 0xc0
10001848:	f500 5180 	add.w	r1, r0, #4096	@ 0x1000
1000184c:	f500 5040 	add.w	r0, r0, #12288	@ 0x3000
10001850:	600a      	str	r2, [r1, #0]
10001852:	605d      	str	r5, [r3, #4]
10001854:	6004      	str	r4, [r0, #0]
10001856:	bc30      	pop	{r4, r5}
10001858:	4770      	bx	lr
1000185a:	bf00      	nop
1000185c:	40038004 	.word	0x40038004

10001860 <panic>:
10001860:	b40f      	push	{r0, r1, r2, r3}
10001862:	b500      	push	{lr}
10001864:	b083      	sub	sp, #12
10001866:	9c04      	ldr	r4, [sp, #16]
10001868:	4807      	ldr	r0, [pc, #28]	@ (10001888 <panic+0x28>)
1000186a:	f001 fc2b 	bl	100030c4 <__wrap_puts>
1000186e:	b13c      	cbz	r4, 10001880 <panic+0x20>
10001870:	a905      	add	r1, sp, #20
10001872:	4620      	mov	r0, r4
10001874:	9101      	str	r1, [sp, #4]
10001876:	f001 fae1 	bl	10002e3c <weak_raw_vprintf>
1000187a:	4804      	ldr	r0, [pc, #16]	@ (1000188c <panic+0x2c>)
1000187c:	f001 fc22 	bl	100030c4 <__wrap_puts>
10001880:	2001      	movs	r0, #1
10001882:	f001 faf3 	bl	10002e6c <_exit>
10001886:	bf00      	nop
10001888:	1000529c 	.word	0x1000529c
1000188c:	100052ac 	.word	0x100052ac

10001890 <hw_claim_or_assert>:
10001890:	b570      	push	{r4, r5, r6, lr}
10001892:	4686      	mov	lr, r0
10001894:	f3ef 8510 	mrs	r5, PRIMASK
10001898:	b672      	cpsid	i
1000189a:	4c12      	ldr	r4, [pc, #72]	@ (100018e4 <hw_claim_or_assert+0x54>)
1000189c:	e8d4 6fcf 	ldaexb	r6, [r4]
100018a0:	2001      	movs	r0, #1
100018a2:	2e00      	cmp	r6, #0
100018a4:	d1fa      	bne.n	1000189c <hw_claim_or_assert+0xc>
100018a6:	e8c4 0f46 	strexb	r6, r0, [r4]
100018aa:	2e00      	cmp	r6, #0
100018ac:	d1f6      	bne.n	1000189c <hw_claim_or_assert+0xc>
100018ae:	f3bf 8f5f 	dmb	sy
100018b2:	f04f 0c01 	mov.w	ip, #1
100018b6:	08c8      	lsrs	r0, r1, #3
100018b8:	f001 0307 	and.w	r3, r1, #7
100018bc:	fa0c f303 	lsl.w	r3, ip, r3
100018c0:	f81e c000 	ldrb.w	ip, [lr, r0]
100018c4:	ea1c 0603 	ands.w	r6, ip, r3
100018c8:	d108      	bne.n	100018dc <hw_claim_or_assert+0x4c>
100018ca:	ea4c 0c03 	orr.w	ip, ip, r3
100018ce:	f80e c000 	strb.w	ip, [lr, r0]
100018d2:	e8c4 6f8f 	stlb	r6, [r4]
100018d6:	f385 8810 	msr	PRIMASK, r5
100018da:	bd70      	pop	{r4, r5, r6, pc}
100018dc:	4610      	mov	r0, r2
100018de:	f7ff ffbf 	bl	10001860 <panic>
100018e2:	bf00      	nop
100018e4:	20001b3f 	.word	0x20001b3f

100018e8 <hw_claim_unused_from_range>:
100018e8:	b5f8      	push	{r3, r4, r5, r6, r7, lr}
100018ea:	f3ef 8710 	mrs	r7, PRIMASK
100018ee:	b672      	cpsid	i
100018f0:	4e1c      	ldr	r6, [pc, #112]	@ (10001964 <hw_claim_unused_from_range+0x7c>)
100018f2:	e8d6 5fcf 	ldaexb	r5, [r6]
100018f6:	2401      	movs	r4, #1
100018f8:	2d00      	cmp	r5, #0
100018fa:	d1fa      	bne.n	100018f2 <hw_claim_unused_from_range+0xa>
100018fc:	e8c6 4f45 	strexb	r5, r4, [r6]
10001900:	2d00      	cmp	r5, #0
10001902:	d1f6      	bne.n	100018f2 <hw_claim_unused_from_range+0xa>
10001904:	f3bf 8f5f 	dmb	sy
10001908:	429a      	cmp	r2, r3
1000190a:	d81b      	bhi.n	10001944 <hw_claim_unused_from_range+0x5c>
1000190c:	2501      	movs	r5, #1
1000190e:	e002      	b.n	10001916 <hw_claim_unused_from_range+0x2e>
10001910:	3201      	adds	r2, #1
10001912:	4293      	cmp	r3, r2
10001914:	d322      	bcc.n	1000195c <hw_claim_unused_from_range+0x74>
10001916:	08d4      	lsrs	r4, r2, #3
10001918:	f810 e004 	ldrb.w	lr, [r0, r4]
1000191c:	f002 0c07 	and.w	ip, r2, #7
10001920:	fa05 fc0c 	lsl.w	ip, r5, ip
10001924:	ea1e 0f0c 	tst.w	lr, ip
10001928:	d1f2      	bne.n	10001910 <hw_claim_unused_from_range+0x28>
1000192a:	ea4e 0e0c 	orr.w	lr, lr, ip
1000192e:	f800 e004 	strb.w	lr, [r0, r4]
10001932:	4610      	mov	r0, r2
10001934:	2300      	movs	r3, #0
10001936:	e8c6 3f8f 	stlb	r3, [r6]
1000193a:	f387 8810 	msr	PRIMASK, r7
1000193e:	4298      	cmp	r0, r3
10001940:	db07      	blt.n	10001952 <hw_claim_unused_from_range+0x6a>
10001942:	bdf8      	pop	{r3, r4, r5, r6, r7, pc}
10001944:	2300      	movs	r3, #0
10001946:	e8c6 3f8f 	stlb	r3, [r6]
1000194a:	f387 8810 	msr	PRIMASK, r7
1000194e:	f04f 30ff 	mov.w	r0, #4294967295	@ 0xffffffff
10001952:	2900      	cmp	r1, #0
10001954:	d0f5      	beq.n	10001942 <hw_claim_unused_from_range+0x5a>
10001956:	9806      	ldr	r0, [sp, #24]
10001958:	f7ff ff82 	bl	10001860 <panic>
1000195c:	f04f 30ff 	mov.w	r0, #4294967295	@ 0xffffffff
10001960:	e7e8      	b.n	10001934 <hw_claim_unused_from_range+0x4c>
10001962:	bf00      	nop
10001964:	20001b3f 	.word	0x20001b3f

10001968 <next_striped_spin_lock_num>:
10001968:	4a04      	ldr	r2, [pc, #16]	@ (1000197c <next_striped_spin_lock_num+0x14>)
1000196a:	7810      	ldrb	r0, [r2, #0]
1000196c:	1c43      	adds	r3, r0, #1
1000196e:	b2db      	uxtb	r3, r3
10001970:	2b18      	cmp	r3, #24
10001972:	bf28      	it	cs
10001974:	2310      	movcs	r3, #16
10001976:	7013      	strb	r3, [r2, #0]
10001978:	4770      	bx	lr
1000197a:	bf00      	nop
1000197c:	2000104b 	.word	0x2000104b

10001980 <spin_lock_claim_unused>:
10001980:	b510      	push	{r4, lr}
10001982:	4c05      	ldr	r4, [pc, #20]	@ (10001998 <spin_lock_claim_unused+0x18>)
10001984:	b082      	sub	sp, #8
10001986:	4601      	mov	r1, r0
10001988:	231f      	movs	r3, #31
1000198a:	2218      	movs	r2, #24
1000198c:	9400      	str	r4, [sp, #0]
1000198e:	4803      	ldr	r0, [pc, #12]	@ (1000199c <spin_lock_claim_unused+0x1c>)
10001990:	f7ff ffaa 	bl	100018e8 <hw_claim_unused_from_range>
10001994:	b002      	add	sp, #8
10001996:	bd10      	pop	{r4, pc}
10001998:	100052b0 	.word	0x100052b0
1000199c:	20001da8 	.word	0x20001da8

100019a0 <spinlock_set_extexclall>:
100019a0:	f04f 22e0 	mov.w	r2, #3758153728	@ 0xe000e000
100019a4:	6893      	ldr	r3, [r2, #8]
100019a6:	f043 5300 	orr.w	r3, r3, #536870912	@ 0x20000000
100019aa:	6093      	str	r3, [r2, #8]
100019ac:	4770      	bx	lr
100019ae:	bf00      	nop

100019b0 <spin_locks_reset>:
100019b0:	2100      	movs	r1, #0
100019b2:	4b04      	ldr	r3, [pc, #16]	@ (100019c4 <spin_locks_reset+0x14>)
100019b4:	f103 0220 	add.w	r2, r3, #32
100019b8:	e8c3 1f8f 	stlb	r1, [r3]
100019bc:	3301      	adds	r3, #1
100019be:	4293      	cmp	r3, r2
100019c0:	d1fa      	bne.n	100019b8 <spin_locks_reset+0x8>
100019c2:	4770      	bx	lr
100019c4:	20001b34 	.word	0x20001b34

100019c8 <runtime_init_per_core_irq_priorities>:
100019c8:	f04f 23e0 	mov.w	r3, #3758153728	@ 0xe000e000
100019cc:	f04f 3280 	mov.w	r2, #2155905152	@ 0x80808080
100019d0:	f8c3 2400 	str.w	r2, [r3, #1024]	@ 0x400
100019d4:	f8c3 2404 	str.w	r2, [r3, #1028]	@ 0x404
100019d8:	f8c3 2408 	str.w	r2, [r3, #1032]	@ 0x408
100019dc:	f8c3 240c 	str.w	r2, [r3, #1036]	@ 0x40c
100019e0:	f8c3 2410 	str.w	r2, [r3, #1040]	@ 0x410
100019e4:	f8c3 2414 	str.w	r2, [r3, #1044]	@ 0x414
100019e8:	f8c3 2418 	str.w	r2, [r3, #1048]	@ 0x418
100019ec:	f8c3 241c 	str.w	r2, [r3, #1052]	@ 0x41c
100019f0:	f8c3 2420 	str.w	r2, [r3, #1056]	@ 0x420
100019f4:	f8c3 2424 	str.w	r2, [r3, #1060]	@ 0x424
100019f8:	f8c3 2428 	str.w	r2, [r3, #1064]	@ 0x428
100019fc:	f8c3 242c 	str.w	r2, [r3, #1068]	@ 0x42c
10001a00:	f8c3 2430 	str.w	r2, [r3, #1072]	@ 0x430
10001a04:	b662      	cpsie	i
10001a06:	4770      	bx	lr

10001a08 <irq_set_enabled>:
10001a08:	2301      	movs	r3, #1
10001a0a:	f000 021f 	and.w	r2, r0, #31
10001a0e:	4093      	lsls	r3, r2
10001a10:	0940      	lsrs	r0, r0, #5
10001a12:	b141      	cbz	r1, 10001a26 <irq_set_enabled+0x1e>
10001a14:	0080      	lsls	r0, r0, #2
10001a16:	f100 4060 	add.w	r0, r0, #3758096384	@ 0xe0000000
10001a1a:	f500 4061 	add.w	r0, r0, #57600	@ 0xe100
10001a1e:	f8c0 3180 	str.w	r3, [r0, #384]	@ 0x180
10001a22:	6003      	str	r3, [r0, #0]
10001a24:	4770      	bx	lr
10001a26:	4a02      	ldr	r2, [pc, #8]	@ (10001a30 <irq_set_enabled+0x28>)
10001a28:	3020      	adds	r0, #32
10001a2a:	f842 3020 	str.w	r3, [r2, r0, lsl #2]
10001a2e:	4770      	bx	lr
10001a30:	e000e100 	.word	0xe000e100

10001a34 <irq_get_vtable_handler>:
10001a34:	4b02      	ldr	r3, [pc, #8]	@ (10001a40 <irq_get_vtable_handler+0xc>)
10001a36:	3010      	adds	r0, #16
10001a38:	689b      	ldr	r3, [r3, #8]
10001a3a:	f853 0020 	ldr.w	r0, [r3, r0, lsl #2]
10001a3e:	4770      	bx	lr
10001a40:	e000ed00 	.word	0xe000ed00

10001a44 <irq_set_exclusive_handler>:
10001a44:	b5f8      	push	{r3, r4, r5, r6, r7, lr}
10001a46:	460d      	mov	r5, r1
10001a48:	f3ef 8710 	mrs	r7, PRIMASK
10001a4c:	b672      	cpsid	i
10001a4e:	4e12      	ldr	r6, [pc, #72]	@ (10001a98 <irq_set_exclusive_handler+0x54>)
10001a50:	e8d6 2fcf 	ldaexb	r2, [r6]
10001a54:	2301      	movs	r3, #1
10001a56:	2a00      	cmp	r2, #0
10001a58:	d1fa      	bne.n	10001a50 <irq_set_exclusive_handler+0xc>
10001a5a:	e8c6 3f42 	strexb	r2, r3, [r6]
10001a5e:	2a00      	cmp	r2, #0
10001a60:	d1f6      	bne.n	10001a50 <irq_set_exclusive_handler+0xc>
10001a62:	f3bf 8f5f 	dmb	sy
10001a66:	4b0d      	ldr	r3, [pc, #52]	@ (10001a9c <irq_set_exclusive_handler+0x58>)
10001a68:	f100 0410 	add.w	r4, r0, #16
10001a6c:	689b      	ldr	r3, [r3, #8]
10001a6e:	4a0c      	ldr	r2, [pc, #48]	@ (10001aa0 <irq_set_exclusive_handler+0x5c>)
10001a70:	f853 3024 	ldr.w	r3, [r3, r4, lsl #2]
10001a74:	4293      	cmp	r3, r2
10001a76:	d003      	beq.n	10001a80 <irq_set_exclusive_handler+0x3c>
10001a78:	4299      	cmp	r1, r3
10001a7a:	d001      	beq.n	10001a80 <irq_set_exclusive_handler+0x3c>
10001a7c:	f001 f8c6 	bl	10002c0c <hard_assertion_failure>
10001a80:	4b06      	ldr	r3, [pc, #24]	@ (10001a9c <irq_set_exclusive_handler+0x58>)
10001a82:	689b      	ldr	r3, [r3, #8]
10001a84:	f843 5024 	str.w	r5, [r3, r4, lsl #2]
10001a88:	f3bf 8f5f 	dmb	sy
10001a8c:	2300      	movs	r3, #0
10001a8e:	e8c6 3f8f 	stlb	r3, [r6]
10001a92:	f387 8810 	msr	PRIMASK, r7
10001a96:	bdf8      	pop	{r3, r4, r5, r6, r7, pc}
10001a98:	20001b3d 	.word	0x20001b3d
10001a9c:	e000ed00 	.word	0xe000ed00
10001aa0:	10000111 	.word	0x10000111

10001aa4 <irq_add_shared_handler>:
10001aa4:	e92d 4ff0 	stmdb	sp!, {r4, r5, r6, r7, r8, r9, sl, fp, lr}
10001aa8:	4681      	mov	r9, r0
10001aaa:	468b      	mov	fp, r1
10001aac:	4616      	mov	r6, r2
10001aae:	b083      	sub	sp, #12
10001ab0:	f3ef 8310 	mrs	r3, PRIMASK
10001ab4:	b672      	cpsid	i
10001ab6:	f8df a1d0 	ldr.w	sl, [pc, #464]	@ 10001c88 <irq_add_shared_handler+0x1e4>
10001aba:	9300      	str	r3, [sp, #0]
10001abc:	e8da 1fcf 	ldaexb	r1, [sl]
10001ac0:	2301      	movs	r3, #1
10001ac2:	2900      	cmp	r1, #0
10001ac4:	d1fa      	bne.n	10001abc <irq_add_shared_handler+0x18>
10001ac6:	e8ca 3f41 	strexb	r1, r3, [sl]
10001aca:	2900      	cmp	r1, #0
10001acc:	d1f6      	bne.n	10001abc <irq_add_shared_handler+0x18>
10001ace:	f3bf 8f5f 	dmb	sy
10001ad2:	4b66      	ldr	r3, [pc, #408]	@ (10001c6c <irq_add_shared_handler+0x1c8>)
10001ad4:	f993 4000 	ldrsb.w	r4, [r3]
10001ad8:	2c00      	cmp	r4, #0
10001ada:	f2c0 80a0 	blt.w	10001c1e <irq_add_shared_handler+0x17a>
10001ade:	4d64      	ldr	r5, [pc, #400]	@ (10001c70 <irq_add_shared_handler+0x1cc>)
10001ae0:	eb04 0744 	add.w	r7, r4, r4, lsl #1
10001ae4:	eb05 0887 	add.w	r8, r5, r7, lsl #2
10001ae8:	f898 1006 	ldrb.w	r1, [r8, #6]
10001aec:	f109 0910 	add.w	r9, r9, #16
10001af0:	7019      	strb	r1, [r3, #0]
10001af2:	4b60      	ldr	r3, [pc, #384]	@ (10001c74 <irq_add_shared_handler+0x1d0>)
10001af4:	00bf      	lsls	r7, r7, #2
10001af6:	689b      	ldr	r3, [r3, #8]
10001af8:	f853 0029 	ldr.w	r0, [r3, r9, lsl #2]
10001afc:	0063      	lsls	r3, r4, #1
10001afe:	1b41      	subs	r1, r0, r5
10001b00:	292f      	cmp	r1, #47	@ 0x2f
10001b02:	d92f      	bls.n	10001b64 <irq_add_shared_handler+0xc0>
10001b04:	495c      	ldr	r1, [pc, #368]	@ (10001c78 <irq_add_shared_handler+0x1d4>)
10001b06:	4288      	cmp	r0, r1
10001b08:	f040 80a4 	bne.w	10001c54 <irq_add_shared_handler+0x1b0>
10001b0c:	441c      	add	r4, r3
10001b0e:	4b5b      	ldr	r3, [pc, #364]	@ (10001c7c <irq_add_shared_handler+0x1d8>)
10001b10:	3702      	adds	r7, #2
10001b12:	442f      	add	r7, r5
10001b14:	3b04      	subs	r3, #4
10001b16:	1bdb      	subs	r3, r3, r7
10001b18:	f3c3 034a 	ubfx	r3, r3, #1, #11
10001b1c:	ea6f 43c3 	mvn.w	r3, r3, lsl #19
10001b20:	f44f 4121 	mov.w	r1, #41216	@ 0xa100
10001b24:	ea6f 43d3 	mvn.w	r3, r3, lsr #19
10001b28:	f825 1024 	strh.w	r1, [r5, r4, lsl #2]
10001b2c:	eb05 0484 	add.w	r4, r5, r4, lsl #2
10001b30:	8063      	strh	r3, [r4, #2]
10001b32:	f64b 5301 	movw	r3, #48385	@ 0xbd01
10001b36:	80a3      	strh	r3, [r4, #4]
10001b38:	23ff      	movs	r3, #255	@ 0xff
10001b3a:	f048 0001 	orr.w	r0, r8, #1
10001b3e:	71e6      	strb	r6, [r4, #7]
10001b40:	f8c4 b008 	str.w	fp, [r4, #8]
10001b44:	71a3      	strb	r3, [r4, #6]
10001b46:	4b4b      	ldr	r3, [pc, #300]	@ (10001c74 <irq_add_shared_handler+0x1d0>)
10001b48:	689b      	ldr	r3, [r3, #8]
10001b4a:	f843 0029 	str.w	r0, [r3, r9, lsl #2]
10001b4e:	f3bf 8f5f 	dmb	sy
10001b52:	2300      	movs	r3, #0
10001b54:	e8ca 3f8f 	stlb	r3, [sl]
10001b58:	9b00      	ldr	r3, [sp, #0]
10001b5a:	f383 8810 	msr	PRIMASK, r3
10001b5e:	b003      	add	sp, #12
10001b60:	e8bd 8ff0 	ldmia.w	sp!, {r4, r5, r6, r7, r8, r9, sl, fp, pc}
10001b64:	f020 0e01 	bic.w	lr, r0, #1
10001b68:	f89e 1007 	ldrb.w	r1, [lr, #7]
10001b6c:	42b1      	cmp	r1, r6
10001b6e:	d82e      	bhi.n	10001bce <irq_add_shared_handler+0x12a>
10001b70:	f44f 4321 	mov.w	r3, #41216	@ 0xa100
10001b74:	53eb      	strh	r3, [r5, r7]
10001b76:	4b41      	ldr	r3, [pc, #260]	@ (10001c7c <irq_add_shared_handler+0x1d8>)
10001b78:	1cb9      	adds	r1, r7, #2
10001b7a:	4429      	add	r1, r5
10001b7c:	3b04      	subs	r3, #4
10001b7e:	3704      	adds	r7, #4
10001b80:	1a5b      	subs	r3, r3, r1
10001b82:	442f      	add	r7, r5
10001b84:	f1ae 0104 	sub.w	r1, lr, #4
10001b88:	1bc9      	subs	r1, r1, r7
10001b8a:	f3c1 044a 	ubfx	r4, r1, #1, #11
10001b8e:	493c      	ldr	r1, [pc, #240]	@ (10001c80 <irq_add_shared_handler+0x1dc>)
10001b90:	f3c3 034a 	ubfx	r3, r3, #1, #11
10001b94:	430b      	orrs	r3, r1
10001b96:	4321      	orrs	r1, r4
10001b98:	f8a8 1004 	strh.w	r1, [r8, #4]
10001b9c:	4939      	ldr	r1, [pc, #228]	@ (10001c84 <irq_add_shared_handler+0x1e0>)
10001b9e:	f8a8 3002 	strh.w	r3, [r8, #2]
10001ba2:	f64a 20aa 	movw	r0, #43690	@ 0xaaaa
10001ba6:	4673      	mov	r3, lr
10001ba8:	1b5b      	subs	r3, r3, r5
10001baa:	415b      	adcs	r3, r3
10001bac:	4358      	muls	r0, r3
10001bae:	0d00      	lsrs	r0, r0, #20
10001bb0:	f888 6007 	strb.w	r6, [r8, #7]
10001bb4:	f888 0006 	strb.w	r0, [r8, #6]
10001bb8:	f8c8 b008 	str.w	fp, [r8, #8]
10001bbc:	f048 0001 	orr.w	r0, r8, #1
10001bc0:	f8ce 1000 	str.w	r1, [lr]
10001bc4:	e7bf      	b.n	10001b46 <irq_add_shared_handler+0xa2>
10001bc6:	79d1      	ldrb	r1, [r2, #7]
10001bc8:	42b1      	cmp	r1, r6
10001bca:	d92e      	bls.n	10001c2a <irq_add_shared_handler+0x186>
10001bcc:	4696      	mov	lr, r2
10001bce:	f99e c006 	ldrsb.w	ip, [lr, #6]
10001bd2:	eb0c 024c 	add.w	r2, ip, ip, lsl #1
10001bd6:	f1bc 0f00 	cmp.w	ip, #0
10001bda:	eb05 0282 	add.w	r2, r5, r2, lsl #2
10001bde:	daf2      	bge.n	10001bc6 <irq_add_shared_handler+0x122>
10001be0:	f64b 5101 	movw	r1, #48385	@ 0xbd01
10001be4:	f10e 0204 	add.w	r2, lr, #4
10001be8:	f1a8 0704 	sub.w	r7, r8, #4
10001bec:	1abf      	subs	r7, r7, r2
10001bee:	f3c7 074a 	ubfx	r7, r7, #1, #11
10001bf2:	ea6f 47c7 	mvn.w	r7, r7, lsl #19
10001bf6:	ea6f 47d7 	mvn.w	r7, r7, lsr #19
10001bfa:	f88e 4006 	strb.w	r4, [lr, #6]
10001bfe:	eb03 0804 	add.w	r8, r3, r4
10001c02:	4c20      	ldr	r4, [pc, #128]	@ (10001c84 <irq_add_shared_handler+0x1e0>)
10001c04:	eb05 0388 	add.w	r3, r5, r8, lsl #2
10001c08:	f8ae 7004 	strh.w	r7, [lr, #4]
10001c0c:	f845 4028 	str.w	r4, [r5, r8, lsl #2]
10001c10:	8099      	strh	r1, [r3, #4]
10001c12:	f883 c006 	strb.w	ip, [r3, #6]
10001c16:	71de      	strb	r6, [r3, #7]
10001c18:	f8c3 b008 	str.w	fp, [r3, #8]
10001c1c:	e793      	b.n	10001b46 <irq_add_shared_handler+0xa2>
10001c1e:	f000 fff5 	bl	10002c0c <hard_assertion_failure>
10001c22:	4b12      	ldr	r3, [pc, #72]	@ (10001c6c <irq_add_shared_handler+0x1c8>)
10001c24:	f993 4000 	ldrsb.w	r4, [r3]
10001c28:	e759      	b.n	10001ade <irq_add_shared_handler+0x3a>
10001c2a:	4672      	mov	r2, lr
10001c2c:	f832 1f04 	ldrh.w	r1, [r2, #4]!
10001c30:	0549      	lsls	r1, r1, #21
10001c32:	d414      	bmi.n	10001c5e <irq_add_shared_handler+0x1ba>
10001c34:	1549      	asrs	r1, r1, #21
10001c36:	3102      	adds	r1, #2
10001c38:	eb02 0141 	add.w	r1, r2, r1, lsl #1
10001c3c:	9101      	str	r1, [sp, #4]
10001c3e:	f06f 0107 	mvn.w	r1, #7
10001c42:	1bc9      	subs	r1, r1, r7
10001c44:	9f01      	ldr	r7, [sp, #4]
10001c46:	1b49      	subs	r1, r1, r5
10001c48:	4439      	add	r1, r7
10001c4a:	f3c1 014a 	ubfx	r1, r1, #1, #11
10001c4e:	f441 4160 	orr.w	r1, r1, #57344	@ 0xe000
10001c52:	e7c9      	b.n	10001be8 <irq_add_shared_handler+0x144>
10001c54:	9301      	str	r3, [sp, #4]
10001c56:	f000 ffd9 	bl	10002c0c <hard_assertion_failure>
10001c5a:	9b01      	ldr	r3, [sp, #4]
10001c5c:	e756      	b.n	10001b0c <irq_add_shared_handler+0x68>
10001c5e:	f501 11ff 	add.w	r1, r1, #2088960	@ 0x1fe000
10001c62:	f501 51ff 	add.w	r1, r1, #8160	@ 0x1fe0
10001c66:	311f      	adds	r1, #31
10001c68:	e7e4      	b.n	10001c34 <irq_add_shared_handler+0x190>
10001c6a:	bf00      	nop
10001c6c:	200025e3 	.word	0x200025e3
10001c70:	2000104c 	.word	0x2000104c
10001c74:	e000ed00 	.word	0xe000ed00
10001c78:	10000111 	.word	0x10000111
10001c7c:	2000107c 	.word	0x2000107c
10001c80:	ffffe000 	.word	0xffffe000
10001c84:	47804801 	.word	0x47804801
10001c88:	20001b3d 	.word	0x20001b3d

10001c8c <irq_remove_handler>:
10001c8c:	e92d 4ff0 	stmdb	sp!, {r4, r5, r6, r7, r8, r9, sl, fp, lr}
10001c90:	b083      	sub	sp, #12
10001c92:	f3ef 8a10 	mrs	sl, PRIMASK
10001c96:	b672      	cpsid	i
10001c98:	4e71      	ldr	r6, [pc, #452]	@ (10001e60 <irq_remove_handler+0x1d4>)
10001c9a:	e8d6 2fcf 	ldaexb	r2, [r6]
10001c9e:	2301      	movs	r3, #1
10001ca0:	2a00      	cmp	r2, #0
10001ca2:	d1fa      	bne.n	10001c9a <irq_remove_handler+0xe>
10001ca4:	e8c6 3f42 	strexb	r2, r3, [r6]
10001ca8:	2a00      	cmp	r2, #0
10001caa:	d1f6      	bne.n	10001c9a <irq_remove_handler+0xe>
10001cac:	f3bf 8f5f 	dmb	sy
10001cb0:	4b6c      	ldr	r3, [pc, #432]	@ (10001e64 <irq_remove_handler+0x1d8>)
10001cb2:	f100 0810 	add.w	r8, r0, #16
10001cb6:	689b      	ldr	r3, [r3, #8]
10001cb8:	4a6b      	ldr	r2, [pc, #428]	@ (10001e68 <irq_remove_handler+0x1dc>)
10001cba:	f853 5028 	ldr.w	r5, [r3, r8, lsl #2]
10001cbe:	4295      	cmp	r5, r2
10001cc0:	d045      	beq.n	10001d4e <irq_remove_handler+0xc2>
10001cc2:	428d      	cmp	r5, r1
10001cc4:	460c      	mov	r4, r1
10001cc6:	d050      	beq.n	10001d6a <irq_remove_handler+0xde>
10001cc8:	4f68      	ldr	r7, [pc, #416]	@ (10001e6c <irq_remove_handler+0x1e0>)
10001cca:	1beb      	subs	r3, r5, r7
10001ccc:	2b2f      	cmp	r3, #47	@ 0x2f
10001cce:	d83e      	bhi.n	10001d4e <irq_remove_handler+0xc2>
10001cd0:	2101      	movs	r1, #1
10001cd2:	ea4f 1950 	mov.w	r9, r0, lsr #5
10001cd6:	ea4f 0989 	mov.w	r9, r9, lsl #2
10001cda:	f109 4960 	add.w	r9, r9, #3758096384	@ 0xe0000000
10001cde:	f509 4961 	add.w	r9, r9, #57600	@ 0xe100
10001ce2:	f000 031f 	and.w	r3, r0, #31
10001ce6:	fa01 f003 	lsl.w	r0, r1, r3
10001cea:	f8d9 3000 	ldr.w	r3, [r9]
10001cee:	f8c9 0080 	str.w	r0, [r9, #128]	@ 0x80
10001cf2:	ea00 0b03 	and.w	fp, r0, r3
10001cf6:	f3bf 8f5f 	dmb	sy
10001cfa:	f3ef 8105 	mrs	r1, IPSR
10001cfe:	b2c9      	uxtb	r1, r1
10001d00:	2900      	cmp	r1, #0
10001d02:	d034      	beq.n	10001d6e <irq_remove_handler+0xe2>
10001d04:	4588      	cmp	r8, r1
10001d06:	d005      	beq.n	10001d14 <irq_remove_handler+0x88>
10001d08:	e9cd 1000 	strd	r1, r0, [sp]
10001d0c:	f000 ff7e 	bl	10002c0c <hard_assertion_failure>
10001d10:	e9dd 1000 	ldrd	r1, r0, [sp]
10001d14:	f025 0e01 	bic.w	lr, r5, #1
10001d18:	f8de c008 	ldr.w	ip, [lr, #8]
10001d1c:	4564      	cmp	r4, ip
10001d1e:	d105      	bne.n	10001d2c <irq_remove_handler+0xa0>
10001d20:	e089      	b.n	10001e36 <irq_remove_handler+0x1aa>
10001d22:	f8d3 c008 	ldr.w	ip, [r3, #8]
10001d26:	4564      	cmp	r4, ip
10001d28:	d031      	beq.n	10001d8e <irq_remove_handler+0x102>
10001d2a:	469e      	mov	lr, r3
10001d2c:	f99e 2006 	ldrsb.w	r2, [lr, #6]
10001d30:	eb02 0342 	add.w	r3, r2, r2, lsl #1
10001d34:	2a00      	cmp	r2, #0
10001d36:	eb07 0383 	add.w	r3, r7, r3, lsl #2
10001d3a:	daf2      	bge.n	10001d22 <irq_remove_handler+0x96>
10001d3c:	4564      	cmp	r4, ip
10001d3e:	d061      	beq.n	10001e04 <irq_remove_handler+0x178>
10001d40:	f1bb 0f00 	cmp.w	fp, #0
10001d44:	d020      	beq.n	10001d88 <irq_remove_handler+0xfc>
10001d46:	f8c9 0180 	str.w	r0, [r9, #384]	@ 0x180
10001d4a:	f8c9 0000 	str.w	r0, [r9]
10001d4e:	4b45      	ldr	r3, [pc, #276]	@ (10001e64 <irq_remove_handler+0x1d8>)
10001d50:	689b      	ldr	r3, [r3, #8]
10001d52:	f843 5028 	str.w	r5, [r3, r8, lsl #2]
10001d56:	f3bf 8f5f 	dmb	sy
10001d5a:	2300      	movs	r3, #0
10001d5c:	e8c6 3f8f 	stlb	r3, [r6]
10001d60:	f38a 8810 	msr	PRIMASK, sl
10001d64:	b003      	add	sp, #12
10001d66:	e8bd 8ff0 	ldmia.w	sp!, {r4, r5, r6, r7, r8, r9, sl, fp, pc}
10001d6a:	4615      	mov	r5, r2
10001d6c:	e7ef      	b.n	10001d4e <irq_remove_handler+0xc2>
10001d6e:	f025 0e01 	bic.w	lr, r5, #1
10001d72:	f8de c008 	ldr.w	ip, [lr, #8]
10001d76:	4564      	cmp	r4, ip
10001d78:	d1d8      	bne.n	10001d2c <irq_remove_handler+0xa0>
10001d7a:	f99e 4006 	ldrsb.w	r4, [lr, #6]
10001d7e:	4673      	mov	r3, lr
10001d80:	2c00      	cmp	r4, #0
10001d82:	da08      	bge.n	10001d96 <irq_remove_handler+0x10a>
10001d84:	4615      	mov	r5, r2
10001d86:	e046      	b.n	10001e16 <irq_remove_handler+0x18a>
10001d88:	f8c9 0080 	str.w	r0, [r9, #128]	@ 0x80
10001d8c:	e7df      	b.n	10001d4e <irq_remove_handler+0xc2>
10001d8e:	f993 4006 	ldrsb.w	r4, [r3, #6]
10001d92:	2c00      	cmp	r4, #0
10001d94:	db37      	blt.n	10001e06 <irq_remove_handler+0x17a>
10001d96:	eb04 0c44 	add.w	ip, r4, r4, lsl #1
10001d9a:	eb07 0c8c 	add.w	ip, r7, ip, lsl #2
10001d9e:	f89c 1007 	ldrb.w	r1, [ip, #7]
10001da2:	f8dc 2008 	ldr.w	r2, [ip, #8]
10001da6:	71d9      	strb	r1, [r3, #7]
10001da8:	609a      	str	r2, [r3, #8]
10001daa:	f99c 2006 	ldrsb.w	r2, [ip, #6]
10001dae:	0061      	lsls	r1, r4, #1
10001db0:	2a00      	cmp	r2, #0
10001db2:	719a      	strb	r2, [r3, #6]
10001db4:	db3d      	blt.n	10001e32 <irq_remove_handler+0x1a6>
10001db6:	f8bc e004 	ldrh.w	lr, [ip, #4]
10001dba:	ea5f 5e4e 	movs.w	lr, lr, lsl #21
10001dbe:	d505      	bpl.n	10001dcc <irq_remove_handler+0x140>
10001dc0:	f50e 1eff 	add.w	lr, lr, #2088960	@ 0x1fe000
10001dc4:	f50e 5eff 	add.w	lr, lr, #8160	@ 0x1fe0
10001dc8:	f10e 0e1f 	add.w	lr, lr, #31
10001dcc:	f06f 0c07 	mvn.w	ip, #7
10001dd0:	190a      	adds	r2, r1, r4
10001dd2:	ea4f 5e6e 	mov.w	lr, lr, asr #21
10001dd6:	0092      	lsls	r2, r2, #2
10001dd8:	eb02 024e 	add.w	r2, r2, lr, lsl #1
10001ddc:	3208      	adds	r2, #8
10001dde:	443a      	add	r2, r7
10001de0:	ebac 0c03 	sub.w	ip, ip, r3
10001de4:	4462      	add	r2, ip
10001de6:	f3c2 024a 	ubfx	r2, r2, #1, #11
10001dea:	ea6f 42c2 	mvn.w	r2, r2, lsl #19
10001dee:	ea6f 42d2 	mvn.w	r2, r2, lsr #19
10001df2:	809a      	strh	r2, [r3, #4]
10001df4:	4b1e      	ldr	r3, [pc, #120]	@ (10001e70 <irq_remove_handler+0x1e4>)
10001df6:	4421      	add	r1, r4
10001df8:	781a      	ldrb	r2, [r3, #0]
10001dfa:	eb07 0181 	add.w	r1, r7, r1, lsl #2
10001dfe:	701c      	strb	r4, [r3, #0]
10001e00:	718a      	strb	r2, [r1, #6]
10001e02:	e79d      	b.n	10001d40 <irq_remove_handler+0xb4>
10001e04:	4673      	mov	r3, lr
10001e06:	b9d9      	cbnz	r1, 10001e40 <irq_remove_handler+0x1b4>
10001e08:	22ff      	movs	r2, #255	@ 0xff
10001e0a:	f88e 2006 	strb.w	r2, [lr, #6]
10001e0e:	f64b 5201 	movw	r2, #48385	@ 0xbd01
10001e12:	f8ae 2004 	strh.w	r2, [lr, #4]
10001e16:	4c16      	ldr	r4, [pc, #88]	@ (10001e70 <irq_remove_handler+0x1e4>)
10001e18:	f64a 22aa 	movw	r2, #43690	@ 0xaaaa
10001e1c:	f894 c000 	ldrb.w	ip, [r4]
10001e20:	4619      	mov	r1, r3
10001e22:	1bc9      	subs	r1, r1, r7
10001e24:	4149      	adcs	r1, r1
10001e26:	434a      	muls	r2, r1
10001e28:	0d12      	lsrs	r2, r2, #20
10001e2a:	f883 c006 	strb.w	ip, [r3, #6]
10001e2e:	7022      	strb	r2, [r4, #0]
10001e30:	e786      	b.n	10001d40 <irq_remove_handler+0xb4>
10001e32:	4a10      	ldr	r2, [pc, #64]	@ (10001e74 <irq_remove_handler+0x1e8>)
10001e34:	e7dd      	b.n	10001df2 <irq_remove_handler+0x166>
10001e36:	f99e 4006 	ldrsb.w	r4, [lr, #6]
10001e3a:	4673      	mov	r3, lr
10001e3c:	2c00      	cmp	r4, #0
10001e3e:	daaa      	bge.n	10001d96 <irq_remove_handler+0x10a>
10001e40:	4a0d      	ldr	r2, [pc, #52]	@ (10001e78 <irq_remove_handler+0x1ec>)
10001e42:	4c0e      	ldr	r4, [pc, #56]	@ (10001e7c <irq_remove_handler+0x1f0>)
10001e44:	1ad2      	subs	r2, r2, r3
10001e46:	3a08      	subs	r2, #8
10001e48:	f3c2 310a 	ubfx	r1, r2, #12, #11
10001e4c:	ea6f 5101 	mvn.w	r1, r1, lsl #20
10001e50:	ea6f 5111 	mvn.w	r1, r1, lsr #20
10001e54:	ea44 0252 	orr.w	r2, r4, r2, lsr #1
10001e58:	80da      	strh	r2, [r3, #6]
10001e5a:	8099      	strh	r1, [r3, #4]
10001e5c:	e770      	b.n	10001d40 <irq_remove_handler+0xb4>
10001e5e:	bf00      	nop
10001e60:	20001b3d 	.word	0x20001b3d
10001e64:	e000ed00 	.word	0xe000ed00
10001e68:	10000111 	.word	0x10000111
10001e6c:	2000104c 	.word	0x2000104c
10001e70:	200025e3 	.word	0x200025e3
10001e74:	ffffbd01 	.word	0xffffbd01
10001e78:	20001086 	.word	0x20001086
10001e7c:	fffff800 	.word	0xfffff800

10001e80 <irq_add_tail_to_free_list>:
10001e80:	b5f0      	push	{r4, r5, r6, r7, lr}
10001e82:	f3ef 8505 	mrs	r5, IPSR
10001e86:	b2ed      	uxtb	r5, r5
10001e88:	f3ef 8c10 	mrs	ip, PRIMASK
10001e8c:	b672      	cpsid	i
10001e8e:	4926      	ldr	r1, [pc, #152]	@ (10001f28 <irq_add_tail_to_free_list+0xa8>)
10001e90:	e8d1 2fcf 	ldaexb	r2, [r1]
10001e94:	2301      	movs	r3, #1
10001e96:	2a00      	cmp	r2, #0
10001e98:	d1fa      	bne.n	10001e90 <irq_add_tail_to_free_list+0x10>
10001e9a:	e8c1 3f42 	strexb	r2, r3, [r1]
10001e9e:	2a00      	cmp	r2, #0
10001ea0:	d1f6      	bne.n	10001e90 <irq_add_tail_to_free_list+0x10>
10001ea2:	f3bf 8f5f 	dmb	sy
10001ea6:	4e21      	ldr	r6, [pc, #132]	@ (10001f2c <irq_add_tail_to_free_list+0xac>)
10001ea8:	f040 0e01 	orr.w	lr, r0, #1
10001eac:	68b4      	ldr	r4, [r6, #8]
10001eae:	f64a 23aa 	movw	r3, #43690	@ 0xaaaa
10001eb2:	f854 7025 	ldr.w	r7, [r4, r5, lsl #2]
10001eb6:	4a1e      	ldr	r2, [pc, #120]	@ (10001f30 <irq_add_tail_to_free_list+0xb0>)
10001eb8:	4604      	mov	r4, r0
10001eba:	1aa4      	subs	r4, r4, r2
10001ebc:	4164      	adcs	r4, r4
10001ebe:	4363      	muls	r3, r4
10001ec0:	0d1b      	lsrs	r3, r3, #20
10001ec2:	4577      	cmp	r7, lr
10001ec4:	b25b      	sxtb	r3, r3
10001ec6:	d01b      	beq.n	10001f00 <irq_add_tail_to_free_list+0x80>
10001ec8:	f992 4006 	ldrsb.w	r4, [r2, #6]
10001ecc:	429c      	cmp	r4, r3
10001ece:	d01c      	beq.n	10001f0a <irq_add_tail_to_free_list+0x8a>
10001ed0:	f992 4012 	ldrsb.w	r4, [r2, #18]
10001ed4:	429c      	cmp	r4, r3
10001ed6:	d023      	beq.n	10001f20 <irq_add_tail_to_free_list+0xa0>
10001ed8:	f992 401e 	ldrsb.w	r4, [r2, #30]
10001edc:	429c      	cmp	r4, r3
10001ede:	d021      	beq.n	10001f24 <irq_add_tail_to_free_list+0xa4>
10001ee0:	f992 402a 	ldrsb.w	r4, [r2, #42]	@ 0x2a
10001ee4:	429c      	cmp	r4, r3
10001ee6:	bf08      	it	eq
10001ee8:	2403      	moveq	r4, #3
10001eea:	d00f      	beq.n	10001f0c <irq_add_tail_to_free_list+0x8c>
10001eec:	4a11      	ldr	r2, [pc, #68]	@ (10001f34 <irq_add_tail_to_free_list+0xb4>)
10001eee:	2400      	movs	r4, #0
10001ef0:	7815      	ldrb	r5, [r2, #0]
10001ef2:	7013      	strb	r3, [r2, #0]
10001ef4:	7185      	strb	r5, [r0, #6]
10001ef6:	e8c1 4f8f 	stlb	r4, [r1]
10001efa:	f38c 8810 	msr	PRIMASK, ip
10001efe:	bdf0      	pop	{r4, r5, r6, r7, pc}
10001f00:	68b2      	ldr	r2, [r6, #8]
10001f02:	4c0d      	ldr	r4, [pc, #52]	@ (10001f38 <irq_add_tail_to_free_list+0xb8>)
10001f04:	f842 4025 	str.w	r4, [r2, r5, lsl #2]
10001f08:	e7f0      	b.n	10001eec <irq_add_tail_to_free_list+0x6c>
10001f0a:	2400      	movs	r4, #0
10001f0c:	eb04 0444 	add.w	r4, r4, r4, lsl #1
10001f10:	eb02 0284 	add.w	r2, r2, r4, lsl #2
10001f14:	24ff      	movs	r4, #255	@ 0xff
10001f16:	7194      	strb	r4, [r2, #6]
10001f18:	f64b 5401 	movw	r4, #48385	@ 0xbd01
10001f1c:	8094      	strh	r4, [r2, #4]
10001f1e:	e7e5      	b.n	10001eec <irq_add_tail_to_free_list+0x6c>
10001f20:	2401      	movs	r4, #1
10001f22:	e7f3      	b.n	10001f0c <irq_add_tail_to_free_list+0x8c>
10001f24:	2402      	movs	r4, #2
10001f26:	e7f1      	b.n	10001f0c <irq_add_tail_to_free_list+0x8c>
10001f28:	20001b3d 	.word	0x20001b3d
10001f2c:	e000ed00 	.word	0xe000ed00
10001f30:	2000104c 	.word	0x2000104c
10001f34:	200025e3 	.word	0x200025e3
10001f38:	10000111 	.word	0x10000111

10001f3c <lock_init>:
10001f3c:	4b01      	ldr	r3, [pc, #4]	@ (10001f44 <lock_init+0x8>)
10001f3e:	440b      	add	r3, r1
10001f40:	6003      	str	r3, [r0, #0]
10001f42:	4770      	bx	lr
10001f44:	20001b34 	.word	0x20001b34

10001f48 <runtime_init_mutex>:
10001f48:	b570      	push	{r4, r5, r6, lr}
10001f4a:	4c10      	ldr	r4, [pc, #64]	@ (10001f8c <runtime_init_mutex+0x44>)
10001f4c:	4d10      	ldr	r5, [pc, #64]	@ (10001f90 <runtime_init_mutex+0x48>)
10001f4e:	42ac      	cmp	r4, r5
10001f50:	d20e      	bcs.n	10001f70 <runtime_init_mutex+0x28>
10001f52:	26ff      	movs	r6, #255	@ 0xff
10001f54:	6823      	ldr	r3, [r4, #0]
10001f56:	b163      	cbz	r3, 10001f72 <runtime_init_mutex+0x2a>
10001f58:	f7ff fd06 	bl	10001968 <next_striped_spin_lock_num>
10001f5c:	4601      	mov	r1, r0
10001f5e:	4620      	mov	r0, r4
10001f60:	f7ff ffec 	bl	10001f3c <lock_init>
10001f64:	80a6      	strh	r6, [r4, #4]
10001f66:	f3bf 8f5f 	dmb	sy
10001f6a:	3408      	adds	r4, #8
10001f6c:	42ac      	cmp	r4, r5
10001f6e:	d3f1      	bcc.n	10001f54 <runtime_init_mutex+0xc>
10001f70:	bd70      	pop	{r4, r5, r6, pc}
10001f72:	f7ff fcf9 	bl	10001968 <next_striped_spin_lock_num>
10001f76:	4601      	mov	r1, r0
10001f78:	4620      	mov	r0, r4
10001f7a:	f7ff ffdf 	bl	10001f3c <lock_init>
10001f7e:	7126      	strb	r6, [r4, #4]
10001f80:	f3bf 8f5f 	dmb	sy
10001f84:	3408      	adds	r4, #8
10001f86:	42ac      	cmp	r4, r5
10001f88:	d3e4      	bcc.n	10001f54 <runtime_init_mutex+0xc>
10001f8a:	bd70      	pop	{r4, r5, r6, pc}
10001f8c:	200010d0 	.word	0x200010d0
10001f90:	200010d8 	.word	0x200010d8

10001f94 <mutex_init>:
10001f94:	b510      	push	{r4, lr}
10001f96:	4604      	mov	r4, r0
10001f98:	f7ff fce6 	bl	10001968 <next_striped_spin_lock_num>
10001f9c:	4601      	mov	r1, r0
10001f9e:	4620      	mov	r0, r4
10001fa0:	f7ff ffcc 	bl	10001f3c <lock_init>
10001fa4:	23ff      	movs	r3, #255	@ 0xff
10001fa6:	7123      	strb	r3, [r4, #4]
10001fa8:	f3bf 8f5f 	dmb	sy
10001fac:	bd10      	pop	{r4, pc}
10001fae:	bf00      	nop

10001fb0 <critical_section_init>:
10001fb0:	b510      	push	{r4, lr}
10001fb2:	4604      	mov	r4, r0
10001fb4:	2001      	movs	r0, #1
10001fb6:	f7ff fce3 	bl	10001980 <spin_lock_claim_unused>
10001fba:	4b03      	ldr	r3, [pc, #12]	@ (10001fc8 <critical_section_init+0x18>)
10001fbc:	4403      	add	r3, r0
10001fbe:	6023      	str	r3, [r4, #0]
10001fc0:	f3bf 8f5f 	dmb	sy
10001fc4:	bd10      	pop	{r4, pc}
10001fc6:	bf00      	nop
10001fc8:	20001b34 	.word	0x20001b34

10001fcc <sleep_until_callback>:
10001fcc:	4b0d      	ldr	r3, [pc, #52]	@ (10002004 <sleep_until_callback+0x38>)
10001fce:	681a      	ldr	r2, [r3, #0]
10001fd0:	f3ef 8110 	mrs	r1, PRIMASK
10001fd4:	b672      	cpsid	i
10001fd6:	e8d2 cfcf 	ldaexb	ip, [r2]
10001fda:	2001      	movs	r0, #1
10001fdc:	f1bc 0f00 	cmp.w	ip, #0
10001fe0:	d1f9      	bne.n	10001fd6 <sleep_until_callback+0xa>
10001fe2:	e8c2 0f4c 	strexb	ip, r0, [r2]
10001fe6:	f1bc 0f00 	cmp.w	ip, #0
10001fea:	d1f4      	bne.n	10001fd6 <sleep_until_callback+0xa>
10001fec:	f3bf 8f5f 	dmb	sy
10001ff0:	2200      	movs	r2, #0
10001ff2:	681b      	ldr	r3, [r3, #0]
10001ff4:	e8c3 2f8f 	stlb	r2, [r3]
10001ff8:	f381 8810 	msr	PRIMASK, r1
10001ffc:	bf40      	sev
10001ffe:	2000      	movs	r0, #0
10002000:	2100      	movs	r1, #0
10002002:	4770      	bx	lr
10002004:	200025b4 	.word	0x200025b4

10002008 <alarm_pool_irq_handler>:
10002008:	e92d 4ff0 	stmdb	sp!, {r4, r5, r6, r7, r8, r9, sl, fp, lr}
1000200c:	ed2d 8b02 	vpush	{d8}
10002010:	b085      	sub	sp, #20
10002012:	f3ef 8305 	mrs	r3, IPSR
10002016:	b2db      	uxtb	r3, r3
10002018:	3b10      	subs	r3, #16
1000201a:	089a      	lsrs	r2, r3, #2
1000201c:	bf18      	it	ne
1000201e:	2201      	movne	r2, #1
10002020:	f04f 0101 	mov.w	r1, #1
10002024:	f003 0b03 	and.w	fp, r3, #3
10002028:	bf18      	it	ne
1000202a:	4daf      	ldrne	r5, [pc, #700]	@ (100022e8 <alarm_pool_irq_handler+0x2e0>)
1000202c:	4baf      	ldr	r3, [pc, #700]	@ (100022ec <alarm_pool_irq_handler+0x2e4>)
1000202e:	bf08      	it	eq
10002030:	4daf      	ldreq	r5, [pc, #700]	@ (100022f0 <alarm_pool_irq_handler+0x2e8>)
10002032:	eb0b 0282 	add.w	r2, fp, r2, lsl #2
10002036:	f853 6022 	ldr.w	r6, [r3, r2, lsl #2]
1000203a:	fa01 f20b 	lsl.w	r2, r1, fp
1000203e:	f505 5341 	add.w	r3, r5, #12352	@ 0x3040
10002042:	ed9f 8ba7 	vldr	d8, [pc, #668]	@ 100022e0 <alarm_pool_irq_handler+0x2d8>
10002046:	9201      	str	r2, [sp, #4]
10002048:	605a      	str	r2, [r3, #4]
1000204a:	e02f      	b.n	100020ac <alarm_pool_irq_handler+0xa4>
1000204c:	88b3      	ldrh	r3, [r6, #4]
1000204e:	041c      	lsls	r4, r3, #16
10002050:	f140 8093 	bpl.w	1000217a <alarm_pool_irq_handler+0x172>
10002054:	79b3      	ldrb	r3, [r6, #6]
10002056:	2b00      	cmp	r3, #0
10002058:	f040 80dd 	bne.w	10002216 <alarm_pool_irq_handler+0x20e>
1000205c:	f9b6 2008 	ldrsh.w	r2, [r6, #8]
10002060:	2a00      	cmp	r2, #0
10002062:	f2c0 811e 	blt.w	100022a2 <alarm_pool_irq_handler+0x29a>
10002066:	6973      	ldr	r3, [r6, #20]
10002068:	eb02 0242 	add.w	r2, r2, r2, lsl #1
1000206c:	eb03 03c2 	add.w	r3, r3, r2, lsl #3
10002070:	e9d3 4702 	ldrd	r4, r7, [r3, #8]
10002074:	f1b7 3fff 	cmp.w	r7, #4294967295	@ 0xffffffff
10002078:	bf08      	it	eq
1000207a:	f1b4 3fff 	cmpeq.w	r4, #4294967295	@ 0xffffffff
1000207e:	d00e      	beq.n	1000209e <alarm_pool_irq_handler+0x96>
10002080:	eb05 018b 	add.w	r1, r5, fp, lsl #2
10002084:	6aab      	ldr	r3, [r5, #40]	@ 0x28
10002086:	690a      	ldr	r2, [r1, #16]
10002088:	1ad2      	subs	r2, r2, r3
1000208a:	1ae3      	subs	r3, r4, r3
1000208c:	4293      	cmp	r3, r2
1000208e:	d305      	bcc.n	1000209c <alarm_pool_irq_handler+0x94>
10002090:	2301      	movs	r3, #1
10002092:	6a2a      	ldr	r2, [r5, #32]
10002094:	fa03 f30b 	lsl.w	r3, r3, fp
10002098:	4213      	tst	r3, r2
1000209a:	d100      	bne.n	1000209e <alarm_pool_irq_handler+0x96>
1000209c:	610c      	str	r4, [r1, #16]
1000209e:	4628      	mov	r0, r5
100020a0:	f000 fba4 	bl	100027ec <timer_time_us_64>
100020a4:	42a0      	cmp	r0, r4
100020a6:	41b9      	sbcs	r1, r7
100020a8:	f2c0 80fb 	blt.w	100022a2 <alarm_pool_irq_handler+0x29a>
100020ac:	f9b6 3008 	ldrsh.w	r3, [r6, #8]
100020b0:	9a01      	ldr	r2, [sp, #4]
100020b2:	2b00      	cmp	r3, #0
100020b4:	9300      	str	r3, [sp, #0]
100020b6:	63ea      	str	r2, [r5, #60]	@ 0x3c
100020b8:	dbc8      	blt.n	1000204c <alarm_pool_irq_handler+0x44>
100020ba:	f8d6 8014 	ldr.w	r8, [r6, #20]
100020be:	eb03 0943 	add.w	r9, r3, r3, lsl #1
100020c2:	4628      	mov	r0, r5
100020c4:	eb08 07c9 	add.w	r7, r8, r9, lsl #3
100020c8:	e9d7 4a02 	ldrd	r4, sl, [r7, #8]
100020cc:	f000 fb8e 	bl	100027ec <timer_time_us_64>
100020d0:	42a0      	cmp	r0, r4
100020d2:	eb71 010a 	sbcs.w	r1, r1, sl
100020d6:	dbb9      	blt.n	1000204c <alarm_pool_irq_handler+0x44>
100020d8:	f1ba 0f00 	cmp.w	sl, #0
100020dc:	f2c0 80c3 	blt.w	10002266 <alarm_pool_irq_handler+0x25e>
100020e0:	e9d7 3104 	ldrd	r3, r1, [r7, #16]
100020e4:	4a83      	ldr	r2, [pc, #524]	@ (100022f4 <alarm_pool_irq_handler+0x2ec>)
100020e6:	4293      	cmp	r3, r2
100020e8:	f000 80ed 	beq.w	100022c6 <alarm_pool_irq_handler+0x2be>
100020ec:	887a      	ldrh	r2, [r7, #2]
100020ee:	f9b6 0008 	ldrsh.w	r0, [r6, #8]
100020f2:	b292      	uxth	r2, r2
100020f4:	ea42 4000 	orr.w	r0, r2, r0, lsl #16
100020f8:	4798      	blx	r3
100020fa:	4602      	mov	r2, r0
100020fc:	460b      	mov	r3, r1
100020fe:	ea52 0103 	orrs.w	r1, r2, r3
10002102:	f000 80b0 	beq.w	10002266 <alarm_pool_irq_handler+0x25e>
10002106:	2b00      	cmp	r3, #0
10002108:	f280 80d1 	bge.w	100022ae <alarm_pool_irq_handler+0x2a6>
1000210c:	ebb4 0e02 	subs.w	lr, r4, r2
10002110:	eb6a 0a03 	sbc.w	sl, sl, r3
10002114:	f938 3039 	ldrsh.w	r3, [r8, r9, lsl #3]
10002118:	e9c7 ea02 	strd	lr, sl, [r7, #8]
1000211c:	2b00      	cmp	r3, #0
1000211e:	db95      	blt.n	1000204c <alarm_pool_irq_handler+0x44>
10002120:	6971      	ldr	r1, [r6, #20]
10002122:	eb03 0243 	add.w	r2, r3, r3, lsl #1
10002126:	eb01 02c2 	add.w	r2, r1, r2, lsl #3
1000212a:	e9d2 7002 	ldrd	r7, r0, [r2, #8]
1000212e:	45be      	cmp	lr, r7
10002130:	eb7a 0c00 	sbcs.w	ip, sl, r0
10002134:	ea4f 0243 	mov.w	r2, r3, lsl #1
10002138:	db88      	blt.n	1000204c <alarm_pool_irq_handler+0x44>
1000213a:	46b4      	mov	ip, r6
1000213c:	f82c 3f08 	strh.w	r3, [ip, #8]!
10002140:	e006      	b.n	10002150 <alarm_pool_irq_handler+0x148>
10002142:	eb03 0043 	add.w	r0, r3, r3, lsl #1
10002146:	eb01 00c0 	add.w	r0, r1, r0, lsl #3
1000214a:	005a      	lsls	r2, r3, #1
1000214c:	e9d0 7002 	ldrd	r7, r0, [r0, #8]
10002150:	45be      	cmp	lr, r7
10002152:	441a      	add	r2, r3
10002154:	eb7a 0000 	sbcs.w	r0, sl, r0
10002158:	eb01 04c2 	add.w	r4, r1, r2, lsl #3
1000215c:	db04      	blt.n	10002168 <alarm_pool_irq_handler+0x160>
1000215e:	f931 3032 	ldrsh.w	r3, [r1, r2, lsl #3]
10002162:	46a4      	mov	ip, r4
10002164:	2b00      	cmp	r3, #0
10002166:	daec      	bge.n	10002142 <alarm_pool_irq_handler+0x13a>
10002168:	f828 3039 	strh.w	r3, [r8, r9, lsl #3]
1000216c:	9b00      	ldr	r3, [sp, #0]
1000216e:	f8ac 3000 	strh.w	r3, [ip]
10002172:	88b3      	ldrh	r3, [r6, #4]
10002174:	041c      	lsls	r4, r3, #16
10002176:	f53f af6d 	bmi.w	10002054 <alarm_pool_irq_handler+0x4c>
1000217a:	6933      	ldr	r3, [r6, #16]
1000217c:	f3ef 8210 	mrs	r2, PRIMASK
10002180:	b672      	cpsid	i
10002182:	e8d3 0fcf 	ldaexb	r0, [r3]
10002186:	2101      	movs	r1, #1
10002188:	2800      	cmp	r0, #0
1000218a:	d1fa      	bne.n	10002182 <alarm_pool_irq_handler+0x17a>
1000218c:	e8c3 1f40 	strexb	r0, r1, [r3]
10002190:	2800      	cmp	r0, #0
10002192:	d1f6      	bne.n	10002182 <alarm_pool_irq_handler+0x17a>
10002194:	f3bf 8f5f 	dmb	sy
10002198:	f64f 74ff 	movw	r4, #65535	@ 0xffff
1000219c:	88b0      	ldrh	r0, [r6, #4]
1000219e:	2300      	movs	r3, #0
100021a0:	6931      	ldr	r1, [r6, #16]
100021a2:	b200      	sxth	r0, r0
100021a4:	80b4      	strh	r4, [r6, #4]
100021a6:	e8c1 3f8f 	stlb	r3, [r1]
100021aa:	f382 8810 	msr	PRIMASK, r2
100021ae:	4298      	cmp	r0, r3
100021b0:	f6ff af50 	blt.w	10002054 <alarm_pool_irq_handler+0x4c>
100021b4:	4607      	mov	r7, r0
100021b6:	46a9      	mov	r9, r5
100021b8:	6974      	ldr	r4, [r6, #20]
100021ba:	f106 0808 	add.w	r8, r6, #8
100021be:	eb07 0e47 	add.w	lr, r7, r7, lsl #1
100021c2:	eb04 03ce 	add.w	r3, r4, lr, lsl #3
100021c6:	e9d3 5002 	ldrd	r5, r0, [r3, #8]
100021ca:	f9b6 3008 	ldrsh.w	r3, [r6, #8]
100021ce:	46c4      	mov	ip, r8
100021d0:	2b00      	cmp	r3, #0
100021d2:	db13      	blt.n	100021fc <alarm_pool_irq_handler+0x1f4>
100021d4:	46b2      	mov	sl, r6
100021d6:	9700      	str	r7, [sp, #0]
100021d8:	e004      	b.n	100021e4 <alarm_pool_irq_handler+0x1dc>
100021da:	f934 3036 	ldrsh.w	r3, [r4, r6, lsl #3]
100021de:	4694      	mov	ip, r2
100021e0:	2b00      	cmp	r3, #0
100021e2:	db09      	blt.n	100021f8 <alarm_pool_irq_handler+0x1f0>
100021e4:	eb03 0643 	add.w	r6, r3, r3, lsl #1
100021e8:	eb04 02c6 	add.w	r2, r4, r6, lsl #3
100021ec:	e9d2 7102 	ldrd	r7, r1, [r2, #8]
100021f0:	42bd      	cmp	r5, r7
100021f2:	eb70 0101 	sbcs.w	r1, r0, r1
100021f6:	daf0      	bge.n	100021da <alarm_pool_irq_handler+0x1d2>
100021f8:	4656      	mov	r6, sl
100021fa:	9f00      	ldr	r7, [sp, #0]
100021fc:	f8ac 7000 	strh.w	r7, [ip]
10002200:	f934 703e 	ldrsh.w	r7, [r4, lr, lsl #3]
10002204:	f824 303e 	strh.w	r3, [r4, lr, lsl #3]
10002208:	2f00      	cmp	r7, #0
1000220a:	dad8      	bge.n	100021be <alarm_pool_irq_handler+0x1b6>
1000220c:	79b3      	ldrb	r3, [r6, #6]
1000220e:	464d      	mov	r5, r9
10002210:	2b00      	cmp	r3, #0
10002212:	f43f af23 	beq.w	1000205c <alarm_pool_irq_handler+0x54>
10002216:	2300      	movs	r3, #0
10002218:	71b3      	strb	r3, [r6, #6]
1000221a:	f9b6 3008 	ldrsh.w	r3, [r6, #8]
1000221e:	f106 0808 	add.w	r8, r6, #8
10002222:	1c58      	adds	r0, r3, #1
10002224:	d03d      	beq.n	100022a2 <alarm_pool_irq_handler+0x29a>
10002226:	461a      	mov	r2, r3
10002228:	6977      	ldr	r7, [r6, #20]
1000222a:	e003      	b.n	10002234 <alarm_pool_irq_handler+0x22c>
1000222c:	4680      	mov	r8, r0
1000222e:	1c59      	adds	r1, r3, #1
10002230:	f43f af16 	beq.w	10002060 <alarm_pool_irq_handler+0x58>
10002234:	eb03 0143 	add.w	r1, r3, r3, lsl #1
10002238:	eb07 00c1 	add.w	r0, r7, r1, lsl #3
1000223c:	f8b0 c002 	ldrh.w	ip, [r0, #2]
10002240:	461c      	mov	r4, r3
10002242:	f41c 4f00 	tst.w	ip, #32768	@ 0x8000
10002246:	469e      	mov	lr, r3
10002248:	f937 3031 	ldrsh.w	r3, [r7, r1, lsl #3]
1000224c:	d0ee      	beq.n	1000222c <alarm_pool_irq_handler+0x224>
1000224e:	4294      	cmp	r4, r2
10002250:	ed80 8b02 	vstr	d8, [r0, #8]
10002254:	d005      	beq.n	10002262 <alarm_pool_irq_handler+0x25a>
10002256:	f8a8 3000 	strh.w	r3, [r8]
1000225a:	8932      	ldrh	r2, [r6, #8]
1000225c:	f827 2031 	strh.w	r2, [r7, r1, lsl #3]
10002260:	8134      	strh	r4, [r6, #8]
10002262:	4672      	mov	r2, lr
10002264:	e7e3      	b.n	1000222e <alarm_pool_irq_handler+0x226>
10002266:	f838 3039 	ldrh.w	r3, [r8, r9, lsl #3]
1000226a:	8133      	strh	r3, [r6, #8]
1000226c:	6933      	ldr	r3, [r6, #16]
1000226e:	f3ef 8210 	mrs	r2, PRIMASK
10002272:	b672      	cpsid	i
10002274:	e8d3 0fcf 	ldaexb	r0, [r3]
10002278:	2101      	movs	r1, #1
1000227a:	2800      	cmp	r0, #0
1000227c:	d1fa      	bne.n	10002274 <alarm_pool_irq_handler+0x26c>
1000227e:	e8c3 1f40 	strexb	r0, r1, [r3]
10002282:	2800      	cmp	r0, #0
10002284:	d1f6      	bne.n	10002274 <alarm_pool_irq_handler+0x26c>
10002286:	f3bf 8f5f 	dmb	sy
1000228a:	8873      	ldrh	r3, [r6, #2]
1000228c:	6931      	ldr	r1, [r6, #16]
1000228e:	f828 3039 	strh.w	r3, [r8, r9, lsl #3]
10002292:	9b00      	ldr	r3, [sp, #0]
10002294:	8073      	strh	r3, [r6, #2]
10002296:	2300      	movs	r3, #0
10002298:	e8c1 3f8f 	stlb	r3, [r1]
1000229c:	f382 8810 	msr	PRIMASK, r2
100022a0:	e6d4      	b.n	1000204c <alarm_pool_irq_handler+0x44>
100022a2:	bf40      	sev
100022a4:	b005      	add	sp, #20
100022a6:	ecbd 8b02 	vpop	{d8}
100022aa:	e8bd 8ff0 	ldmia.w	sp!, {r4, r5, r6, r7, r8, r9, sl, fp, pc}
100022ae:	4628      	mov	r0, r5
100022b0:	e9cd 2302 	strd	r2, r3, [sp, #8]
100022b4:	f000 fa9a 	bl	100027ec <timer_time_us_64>
100022b8:	9a02      	ldr	r2, [sp, #8]
100022ba:	9b03      	ldr	r3, [sp, #12]
100022bc:	eb10 0e02 	adds.w	lr, r0, r2
100022c0:	eb43 0a01 	adc.w	sl, r3, r1
100022c4:	e726      	b.n	10002114 <alarm_pool_irq_handler+0x10c>
100022c6:	4608      	mov	r0, r1
100022c8:	690b      	ldr	r3, [r1, #16]
100022ca:	9102      	str	r1, [sp, #8]
100022cc:	4798      	blx	r3
100022ce:	2800      	cmp	r0, #0
100022d0:	d0c9      	beq.n	10002266 <alarm_pool_irq_handler+0x25e>
100022d2:	9902      	ldr	r1, [sp, #8]
100022d4:	e9d1 2300 	ldrd	r2, r3, [r1]
100022d8:	e711      	b.n	100020fe <alarm_pool_irq_handler+0xf6>
100022da:	bf00      	nop
100022dc:	f3af 8000 	nop.w
100022e0:	ffffffff 	.word	0xffffffff
100022e4:	ffffffff 	.word	0xffffffff
100022e8:	400b8000 	.word	0x400b8000
100022ec:	2000231c 	.word	0x2000231c
100022f0:	400b0000 	.word	0x400b0000
100022f4:	10002009 	.word	0x10002009

100022f8 <runtime_init_default_alarm_pool>:
100022f8:	e92d 4ff8 	stmdb	sp!, {r3, r4, r5, r6, r7, r8, r9, sl, fp, lr}
100022fc:	4c36      	ldr	r4, [pc, #216]	@ (100023d8 <runtime_init_default_alarm_pool+0xe0>)
100022fe:	6925      	ldr	r5, [r4, #16]
10002300:	b12d      	cbz	r5, 1000230e <runtime_init_default_alarm_pool+0x16>
10002302:	e8bd 4ff8 	ldmia.w	sp!, {r3, r4, r5, r6, r7, r8, r9, sl, fp, lr}
10002306:	210a      	movs	r1, #10
10002308:	4834      	ldr	r0, [pc, #208]	@ (100023dc <runtime_init_default_alarm_pool+0xe4>)
1000230a:	f7ff be17 	b.w	10001f3c <lock_init>
1000230e:	f8df 80e4 	ldr.w	r8, [pc, #228]	@ 100023f4 <runtime_init_default_alarm_pool+0xfc>
10002312:	2103      	movs	r1, #3
10002314:	4640      	mov	r0, r8
10002316:	f000 fa4d 	bl	100027b4 <timer_hardware_alarm_claim>
1000231a:	2603      	movs	r6, #3
1000231c:	f8c4 800c 	str.w	r8, [r4, #12]
10002320:	f7ff fb22 	bl	10001968 <next_striped_spin_lock_num>
10002324:	f04f 4c50 	mov.w	ip, #3489660928	@ 0xd0000000
10002328:	4b2d      	ldr	r3, [pc, #180]	@ (100023e0 <runtime_init_default_alarm_pool+0xe8>)
1000232a:	7026      	strb	r6, [r4, #0]
1000232c:	4403      	add	r3, r0
1000232e:	6123      	str	r3, [r4, #16]
10002330:	f8dc 3000 	ldr.w	r3, [ip]
10002334:	210f      	movs	r1, #15
10002336:	7063      	strb	r3, [r4, #1]
10002338:	6963      	ldr	r3, [r4, #20]
1000233a:	8061      	strh	r1, [r4, #2]
1000233c:	831d      	strh	r5, [r3, #24]
1000233e:	f04f 0504 	mov.w	r5, #4
10002342:	f8a3 5078 	strh.w	r5, [r3, #120]	@ 0x78
10002346:	f04f 0505 	mov.w	r5, #5
1000234a:	f8a3 5090 	strh.w	r5, [r3, #144]	@ 0x90
1000234e:	f04f 0506 	mov.w	r5, #6
10002352:	f8a3 50a8 	strh.w	r5, [r3, #168]	@ 0xa8
10002356:	f04f 0507 	mov.w	r5, #7
1000235a:	210e      	movs	r1, #14
1000235c:	f64f 72ff 	movw	r2, #65535	@ 0xffff
10002360:	2708      	movs	r7, #8
10002362:	f04f 0e0a 	mov.w	lr, #10
10002366:	f8a3 50c0 	strh.w	r5, [r3, #192]	@ 0xc0
1000236a:	f04f 0901 	mov.w	r9, #1
1000236e:	f04f 0c0c 	mov.w	ip, #12
10002372:	f04f 0b02 	mov.w	fp, #2
10002376:	f04f 0a09 	mov.w	sl, #9
1000237a:	200d      	movs	r0, #13
1000237c:	f04f 050b 	mov.w	r5, #11
10002380:	f8a3 1168 	strh.w	r1, [r3, #360]	@ 0x168
10002384:	4917      	ldr	r1, [pc, #92]	@ (100023e4 <runtime_init_default_alarm_pool+0xec>)
10002386:	80a2      	strh	r2, [r4, #4]
10002388:	f8a3 e108 	strh.w	lr, [r3, #264]	@ 0x108
1000238c:	60a1      	str	r1, [r4, #8]
1000238e:	f8a3 b048 	strh.w	fp, [r3, #72]	@ 0x48
10002392:	f8a3 a0f0 	strh.w	sl, [r3, #240]	@ 0xf0
10002396:	f8a3 5120 	strh.w	r5, [r3, #288]	@ 0x120
1000239a:	f8a3 c138 	strh.w	ip, [r3, #312]	@ 0x138
1000239e:	f8a3 0150 	strh.w	r0, [r3, #336]	@ 0x150
100023a2:	f8a3 9030 	strh.w	r9, [r3, #48]	@ 0x30
100023a6:	f8a3 6060 	strh.w	r6, [r3, #96]	@ 0x60
100023aa:	f8a3 70d8 	strh.w	r7, [r3, #216]	@ 0xd8
100023ae:	801a      	strh	r2, [r3, #0]
100023b0:	4b0d      	ldr	r3, [pc, #52]	@ (100023e8 <runtime_init_default_alarm_pool+0xf0>)
100023b2:	4630      	mov	r0, r6
100023b4:	f8c8 7020 	str.w	r7, [r8, #32]
100023b8:	490c      	ldr	r1, [pc, #48]	@ (100023ec <runtime_init_default_alarm_pool+0xf4>)
100023ba:	60dc      	str	r4, [r3, #12]
100023bc:	f7ff fb42 	bl	10001a44 <irq_set_exclusive_handler>
100023c0:	4649      	mov	r1, r9
100023c2:	4630      	mov	r0, r6
100023c4:	f7ff fb20 	bl	10001a08 <irq_set_enabled>
100023c8:	4b09      	ldr	r3, [pc, #36]	@ (100023f0 <runtime_init_default_alarm_pool+0xf8>)
100023ca:	210a      	movs	r1, #10
100023cc:	641f      	str	r7, [r3, #64]	@ 0x40
100023ce:	4803      	ldr	r0, [pc, #12]	@ (100023dc <runtime_init_default_alarm_pool+0xe4>)
100023d0:	e8bd 4ff8 	ldmia.w	sp!, {r3, r4, r5, r6, r7, r8, r9, sl, fp, lr}
100023d4:	f7ff bdb2 	b.w	10001f3c <lock_init>
100023d8:	20001094 	.word	0x20001094
100023dc:	200025b4 	.word	0x200025b4
100023e0:	20001b34 	.word	0x20001b34
100023e4:	0010ffff 	.word	0x0010ffff
100023e8:	2000231c 	.word	0x2000231c
100023ec:	10002009 	.word	0x10002009
100023f0:	400b2000 	.word	0x400b2000
100023f4:	400b0000 	.word	0x400b0000

100023f8 <alarm_pool_add_alarm_at_force_in_context>:
100023f8:	4601      	mov	r1, r0
100023fa:	b5f0      	push	{r4, r5, r6, r7, lr}
100023fc:	6900      	ldr	r0, [r0, #16]
100023fe:	f3ef 8710 	mrs	r7, PRIMASK
10002402:	b672      	cpsid	i
10002404:	e8d0 5fcf 	ldaexb	r5, [r0]
10002408:	2401      	movs	r4, #1
1000240a:	2d00      	cmp	r5, #0
1000240c:	d1fa      	bne.n	10002404 <alarm_pool_add_alarm_at_force_in_context+0xc>
1000240e:	e8c0 4f45 	strexb	r5, r4, [r0]
10002412:	2d00      	cmp	r5, #0
10002414:	d1f6      	bne.n	10002404 <alarm_pool_add_alarm_at_force_in_context+0xc>
10002416:	f3bf 8f5f 	dmb	sy
1000241a:	f9b1 e002 	ldrsh.w	lr, [r1, #2]
1000241e:	694c      	ldr	r4, [r1, #20]
10002420:	eb0e 0c4e 	add.w	ip, lr, lr, lsl #1
10002424:	f1be 0f00 	cmp.w	lr, #0
10002428:	ea4f 05cc 	mov.w	r5, ip, lsl #3
1000242c:	6908      	ldr	r0, [r1, #16]
1000242e:	eb04 0ccc 	add.w	ip, r4, ip, lsl #3
10002432:	db3c      	blt.n	100024ae <alarm_pool_add_alarm_at_force_in_context+0xb6>
10002434:	5b66      	ldrh	r6, [r4, r5]
10002436:	804e      	strh	r6, [r1, #2]
10002438:	2600      	movs	r6, #0
1000243a:	e8c0 6f8f 	stlb	r6, [r0]
1000243e:	f387 8810 	msr	PRIMASK, r7
10002442:	f8bc 0002 	ldrh.w	r0, [ip, #2]
10002446:	e9cc 2302 	strd	r2, r3, [ip, #8]
1000244a:	3001      	adds	r0, #1
1000244c:	f3c0 000e 	ubfx	r0, r0, #0, #15
10002450:	2801      	cmp	r0, #1
10002452:	bf38      	it	cc
10002454:	2001      	movcc	r0, #1
10002456:	9b05      	ldr	r3, [sp, #20]
10002458:	f8ac 0002 	strh.w	r0, [ip, #2]
1000245c:	f8cc 3010 	str.w	r3, [ip, #16]
10002460:	9b06      	ldr	r3, [sp, #24]
10002462:	ea40 400e 	orr.w	r0, r0, lr, lsl #16
10002466:	f8cc 3014 	str.w	r3, [ip, #20]
1000246a:	690b      	ldr	r3, [r1, #16]
1000246c:	f3ef 8210 	mrs	r2, PRIMASK
10002470:	b672      	cpsid	i
10002472:	e8d3 cfcf 	ldaexb	ip, [r3]
10002476:	2701      	movs	r7, #1
10002478:	f1bc 0f00 	cmp.w	ip, #0
1000247c:	d1f9      	bne.n	10002472 <alarm_pool_add_alarm_at_force_in_context+0x7a>
1000247e:	e8c3 7f4c 	strexb	ip, r7, [r3]
10002482:	f1bc 0f00 	cmp.w	ip, #0
10002486:	d1f4      	bne.n	10002472 <alarm_pool_add_alarm_at_force_in_context+0x7a>
10002488:	f3bf 8f5f 	dmb	sy
1000248c:	888b      	ldrh	r3, [r1, #4]
1000248e:	5363      	strh	r3, [r4, r5]
10002490:	f8a1 e004 	strh.w	lr, [r1, #4]
10002494:	690b      	ldr	r3, [r1, #16]
10002496:	e8c3 6f8f 	stlb	r6, [r3]
1000249a:	f382 8810 	msr	PRIMASK, r2
1000249e:	2201      	movs	r2, #1
100024a0:	68cb      	ldr	r3, [r1, #12]
100024a2:	7809      	ldrb	r1, [r1, #0]
100024a4:	f503 5301 	add.w	r3, r3, #8256	@ 0x2040
100024a8:	408a      	lsls	r2, r1
100024aa:	605a      	str	r2, [r3, #4]
100024ac:	bdf0      	pop	{r4, r5, r6, r7, pc}
100024ae:	2300      	movs	r3, #0
100024b0:	e8c0 3f8f 	stlb	r3, [r0]
100024b4:	f387 8810 	msr	PRIMASK, r7
100024b8:	f04f 30ff 	mov.w	r0, #4294967295	@ 0xffffffff
100024bc:	bdf0      	pop	{r4, r5, r6, r7, pc}
100024be:	bf00      	nop

100024c0 <alarm_pool_cancel_alarm>:
100024c0:	4603      	mov	r3, r0
100024c2:	8940      	ldrh	r0, [r0, #10]
100024c4:	ebb0 4f21 	cmp.w	r0, r1, asr #16
100024c8:	dd37      	ble.n	1000253a <alarm_pool_cancel_alarm+0x7a>
100024ca:	6958      	ldr	r0, [r3, #20]
100024cc:	140a      	asrs	r2, r1, #16
100024ce:	eb02 0242 	add.w	r2, r2, r2, lsl #1
100024d2:	b510      	push	{r4, lr}
100024d4:	eb00 00c2 	add.w	r0, r0, r2, lsl #3
100024d8:	691c      	ldr	r4, [r3, #16]
100024da:	f3ef 8c10 	mrs	ip, PRIMASK
100024de:	b672      	cpsid	i
100024e0:	e8d4 efcf 	ldaexb	lr, [r4]
100024e4:	2201      	movs	r2, #1
100024e6:	f1be 0f00 	cmp.w	lr, #0
100024ea:	d1f9      	bne.n	100024e0 <alarm_pool_cancel_alarm+0x20>
100024ec:	e8c4 2f4e 	strexb	lr, r2, [r4]
100024f0:	f1be 0f00 	cmp.w	lr, #0
100024f4:	d1f4      	bne.n	100024e0 <alarm_pool_cancel_alarm+0x20>
100024f6:	f3bf 8f5f 	dmb	sy
100024fa:	8842      	ldrh	r2, [r0, #2]
100024fc:	b289      	uxth	r1, r1
100024fe:	b292      	uxth	r2, r2
10002500:	428a      	cmp	r2, r1
10002502:	d007      	beq.n	10002514 <alarm_pool_cancel_alarm+0x54>
10002504:	2200      	movs	r2, #0
10002506:	691b      	ldr	r3, [r3, #16]
10002508:	e8c3 2f8f 	stlb	r2, [r3]
1000250c:	f38c 8810 	msr	PRIMASK, ip
10002510:	2000      	movs	r0, #0
10002512:	bd10      	pop	{r4, pc}
10002514:	f442 4200 	orr.w	r2, r2, #32768	@ 0x8000
10002518:	8042      	strh	r2, [r0, #2]
1000251a:	2101      	movs	r1, #1
1000251c:	2200      	movs	r2, #0
1000251e:	6918      	ldr	r0, [r3, #16]
10002520:	7199      	strb	r1, [r3, #6]
10002522:	e8c0 2f8f 	stlb	r2, [r0]
10002526:	f38c 8810 	msr	PRIMASK, ip
1000252a:	781c      	ldrb	r4, [r3, #0]
1000252c:	68da      	ldr	r2, [r3, #12]
1000252e:	4608      	mov	r0, r1
10002530:	f502 5301 	add.w	r3, r2, #8256	@ 0x2040
10002534:	40a1      	lsls	r1, r4
10002536:	6059      	str	r1, [r3, #4]
10002538:	bd10      	pop	{r4, pc}
1000253a:	2000      	movs	r0, #0
1000253c:	4770      	bx	lr
1000253e:	bf00      	nop

10002540 <sleep_ms>:
10002540:	e92d 41f0 	stmdb	sp!, {r4, r5, r6, r7, r8, lr}
10002544:	b082      	sub	sp, #8
10002546:	4606      	mov	r6, r0
10002548:	f000 f958 	bl	100027fc <time_us_64>
1000254c:	f44f 737a 	mov.w	r3, #1000	@ 0x3e8
10002550:	4604      	mov	r4, r0
10002552:	f04f 30ff 	mov.w	r0, #4294967295	@ 0xffffffff
10002556:	f06f 4200 	mvn.w	r2, #2147483648	@ 0x80000000
1000255a:	fbe6 4103 	umlal	r4, r1, r6, r3
1000255e:	42a0      	cmp	r0, r4
10002560:	eb72 0301 	sbcs.w	r3, r2, r1
10002564:	bf3a      	itte	cc
10002566:	4604      	movcc	r4, r0
10002568:	4615      	movcc	r5, r2
1000256a:	460d      	movcs	r5, r1
1000256c:	1fa6      	subs	r6, r4, #6
1000256e:	f145 37ff 	adc.w	r7, r5, #4294967295	@ 0xffffffff
10002572:	42b4      	cmp	r4, r6
10002574:	eb75 0307 	sbcs.w	r3, r5, r7
10002578:	bf3c      	itt	cc
1000257a:	2600      	movcc	r6, #0
1000257c:	4637      	movcc	r7, r6
1000257e:	f000 f93d 	bl	100027fc <time_us_64>
10002582:	1a30      	subs	r0, r6, r0
10002584:	eb67 0101 	sbc.w	r1, r7, r1
10002588:	2801      	cmp	r0, #1
1000258a:	f171 0100 	sbcs.w	r1, r1, #0
1000258e:	da06      	bge.n	1000259e <sleep_ms+0x5e>
10002590:	4620      	mov	r0, r4
10002592:	4629      	mov	r1, r5
10002594:	b002      	add	sp, #8
10002596:	e8bd 41f0 	ldmia.w	sp!, {r4, r5, r6, r7, r8, lr}
1000259a:	f000 b939 	b.w	10002810 <busy_wait_until>
1000259e:	f000 f92d 	bl	100027fc <time_us_64>
100025a2:	4286      	cmp	r6, r0
100025a4:	eb67 0101 	sbc.w	r1, r7, r1
100025a8:	2900      	cmp	r1, #0
100025aa:	db0a      	blt.n	100025c2 <sleep_ms+0x82>
100025ac:	2100      	movs	r1, #0
100025ae:	4b17      	ldr	r3, [pc, #92]	@ (1000260c <sleep_ms+0xcc>)
100025b0:	4632      	mov	r2, r6
100025b2:	9300      	str	r3, [sp, #0]
100025b4:	4816      	ldr	r0, [pc, #88]	@ (10002610 <sleep_ms+0xd0>)
100025b6:	463b      	mov	r3, r7
100025b8:	9101      	str	r1, [sp, #4]
100025ba:	f7ff ff1d 	bl	100023f8 <alarm_pool_add_alarm_at_force_in_context>
100025be:	3001      	adds	r0, #1
100025c0:	d0e6      	beq.n	10002590 <sleep_ms+0x50>
100025c2:	f04f 0c00 	mov.w	ip, #0
100025c6:	4a13      	ldr	r2, [pc, #76]	@ (10002614 <sleep_ms+0xd4>)
100025c8:	4913      	ldr	r1, [pc, #76]	@ (10002618 <sleep_ms+0xd8>)
100025ca:	6a53      	ldr	r3, [r2, #36]	@ 0x24
100025cc:	429f      	cmp	r7, r3
100025ce:	d804      	bhi.n	100025da <sleep_ms+0x9a>
100025d0:	6a90      	ldr	r0, [r2, #40]	@ 0x28
100025d2:	42b0      	cmp	r0, r6
100025d4:	d2dc      	bcs.n	10002590 <sleep_ms+0x50>
100025d6:	429f      	cmp	r7, r3
100025d8:	d1da      	bne.n	10002590 <sleep_ms+0x50>
100025da:	680b      	ldr	r3, [r1, #0]
100025dc:	f3ef 8010 	mrs	r0, PRIMASK
100025e0:	b672      	cpsid	i
100025e2:	e8d3 8fcf 	ldaexb	r8, [r3]
100025e6:	f05f 0e01 	movs.w	lr, #1
100025ea:	f1b8 0f00 	cmp.w	r8, #0
100025ee:	d1f8      	bne.n	100025e2 <sleep_ms+0xa2>
100025f0:	e8c3 ef48 	strexb	r8, lr, [r3]
100025f4:	f1b8 0f00 	cmp.w	r8, #0
100025f8:	d1f3      	bne.n	100025e2 <sleep_ms+0xa2>
100025fa:	f3bf 8f5f 	dmb	sy
100025fe:	680b      	ldr	r3, [r1, #0]
10002600:	e8c3 cf8f 	stlb	ip, [r3]
10002604:	f380 8810 	msr	PRIMASK, r0
10002608:	bf20      	wfe
1000260a:	e7de      	b.n	100025ca <sleep_ms+0x8a>
1000260c:	10001fcd 	.word	0x10001fcd
10002610:	20001094 	.word	0x20001094
10002614:	400b0000 	.word	0x400b0000
10002618:	200025b4 	.word	0x200025b4

1000261c <best_effort_wfe_or_timeout>:
1000261c:	e92d 43f0 	stmdb	sp!, {r4, r5, r6, r7, r8, r9, lr}
10002620:	4606      	mov	r6, r0
10002622:	460d      	mov	r5, r1
10002624:	b083      	sub	sp, #12
10002626:	f3ef 8405 	mrs	r4, IPSR
1000262a:	b2e4      	uxtb	r4, r4
1000262c:	b13c      	cbz	r4, 1000263e <best_effort_wfe_or_timeout+0x22>
1000262e:	4b2d      	ldr	r3, [pc, #180]	@ (100026e4 <best_effort_wfe_or_timeout+0xc8>)
10002630:	6a5a      	ldr	r2, [r3, #36]	@ 0x24
10002632:	42aa      	cmp	r2, r5
10002634:	d21c      	bcs.n	10002670 <best_effort_wfe_or_timeout+0x54>
10002636:	2000      	movs	r0, #0
10002638:	b003      	add	sp, #12
1000263a:	e8bd 83f0 	ldmia.w	sp!, {r4, r5, r6, r7, r8, r9, pc}
1000263e:	4f2a      	ldr	r7, [pc, #168]	@ (100026e8 <best_effort_wfe_or_timeout+0xcc>)
10002640:	f8d7 900c 	ldr.w	r9, [r7, #12]
10002644:	f897 8000 	ldrb.w	r8, [r7]
10002648:	4648      	mov	r0, r9
1000264a:	f000 f8cf 	bl	100027ec <timer_time_us_64>
1000264e:	f108 0804 	add.w	r8, r8, #4
10002652:	f859 3028 	ldr.w	r3, [r9, r8, lsl #2]
10002656:	1a1b      	subs	r3, r3, r0
10002658:	1a30      	subs	r0, r6, r0
1000265a:	eb65 0101 	sbc.w	r1, r5, r1
1000265e:	4298      	cmp	r0, r3
10002660:	f171 0100 	sbcs.w	r1, r1, #0
10002664:	db10      	blt.n	10002688 <best_effort_wfe_or_timeout+0x6c>
10002666:	bf20      	wfe
10002668:	4b1e      	ldr	r3, [pc, #120]	@ (100026e4 <best_effort_wfe_or_timeout+0xc8>)
1000266a:	6a5a      	ldr	r2, [r3, #36]	@ 0x24
1000266c:	42aa      	cmp	r2, r5
1000266e:	d3e2      	bcc.n	10002636 <best_effort_wfe_or_timeout+0x1a>
10002670:	bf14      	ite	ne
10002672:	2401      	movne	r4, #1
10002674:	2400      	moveq	r4, #0
10002676:	6a9b      	ldr	r3, [r3, #40]	@ 0x28
10002678:	42b3      	cmp	r3, r6
1000267a:	bf34      	ite	cc
1000267c:	4620      	movcc	r0, r4
1000267e:	f044 0001 	orrcs.w	r0, r4, #1
10002682:	b003      	add	sp, #12
10002684:	e8bd 83f0 	ldmia.w	sp!, {r4, r5, r6, r7, r8, r9, pc}
10002688:	f000 f8b8 	bl	100027fc <time_us_64>
1000268c:	4286      	cmp	r6, r0
1000268e:	eb65 0101 	sbc.w	r1, r5, r1
10002692:	2900      	cmp	r1, #0
10002694:	db14      	blt.n	100026c0 <best_effort_wfe_or_timeout+0xa4>
10002696:	4b15      	ldr	r3, [pc, #84]	@ (100026ec <best_effort_wfe_or_timeout+0xd0>)
10002698:	4638      	mov	r0, r7
1000269a:	e9cd 3400 	strd	r3, r4, [sp]
1000269e:	4632      	mov	r2, r6
100026a0:	462b      	mov	r3, r5
100026a2:	f7ff fea9 	bl	100023f8 <alarm_pool_add_alarm_at_force_in_context>
100026a6:	1e01      	subs	r1, r0, #0
100026a8:	dd0a      	ble.n	100026c0 <best_effort_wfe_or_timeout+0xa4>
100026aa:	4b0e      	ldr	r3, [pc, #56]	@ (100026e4 <best_effort_wfe_or_timeout+0xc8>)
100026ac:	6a5a      	ldr	r2, [r3, #36]	@ 0x24
100026ae:	42aa      	cmp	r2, r5
100026b0:	d316      	bcc.n	100026e0 <best_effort_wfe_or_timeout+0xc4>
100026b2:	6a9b      	ldr	r3, [r3, #40]	@ 0x28
100026b4:	42b3      	cmp	r3, r6
100026b6:	d311      	bcc.n	100026dc <best_effort_wfe_or_timeout+0xc0>
100026b8:	480b      	ldr	r0, [pc, #44]	@ (100026e8 <best_effort_wfe_or_timeout+0xcc>)
100026ba:	f7ff ff01 	bl	100024c0 <alarm_pool_cancel_alarm>
100026be:	e7b6      	b.n	1000262e <best_effort_wfe_or_timeout+0x12>
100026c0:	4b08      	ldr	r3, [pc, #32]	@ (100026e4 <best_effort_wfe_or_timeout+0xc8>)
100026c2:	6a5c      	ldr	r4, [r3, #36]	@ 0x24
100026c4:	42ac      	cmp	r4, r5
100026c6:	d3b6      	bcc.n	10002636 <best_effort_wfe_or_timeout+0x1a>
100026c8:	1b64      	subs	r4, r4, r5
100026ca:	bf18      	it	ne
100026cc:	2401      	movne	r4, #1
100026ce:	6a9b      	ldr	r3, [r3, #40]	@ 0x28
100026d0:	42b3      	cmp	r3, r6
100026d2:	bf34      	ite	cc
100026d4:	4620      	movcc	r0, r4
100026d6:	f044 0001 	orrcs.w	r0, r4, #1
100026da:	e7ad      	b.n	10002638 <best_effort_wfe_or_timeout+0x1c>
100026dc:	42aa      	cmp	r2, r5
100026de:	d1eb      	bne.n	100026b8 <best_effort_wfe_or_timeout+0x9c>
100026e0:	bf20      	wfe
100026e2:	e7e9      	b.n	100026b8 <best_effort_wfe_or_timeout+0x9c>
100026e4:	400b0000 	.word	0x400b0000
100026e8:	20001094 	.word	0x20001094
100026ec:	10001fcd 	.word	0x10001fcd

100026f0 <hardware_alarm_irq_handler>:
100026f0:	e92d 41f0 	stmdb	sp!, {r4, r5, r6, r7, r8, lr}
100026f4:	f3ef 8005 	mrs	r0, IPSR
100026f8:	b2c0      	uxtb	r0, r0
100026fa:	f1a0 0310 	sub.w	r3, r0, #16
100026fe:	ea5f 0c93 	movs.w	ip, r3, lsr #2
10002702:	bf14      	ite	ne
10002704:	4c25      	ldrne	r4, [pc, #148]	@ (1000279c <hardware_alarm_irq_handler+0xac>)
10002706:	4c26      	ldreq	r4, [pc, #152]	@ (100027a0 <hardware_alarm_irq_handler+0xb0>)
10002708:	f000 0003 	and.w	r0, r0, #3
1000270c:	f3ef 8710 	mrs	r7, PRIMASK
10002710:	b672      	cpsid	i
10002712:	4d24      	ldr	r5, [pc, #144]	@ (100027a4 <hardware_alarm_irq_handler+0xb4>)
10002714:	e8d5 2fcf 	ldaexb	r2, [r5]
10002718:	2301      	movs	r3, #1
1000271a:	2a00      	cmp	r2, #0
1000271c:	d1fa      	bne.n	10002714 <hardware_alarm_irq_handler+0x24>
1000271e:	e8c5 3f42 	strexb	r2, r3, [r5]
10002722:	2a00      	cmp	r2, #0
10002724:	d1f6      	bne.n	10002714 <hardware_alarm_irq_handler+0x24>
10002726:	f3bf 8f5f 	dmb	sy
1000272a:	2301      	movs	r3, #1
1000272c:	4e1e      	ldr	r6, [pc, #120]	@ (100027a8 <hardware_alarm_irq_handler+0xb8>)
1000272e:	4083      	lsls	r3, r0
10002730:	f816 e00c 	ldrb.w	lr, [r6, ip]
10002734:	f504 5141 	add.w	r1, r4, #12352	@ 0x3040
10002738:	fa2e f200 	lsr.w	r2, lr, r0
1000273c:	f012 0201 	ands.w	r2, r2, #1
10002740:	63e3      	str	r3, [r4, #60]	@ 0x3c
10002742:	604b      	str	r3, [r1, #4]
10002744:	d018      	beq.n	10002778 <hardware_alarm_irq_handler+0x88>
10002746:	4919      	ldr	r1, [pc, #100]	@ (100027ac <hardware_alarm_irq_handler+0xbc>)
10002748:	eb00 028c 	add.w	r2, r0, ip, lsl #2
1000274c:	f851 1022 	ldr.w	r1, [r1, r2, lsl #2]
10002750:	f8d4 8024 	ldr.w	r8, [r4, #36]	@ 0x24
10002754:	4588      	cmp	r8, r1
10002756:	d315      	bcc.n	10002784 <hardware_alarm_irq_handler+0x94>
10002758:	ea2e 0303 	bic.w	r3, lr, r3
1000275c:	f806 300c 	strb.w	r3, [r6, ip]
10002760:	4b13      	ldr	r3, [pc, #76]	@ (100027b0 <hardware_alarm_irq_handler+0xc0>)
10002762:	2100      	movs	r1, #0
10002764:	f853 3022 	ldr.w	r3, [r3, r2, lsl #2]
10002768:	e8c5 1f8f 	stlb	r1, [r5]
1000276c:	f387 8810 	msr	PRIMASK, r7
10002770:	b133      	cbz	r3, 10002780 <hardware_alarm_irq_handler+0x90>
10002772:	e8bd 41f0 	ldmia.w	sp!, {r4, r5, r6, r7, r8, lr}
10002776:	4718      	bx	r3
10002778:	e8c5 2f8f 	stlb	r2, [r5]
1000277c:	f387 8810 	msr	PRIMASK, r7
10002780:	e8bd 81f0 	ldmia.w	sp!, {r4, r5, r6, r7, r8, pc}
10002784:	eb04 0380 	add.w	r3, r4, r0, lsl #2
10002788:	6919      	ldr	r1, [r3, #16]
1000278a:	2200      	movs	r2, #0
1000278c:	6119      	str	r1, [r3, #16]
1000278e:	e8c5 2f8f 	stlb	r2, [r5]
10002792:	f387 8810 	msr	PRIMASK, r7
10002796:	e8bd 81f0 	ldmia.w	sp!, {r4, r5, r6, r7, r8, pc}
1000279a:	bf00      	nop
1000279c:	400b8000 	.word	0x400b8000
100027a0:	400b0000 	.word	0x400b0000
100027a4:	20001b3e 	.word	0x20001b3e
100027a8:	200025d8 	.word	0x200025d8
100027ac:	200025b8 	.word	0x200025b8
100027b0:	20001c7c 	.word	0x20001c7c

100027b4 <timer_hardware_alarm_claim>:
100027b4:	b410      	push	{r4}
100027b6:	4b05      	ldr	r3, [pc, #20]	@ (100027cc <timer_hardware_alarm_claim+0x18>)
100027b8:	4c05      	ldr	r4, [pc, #20]	@ (100027d0 <timer_hardware_alarm_claim+0x1c>)
100027ba:	4a06      	ldr	r2, [pc, #24]	@ (100027d4 <timer_hardware_alarm_claim+0x20>)
100027bc:	42a0      	cmp	r0, r4
100027be:	bf14      	ite	ne
100027c0:	4618      	movne	r0, r3
100027c2:	1c58      	addeq	r0, r3, #1
100027c4:	f85d 4b04 	ldr.w	r4, [sp], #4
100027c8:	f7ff b862 	b.w	10001890 <hw_claim_or_assert>
100027cc:	20001dac 	.word	0x20001dac
100027d0:	400b8000 	.word	0x400b8000
100027d4:	100052cc 	.word	0x100052cc

100027d8 <hardware_alarm_claim>:
100027d8:	4601      	mov	r1, r0
100027da:	4a02      	ldr	r2, [pc, #8]	@ (100027e4 <hardware_alarm_claim+0xc>)
100027dc:	4802      	ldr	r0, [pc, #8]	@ (100027e8 <hardware_alarm_claim+0x10>)
100027de:	f7ff b857 	b.w	10001890 <hw_claim_or_assert>
100027e2:	bf00      	nop
100027e4:	100052cc 	.word	0x100052cc
100027e8:	20001dac 	.word	0x20001dac

100027ec <timer_time_us_64>:
100027ec:	4603      	mov	r3, r0
100027ee:	6a41      	ldr	r1, [r0, #36]	@ 0x24
100027f0:	460a      	mov	r2, r1
100027f2:	6a98      	ldr	r0, [r3, #40]	@ 0x28
100027f4:	6a59      	ldr	r1, [r3, #36]	@ 0x24
100027f6:	428a      	cmp	r2, r1
100027f8:	d1fa      	bne.n	100027f0 <timer_time_us_64+0x4>
100027fa:	4770      	bx	lr

100027fc <time_us_64>:
100027fc:	4b03      	ldr	r3, [pc, #12]	@ (1000280c <time_us_64+0x10>)
100027fe:	6a59      	ldr	r1, [r3, #36]	@ 0x24
10002800:	460a      	mov	r2, r1
10002802:	6a98      	ldr	r0, [r3, #40]	@ 0x28
10002804:	6a59      	ldr	r1, [r3, #36]	@ 0x24
10002806:	4291      	cmp	r1, r2
10002808:	d1fa      	bne.n	10002800 <time_us_64+0x4>
1000280a:	4770      	bx	lr
1000280c:	400b0000 	.word	0x400b0000

10002810 <busy_wait_until>:
10002810:	4a07      	ldr	r2, [pc, #28]	@ (10002830 <busy_wait_until+0x20>)
10002812:	6a53      	ldr	r3, [r2, #36]	@ 0x24
10002814:	4299      	cmp	r1, r3
10002816:	d8fc      	bhi.n	10002812 <busy_wait_until+0x2>
10002818:	4299      	cmp	r1, r3
1000281a:	d107      	bne.n	1000282c <busy_wait_until+0x1c>
1000281c:	4b04      	ldr	r3, [pc, #16]	@ (10002830 <busy_wait_until+0x20>)
1000281e:	e002      	b.n	10002826 <busy_wait_until+0x16>
10002820:	6a5a      	ldr	r2, [r3, #36]	@ 0x24
10002822:	4291      	cmp	r1, r2
10002824:	d102      	bne.n	1000282c <busy_wait_until+0x1c>
10002826:	6a9a      	ldr	r2, [r3, #40]	@ 0x28
10002828:	4290      	cmp	r0, r2
1000282a:	d8f9      	bhi.n	10002820 <busy_wait_until+0x10>
1000282c:	4770      	bx	lr
1000282e:	bf00      	nop
10002830:	400b0000 	.word	0x400b0000

10002834 <hardware_alarm_set_callback>:
10002834:	b5f8      	push	{r3, r4, r5, r6, r7, lr}
10002836:	4604      	mov	r4, r0
10002838:	460d      	mov	r5, r1
1000283a:	f3ef 8710 	mrs	r7, PRIMASK
1000283e:	b672      	cpsid	i
10002840:	4e1d      	ldr	r6, [pc, #116]	@ (100028b8 <hardware_alarm_set_callback+0x84>)
10002842:	e8d6 2fcf 	ldaexb	r2, [r6]
10002846:	2301      	movs	r3, #1
10002848:	2a00      	cmp	r2, #0
1000284a:	d1fa      	bne.n	10002842 <hardware_alarm_set_callback+0xe>
1000284c:	e8c6 3f42 	strexb	r2, r3, [r6]
10002850:	2a00      	cmp	r2, #0
10002852:	d1f6      	bne.n	10002842 <hardware_alarm_set_callback+0xe>
10002854:	f3bf 8f5f 	dmb	sy
10002858:	b1c1      	cbz	r1, 1000288c <hardware_alarm_set_callback+0x58>
1000285a:	f7ff f8eb 	bl	10001a34 <irq_get_vtable_handler>
1000285e:	4917      	ldr	r1, [pc, #92]	@ (100028bc <hardware_alarm_set_callback+0x88>)
10002860:	4281      	cmp	r1, r0
10002862:	d00a      	beq.n	1000287a <hardware_alarm_set_callback+0x46>
10002864:	4620      	mov	r0, r4
10002866:	f7ff f8ed 	bl	10001a44 <irq_set_exclusive_handler>
1000286a:	2101      	movs	r1, #1
1000286c:	4620      	mov	r0, r4
1000286e:	f7ff f8cb 	bl	10001a08 <irq_set_enabled>
10002872:	2301      	movs	r3, #1
10002874:	4a12      	ldr	r2, [pc, #72]	@ (100028c0 <hardware_alarm_set_callback+0x8c>)
10002876:	40a3      	lsls	r3, r4
10002878:	6413      	str	r3, [r2, #64]	@ 0x40
1000287a:	4b12      	ldr	r3, [pc, #72]	@ (100028c4 <hardware_alarm_set_callback+0x90>)
1000287c:	f843 5024 	str.w	r5, [r3, r4, lsl #2]
10002880:	2300      	movs	r3, #0
10002882:	e8c6 3f8f 	stlb	r3, [r6]
10002886:	f387 8810 	msr	PRIMASK, r7
1000288a:	bdf8      	pop	{r3, r4, r5, r6, r7, pc}
1000288c:	2201      	movs	r2, #1
1000288e:	f8df c038 	ldr.w	ip, [pc, #56]	@ 100028c8 <hardware_alarm_set_callback+0x94>
10002892:	4b0c      	ldr	r3, [pc, #48]	@ (100028c4 <hardware_alarm_set_callback+0x90>)
10002894:	4082      	lsls	r2, r0
10002896:	f843 1024 	str.w	r1, [r3, r4, lsl #2]
1000289a:	f89c 3000 	ldrb.w	r3, [ip]
1000289e:	4907      	ldr	r1, [pc, #28]	@ (100028bc <hardware_alarm_set_callback+0x88>)
100028a0:	ea23 0302 	bic.w	r3, r3, r2
100028a4:	f88c 3000 	strb.w	r3, [ip]
100028a8:	f7ff f9f0 	bl	10001c8c <irq_remove_handler>
100028ac:	4629      	mov	r1, r5
100028ae:	4620      	mov	r0, r4
100028b0:	f7ff f8aa 	bl	10001a08 <irq_set_enabled>
100028b4:	e7e4      	b.n	10002880 <hardware_alarm_set_callback+0x4c>
100028b6:	bf00      	nop
100028b8:	20001b3e 	.word	0x20001b3e
100028bc:	100026f1 	.word	0x100026f1
100028c0:	400b2000 	.word	0x400b2000
100028c4:	20001c7c 	.word	0x20001c7c
100028c8:	200025d8 	.word	0x200025d8

100028cc <hardware_alarm_set_target>:
100028cc:	e92d 47f0 	stmdb	sp!, {r4, r5, r6, r7, r8, r9, sl, lr}
100028d0:	4c2b      	ldr	r4, [pc, #172]	@ (10002980 <hardware_alarm_set_target+0xb4>)
100028d2:	6a61      	ldr	r1, [r4, #36]	@ 0x24
100028d4:	468c      	mov	ip, r1
100028d6:	6aa5      	ldr	r5, [r4, #40]	@ 0x28
100028d8:	6a61      	ldr	r1, [r4, #36]	@ 0x24
100028da:	4561      	cmp	r1, ip
100028dc:	d1fa      	bne.n	100028d4 <hardware_alarm_set_target+0x8>
100028de:	4295      	cmp	r5, r2
100028e0:	4199      	sbcs	r1, r3
100028e2:	d22c      	bcs.n	1000293e <hardware_alarm_set_target+0x72>
100028e4:	f3ef 8810 	mrs	r8, PRIMASK
100028e8:	b672      	cpsid	i
100028ea:	4f26      	ldr	r7, [pc, #152]	@ (10002984 <hardware_alarm_set_target+0xb8>)
100028ec:	e8d7 5fcf 	ldaexb	r5, [r7]
100028f0:	2101      	movs	r1, #1
100028f2:	2d00      	cmp	r5, #0
100028f4:	d1fa      	bne.n	100028ec <hardware_alarm_set_target+0x20>
100028f6:	e8c7 1f45 	strexb	r5, r1, [r7]
100028fa:	2d00      	cmp	r5, #0
100028fc:	d1f6      	bne.n	100028ec <hardware_alarm_set_target+0x20>
100028fe:	f3bf 8f5f 	dmb	sy
10002902:	2601      	movs	r6, #1
10002904:	f8df e088 	ldr.w	lr, [pc, #136]	@ 10002990 <hardware_alarm_set_target+0xc4>
10002908:	4086      	lsls	r6, r0
1000290a:	f89e 9000 	ldrb.w	r9, [lr]
1000290e:	4d1e      	ldr	r5, [pc, #120]	@ (10002988 <hardware_alarm_set_target+0xbc>)
10002910:	ea49 0c06 	orr.w	ip, r9, r6
10002914:	1d01      	adds	r1, r0, #4
10002916:	fa5f fc8c 	uxtb.w	ip, ip
1000291a:	f88e c000 	strb.w	ip, [lr]
1000291e:	63e6      	str	r6, [r4, #60]	@ 0x3c
10002920:	f844 2021 	str.w	r2, [r4, r1, lsl #2]
10002924:	f845 3020 	str.w	r3, [r5, r0, lsl #2]
10002928:	6a21      	ldr	r1, [r4, #32]
1000292a:	4031      	ands	r1, r6
1000292c:	d10a      	bne.n	10002944 <hardware_alarm_set_target+0x78>
1000292e:	2000      	movs	r0, #0
10002930:	2300      	movs	r3, #0
10002932:	e8c7 3f8f 	stlb	r3, [r7]
10002936:	f388 8810 	msr	PRIMASK, r8
1000293a:	e8bd 87f0 	ldmia.w	sp!, {r4, r5, r6, r7, r8, r9, sl, pc}
1000293e:	2001      	movs	r0, #1
10002940:	e8bd 87f0 	ldmia.w	sp!, {r4, r5, r6, r7, r8, r9, sl, pc}
10002944:	6a61      	ldr	r1, [r4, #36]	@ 0x24
10002946:	4c0e      	ldr	r4, [pc, #56]	@ (10002980 <hardware_alarm_set_target+0xb4>)
10002948:	460d      	mov	r5, r1
1000294a:	f8d4 a028 	ldr.w	sl, [r4, #40]	@ 0x28
1000294e:	6a61      	ldr	r1, [r4, #36]	@ 0x24
10002950:	42a9      	cmp	r1, r5
10002952:	d1f9      	bne.n	10002948 <hardware_alarm_set_target+0x7c>
10002954:	4592      	cmp	sl, r2
10002956:	eb71 0303 	sbcs.w	r3, r1, r3
1000295a:	d3e8      	bcc.n	1000292e <hardware_alarm_set_target+0x62>
1000295c:	45e1      	cmp	r9, ip
1000295e:	d00c      	beq.n	1000297a <hardware_alarm_set_target+0xae>
10002960:	2201      	movs	r2, #1
10002962:	0943      	lsrs	r3, r0, #5
10002964:	4909      	ldr	r1, [pc, #36]	@ (1000298c <hardware_alarm_set_target+0xc0>)
10002966:	f000 001f 	and.w	r0, r0, #31
1000296a:	3360      	adds	r3, #96	@ 0x60
1000296c:	4082      	lsls	r2, r0
1000296e:	6226      	str	r6, [r4, #32]
10002970:	63e6      	str	r6, [r4, #60]	@ 0x3c
10002972:	f841 2023 	str.w	r2, [r1, r3, lsl #2]
10002976:	f88e 9000 	strb.w	r9, [lr]
1000297a:	2001      	movs	r0, #1
1000297c:	e7d8      	b.n	10002930 <hardware_alarm_set_target+0x64>
1000297e:	bf00      	nop
10002980:	400b0000 	.word	0x400b0000
10002984:	20001b3e 	.word	0x20001b3e
10002988:	200025b8 	.word	0x200025b8
1000298c:	e000e100 	.word	0xe000e100
10002990:	200025d8 	.word	0x200025d8

10002994 <clock_configure_undivided>:
10002994:	eb00 0c40 	add.w	ip, r0, r0, lsl #1
10002998:	ea4f 0c8c 	mov.w	ip, ip, lsl #2
1000299c:	f10c 4c80 	add.w	ip, ip, #1073741824	@ 0x40000000
100029a0:	f50c 3c80 	add.w	ip, ip, #65536	@ 0x10000
100029a4:	b5f0      	push	{r4, r5, r6, r7, lr}
100029a6:	4616      	mov	r6, r2
100029a8:	f8dc 2004 	ldr.w	r2, [ip, #4]
100029ac:	1f05      	subs	r5, r0, #4
100029ae:	f5b2 3f80 	cmp.w	r2, #65536	@ 0x10000
100029b2:	bf38      	it	cc
100029b4:	f44f 3280 	movcc.w	r2, #65536	@ 0x10000
100029b8:	b2ed      	uxtb	r5, r5
100029ba:	bf38      	it	cc
100029bc:	f8cc 2004 	strcc.w	r2, [ip, #4]
100029c0:	2d01      	cmp	r5, #1
100029c2:	d92a      	bls.n	10002a1a <clock_configure_undivided+0x86>
100029c4:	f44f 6700 	mov.w	r7, #2048	@ 0x800
100029c8:	4c25      	ldr	r4, [pc, #148]	@ (10002a60 <clock_configure_undivided+0xcc>)
100029ca:	f50c 5240 	add.w	r2, ip, #12288	@ 0x3000
100029ce:	6017      	str	r7, [r2, #0]
100029d0:	f854 2020 	ldr.w	r2, [r4, r0, lsl #2]
100029d4:	b9b2      	cbnz	r2, 10002a04 <clock_configure_undivided+0x70>
100029d6:	f8dc 2000 	ldr.w	r2, [ip]
100029da:	2d01      	cmp	r5, #1
100029dc:	ea82 1246 	eor.w	r2, r2, r6, lsl #5
100029e0:	f002 02e0 	and.w	r2, r2, #224	@ 0xe0
100029e4:	f50c 5680 	add.w	r6, ip, #4096	@ 0x1000
100029e8:	6032      	str	r2, [r6, #0]
100029ea:	d92a      	bls.n	10002a42 <clock_configure_undivided+0xae>
100029ec:	f44f 6100 	mov.w	r1, #2048	@ 0x800
100029f0:	f844 3020 	str.w	r3, [r4, r0, lsl #2]
100029f4:	f44f 3380 	mov.w	r3, #65536	@ 0x10000
100029f8:	f50c 5200 	add.w	r2, ip, #8192	@ 0x2000
100029fc:	6011      	str	r1, [r2, #0]
100029fe:	f8cc 3004 	str.w	r3, [ip, #4]
10002a02:	bdf0      	pop	{r4, r5, r6, r7, pc}
10002a04:	6967      	ldr	r7, [r4, #20]
10002a06:	fbb7 fef2 	udiv	lr, r7, r2
10002a0a:	f10e 0e01 	add.w	lr, lr, #1
10002a0e:	eb0e 0e4e 	add.w	lr, lr, lr, lsl #1
10002a12:	f1be 0e03 	subs.w	lr, lr, #3
10002a16:	d2fc      	bcs.n	10002a12 <clock_configure_undivided+0x7e>
10002a18:	e7dd      	b.n	100029d6 <clock_configure_undivided+0x42>
10002a1a:	2901      	cmp	r1, #1
10002a1c:	d1d2      	bne.n	100029c4 <clock_configure_undivided+0x30>
10002a1e:	2403      	movs	r4, #3
10002a20:	f50c 5240 	add.w	r2, ip, #12288	@ 0x3000
10002a24:	6014      	str	r4, [r2, #0]
10002a26:	f8dc 2008 	ldr.w	r2, [ip, #8]
10002a2a:	07d2      	lsls	r2, r2, #31
10002a2c:	d5fb      	bpl.n	10002a26 <clock_configure_undivided+0x92>
10002a2e:	f8dc 2000 	ldr.w	r2, [ip]
10002a32:	4c0b      	ldr	r4, [pc, #44]	@ (10002a60 <clock_configure_undivided+0xcc>)
10002a34:	ea82 1246 	eor.w	r2, r2, r6, lsl #5
10002a38:	f002 02e0 	and.w	r2, r2, #224	@ 0xe0
10002a3c:	f50c 5680 	add.w	r6, ip, #4096	@ 0x1000
10002a40:	6032      	str	r2, [r6, #0]
10002a42:	2201      	movs	r2, #1
10002a44:	f8dc 5000 	ldr.w	r5, [ip]
10002a48:	404d      	eors	r5, r1
10002a4a:	f005 0503 	and.w	r5, r5, #3
10002a4e:	6035      	str	r5, [r6, #0]
10002a50:	fa02 f101 	lsl.w	r1, r2, r1
10002a54:	f8dc 2008 	ldr.w	r2, [ip, #8]
10002a58:	420a      	tst	r2, r1
10002a5a:	d0fb      	beq.n	10002a54 <clock_configure_undivided+0xc0>
10002a5c:	e7c6      	b.n	100029ec <clock_configure_undivided+0x58>
10002a5e:	bf00      	nop
10002a60:	20001db0 	.word	0x20001db0

10002a64 <clock_get_hz>:
10002a64:	4b01      	ldr	r3, [pc, #4]	@ (10002a6c <clock_get_hz+0x8>)
10002a66:	f853 0020 	ldr.w	r0, [r3, r0, lsl #2]
10002a6a:	4770      	bx	lr
10002a6c:	20001db0 	.word	0x20001db0

10002a70 <pll_init>:
10002a70:	b470      	push	{r4, r5, r6}
10002a72:	9d03      	ldr	r5, [sp, #12]
10002a74:	6804      	ldr	r4, [r0, #0]
10002a76:	032d      	lsls	r5, r5, #12
10002a78:	ea45 4503 	orr.w	r5, r5, r3, lsl #16
10002a7c:	4b1b      	ldr	r3, [pc, #108]	@ (10002aec <pll_init+0x7c>)
10002a7e:	2c00      	cmp	r4, #0
10002a80:	fbb3 f3f1 	udiv	r3, r3, r1
10002a84:	fbb2 f6f3 	udiv	r6, r2, r3
10002a88:	db1f      	blt.n	10002aca <pll_init+0x5a>
10002a8a:	4a19      	ldr	r2, [pc, #100]	@ (10002af0 <pll_init+0x80>)
10002a8c:	4b19      	ldr	r3, [pc, #100]	@ (10002af4 <pll_init+0x84>)
10002a8e:	4290      	cmp	r0, r2
10002a90:	bf14      	ite	ne
10002a92:	f44f 4280 	movne.w	r2, #16384	@ 0x4000
10002a96:	f44f 4200 	moveq.w	r2, #32768	@ 0x8000
10002a9a:	4c17      	ldr	r4, [pc, #92]	@ (10002af8 <pll_init+0x88>)
10002a9c:	601a      	str	r2, [r3, #0]
10002a9e:	f503 5380 	add.w	r3, r3, #4096	@ 0x1000
10002aa2:	601a      	str	r2, [r3, #0]
10002aa4:	68a3      	ldr	r3, [r4, #8]
10002aa6:	ea32 0303 	bics.w	r3, r2, r3
10002aaa:	d1fb      	bne.n	10002aa4 <pll_init+0x34>
10002aac:	2221      	movs	r2, #33	@ 0x21
10002aae:	f500 5340 	add.w	r3, r0, #12288	@ 0x3000
10002ab2:	3304      	adds	r3, #4
10002ab4:	6001      	str	r1, [r0, #0]
10002ab6:	6086      	str	r6, [r0, #8]
10002ab8:	601a      	str	r2, [r3, #0]
10002aba:	6802      	ldr	r2, [r0, #0]
10002abc:	2a00      	cmp	r2, #0
10002abe:	dafc      	bge.n	10002aba <pll_init+0x4a>
10002ac0:	2208      	movs	r2, #8
10002ac2:	60c5      	str	r5, [r0, #12]
10002ac4:	601a      	str	r2, [r3, #0]
10002ac6:	bc70      	pop	{r4, r5, r6}
10002ac8:	4770      	bx	lr
10002aca:	6803      	ldr	r3, [r0, #0]
10002acc:	f003 033f 	and.w	r3, r3, #63	@ 0x3f
10002ad0:	428b      	cmp	r3, r1
10002ad2:	d1da      	bne.n	10002a8a <pll_init+0x1a>
10002ad4:	6883      	ldr	r3, [r0, #8]
10002ad6:	f3c3 030b 	ubfx	r3, r3, #0, #12
10002ada:	42b3      	cmp	r3, r6
10002adc:	d1d5      	bne.n	10002a8a <pll_init+0x1a>
10002ade:	68c3      	ldr	r3, [r0, #12]
10002ae0:	f403 23ee 	and.w	r3, r3, #487424	@ 0x77000
10002ae4:	42ab      	cmp	r3, r5
10002ae6:	d1d0      	bne.n	10002a8a <pll_init+0x1a>
10002ae8:	e7ed      	b.n	10002ac6 <pll_init+0x56>
10002aea:	bf00      	nop
10002aec:	00b71b00 	.word	0x00b71b00
10002af0:	40058000 	.word	0x40058000
10002af4:	40022000 	.word	0x40022000
10002af8:	40020000 	.word	0x40020000

10002afc <watchdog_enable>:
10002afc:	b430      	push	{r4, r5}
10002afe:	f04f 4580 	mov.w	r5, #1073741824	@ 0x40000000
10002b02:	4b17      	ldr	r3, [pc, #92]	@ (10002b60 <watchdog_enable+0x64>)
10002b04:	4a17      	ldr	r2, [pc, #92]	@ (10002b64 <watchdog_enable+0x68>)
10002b06:	4c18      	ldr	r4, [pc, #96]	@ (10002b68 <watchdog_enable+0x6c>)
10002b08:	61da      	str	r2, [r3, #28]
10002b0a:	4a18      	ldr	r2, [pc, #96]	@ (10002b6c <watchdog_enable+0x70>)
10002b0c:	f503 5340 	add.w	r3, r3, #12288	@ 0x3000
10002b10:	601d      	str	r5, [r3, #0]
10002b12:	6094      	str	r4, [r2, #8]
10002b14:	f04f 62e0 	mov.w	r2, #117440512	@ 0x7000000
10002b18:	b149      	cbz	r1, 10002b2e <watchdog_enable+0x32>
10002b1a:	f5a3 5380 	sub.w	r3, r3, #4096	@ 0x1000
10002b1e:	601a      	str	r2, [r3, #0]
10002b20:	b940      	cbnz	r0, 10002b34 <watchdog_enable+0x38>
10002b22:	bc30      	pop	{r4, r5}
10002b24:	f04f 4200 	mov.w	r2, #2147483648	@ 0x80000000
10002b28:	4b11      	ldr	r3, [pc, #68]	@ (10002b70 <watchdog_enable+0x74>)
10002b2a:	601a      	str	r2, [r3, #0]
10002b2c:	4770      	bx	lr
10002b2e:	601a      	str	r2, [r3, #0]
10002b30:	2800      	cmp	r0, #0
10002b32:	d0f6      	beq.n	10002b22 <watchdog_enable+0x26>
10002b34:	f44f 737a 	mov.w	r3, #1000	@ 0x3e8
10002b38:	fb03 f000 	mul.w	r0, r3, r0
10002b3c:	f1b0 7f80 	cmp.w	r0, #16777216	@ 0x1000000
10002b40:	bf2a      	itet	cs
10002b42:	f06f 437f 	mvncs.w	r3, #4278190080	@ 0xff000000
10002b46:	4603      	movcc	r3, r0
10002b48:	4618      	movcs	r0, r3
10002b4a:	f04f 4280 	mov.w	r2, #1073741824	@ 0x40000000
10002b4e:	4c09      	ldr	r4, [pc, #36]	@ (10002b74 <watchdog_enable+0x78>)
10002b50:	4903      	ldr	r1, [pc, #12]	@ (10002b60 <watchdog_enable+0x64>)
10002b52:	6023      	str	r3, [r4, #0]
10002b54:	4b06      	ldr	r3, [pc, #24]	@ (10002b70 <watchdog_enable+0x74>)
10002b56:	6048      	str	r0, [r1, #4]
10002b58:	bc30      	pop	{r4, r5}
10002b5a:	601a      	str	r2, [r3, #0]
10002b5c:	4770      	bx	lr
10002b5e:	bf00      	nop
10002b60:	400d8000 	.word	0x400d8000
10002b64:	6ab73121 	.word	0x6ab73121
10002b68:	01fffff3 	.word	0x01fffff3
10002b6c:	4001a000 	.word	0x4001a000
10002b70:	400da000 	.word	0x400da000
10002b74:	200021fc 	.word	0x200021fc

10002b78 <tick_start>:
10002b78:	2301      	movs	r3, #1
10002b7a:	eb00 0040 	add.w	r0, r0, r0, lsl #1
10002b7e:	0080      	lsls	r0, r0, #2
10002b80:	f100 4080 	add.w	r0, r0, #1073741824	@ 0x40000000
10002b84:	f500 1084 	add.w	r0, r0, #1081344	@ 0x108000
10002b88:	6041      	str	r1, [r0, #4]
10002b8a:	6003      	str	r3, [r0, #0]
10002b8c:	4770      	bx	lr
10002b8e:	bf00      	nop

10002b90 <rom_func_lookup>:
10002b90:	2300      	movs	r3, #0
10002b92:	8adb      	ldrh	r3, [r3, #22]
10002b94:	2200      	movs	r2, #0
10002b96:	e842 f200 	tt	r2, r2
10002b9a:	0252      	lsls	r2, r2, #9
10002b9c:	d401      	bmi.n	10002ba2 <rom_func_lookup+0x12>
10002b9e:	2110      	movs	r1, #16
10002ba0:	4718      	bx	r3
10002ba2:	2104      	movs	r1, #4
10002ba4:	4718      	bx	r3
10002ba6:	bf00      	nop

10002ba8 <runtime_init_bootrom_locking_enable>:
10002ba8:	4a03      	ldr	r2, [pc, #12]	@ (10002bb8 <runtime_init_bootrom_locking_enable+0x10>)
10002baa:	f8d2 3828 	ldr.w	r3, [r2, #2088]	@ 0x828
10002bae:	2b00      	cmp	r3, #0
10002bb0:	d0fb      	beq.n	10002baa <runtime_init_bootrom_locking_enable+0x2>
10002bb2:	f3bf 8f5f 	dmb	sy
10002bb6:	4770      	bx	lr
10002bb8:	400e0000 	.word	0x400e0000

10002bbc <runtime_init_boot_locks_reset>:
10002bbc:	2100      	movs	r1, #0
10002bbe:	4b04      	ldr	r3, [pc, #16]	@ (10002bd0 <runtime_init_boot_locks_reset+0x14>)
10002bc0:	4a04      	ldr	r2, [pc, #16]	@ (10002bd4 <runtime_init_boot_locks_reset+0x18>)
10002bc2:	f3bf 8f5f 	dmb	sy
10002bc6:	f843 1b04 	str.w	r1, [r3], #4
10002bca:	4293      	cmp	r3, r2
10002bcc:	d1f9      	bne.n	10002bc2 <runtime_init_boot_locks_reset+0x6>
10002bce:	4770      	bx	lr
10002bd0:	400e080c 	.word	0x400e080c
10002bd4:	400e082c 	.word	0x400e082c

10002bd8 <xosc_init>:
10002bd8:	b410      	push	{r4}
10002bda:	f44f 708d 	mov.w	r0, #282	@ 0x11a
10002bde:	f44f 642a 	mov.w	r4, #2720	@ 0xaa0
10002be2:	4a06      	ldr	r2, [pc, #24]	@ (10002bfc <xosc_init+0x24>)
10002be4:	4b06      	ldr	r3, [pc, #24]	@ (10002c00 <xosc_init+0x28>)
10002be6:	4907      	ldr	r1, [pc, #28]	@ (10002c04 <xosc_init+0x2c>)
10002be8:	6014      	str	r4, [r2, #0]
10002bea:	60d0      	str	r0, [r2, #12]
10002bec:	6019      	str	r1, [r3, #0]
10002bee:	6853      	ldr	r3, [r2, #4]
10002bf0:	2b00      	cmp	r3, #0
10002bf2:	dafc      	bge.n	10002bee <xosc_init+0x16>
10002bf4:	f85d 4b04 	ldr.w	r4, [sp], #4
10002bf8:	4770      	bx	lr
10002bfa:	bf00      	nop
10002bfc:	40048000 	.word	0x40048000
10002c00:	4004a000 	.word	0x4004a000
10002c04:	00fab000 	.word	0x00fab000

10002c08 <first_per_core_initializer>:
10002c08:	4770      	bx	lr
10002c0a:	bf00      	nop

10002c0c <hard_assertion_failure>:
10002c0c:	b508      	push	{r3, lr}
10002c0e:	4801      	ldr	r0, [pc, #4]	@ (10002c14 <hard_assertion_failure+0x8>)
10002c10:	f7fe fe26 	bl	10001860 <panic>
10002c14:	100052f0 	.word	0x100052f0

10002c18 <runtime_run_initializers>:
10002c18:	b538      	push	{r3, r4, r5, lr}
10002c1a:	4c05      	ldr	r4, [pc, #20]	@ (10002c30 <runtime_run_initializers+0x18>)
10002c1c:	4d05      	ldr	r5, [pc, #20]	@ (10002c34 <runtime_run_initializers+0x1c>)
10002c1e:	42ac      	cmp	r4, r5
10002c20:	d204      	bcs.n	10002c2c <runtime_run_initializers+0x14>
10002c22:	f854 3b04 	ldr.w	r3, [r4], #4
10002c26:	4798      	blx	r3
10002c28:	42ac      	cmp	r4, r5
10002c2a:	d3fa      	bcc.n	10002c22 <runtime_run_initializers+0xa>
10002c2c:	bd38      	pop	{r3, r4, r5, pc}
10002c2e:	bf00      	nop
10002c30:	100051b8 	.word	0x100051b8
10002c34:	100051f8 	.word	0x100051f8

10002c38 <runtime_init_early_resets>:
10002c38:	b410      	push	{r4}
10002c3a:	4807      	ldr	r0, [pc, #28]	@ (10002c58 <runtime_init_early_resets+0x20>)
10002c3c:	4c07      	ldr	r4, [pc, #28]	@ (10002c5c <runtime_init_early_resets+0x24>)
10002c3e:	4b08      	ldr	r3, [pc, #32]	@ (10002c60 <runtime_init_early_resets+0x28>)
10002c40:	4a08      	ldr	r2, [pc, #32]	@ (10002c64 <runtime_init_early_resets+0x2c>)
10002c42:	4909      	ldr	r1, [pc, #36]	@ (10002c68 <runtime_init_early_resets+0x30>)
10002c44:	6004      	str	r4, [r0, #0]
10002c46:	601a      	str	r2, [r3, #0]
10002c48:	688b      	ldr	r3, [r1, #8]
10002c4a:	ea32 0303 	bics.w	r3, r2, r3
10002c4e:	d1fb      	bne.n	10002c48 <runtime_init_early_resets+0x10>
10002c50:	f85d 4b04 	ldr.w	r4, [sp], #4
10002c54:	4770      	bx	lr
10002c56:	bf00      	nop
10002c58:	40022000 	.word	0x40022000
10002c5c:	efef3b7f 	.word	0xefef3b7f
10002c60:	40023000 	.word	0x40023000
10002c64:	03f3fff6 	.word	0x03f3fff6
10002c68:	40020000 	.word	0x40020000

10002c6c <runtime_init_usb_power_down>:
10002c6c:	4b04      	ldr	r3, [pc, #16]	@ (10002c80 <runtime_init_usb_power_down+0x14>)
10002c6e:	6cdb      	ldr	r3, [r3, #76]	@ 0x4c
10002c70:	f5b3 4f00 	cmp.w	r3, #32768	@ 0x8000
10002c74:	d103      	bne.n	10002c7e <runtime_init_usb_power_down+0x12>
10002c76:	f44f 2280 	mov.w	r2, #262144	@ 0x40000
10002c7a:	4b02      	ldr	r3, [pc, #8]	@ (10002c84 <runtime_init_usb_power_down+0x18>)
10002c7c:	64da      	str	r2, [r3, #76]	@ 0x4c
10002c7e:	4770      	bx	lr
10002c80:	50110000 	.word	0x50110000
10002c84:	50112000 	.word	0x50112000

10002c88 <runtime_init_per_core_enable_coprocessors>:
10002c88:	f04f 22e0 	mov.w	r2, #3758153728	@ 0xe000e000
10002c8c:	4b04      	ldr	r3, [pc, #16]	@ (10002ca0 <runtime_init_per_core_enable_coprocessors+0x18>)
10002c8e:	f8d2 1d88 	ldr.w	r1, [r2, #3464]	@ 0xd88
10002c92:	430b      	orrs	r3, r1
10002c94:	f8c2 3d88 	str.w	r3, [r2, #3464]	@ 0xd88
10002c98:	ee10 0430 	dcp_rcmp r0
10002c9c:	4770      	bx	lr
10002c9e:	bf00      	nop
10002ca0:	00300303 	.word	0x00300303

10002ca4 <runtime_init_post_clock_resets>:
10002ca4:	f06f 4160 	mvn.w	r1, #3758096384	@ 0xe0000000
10002ca8:	4b04      	ldr	r3, [pc, #16]	@ (10002cbc <runtime_init_post_clock_resets+0x18>)
10002caa:	4a05      	ldr	r2, [pc, #20]	@ (10002cc0 <runtime_init_post_clock_resets+0x1c>)
10002cac:	6019      	str	r1, [r3, #0]
10002cae:	6893      	ldr	r3, [r2, #8]
10002cb0:	43db      	mvns	r3, r3
10002cb2:	f033 4360 	bics.w	r3, r3, #3758096384	@ 0xe0000000
10002cb6:	d1fa      	bne.n	10002cae <runtime_init_post_clock_resets+0xa>
10002cb8:	4770      	bx	lr
10002cba:	bf00      	nop
10002cbc:	40023000 	.word	0x40023000
10002cc0:	40020000 	.word	0x40020000

10002cc4 <runtime_init_bootrom_reset>:
10002cc4:	b510      	push	{r4, lr}
10002cc6:	f245 2053 	movw	r0, #21075	@ 0x5253
10002cca:	f7ff ff61 	bl	10002b90 <rom_func_lookup>
10002cce:	e8bd 4010 	ldmia.w	sp!, {r4, lr}
10002cd2:	4603      	mov	r3, r0
10002cd4:	2004      	movs	r0, #4
10002cd6:	4718      	bx	r3

10002cd8 <runtime_init_per_core_bootrom_reset>:
10002cd8:	b510      	push	{r4, lr}
10002cda:	f245 2053 	movw	r0, #21075	@ 0x5253
10002cde:	f7ff ff57 	bl	10002b90 <rom_func_lookup>
10002ce2:	e8bd 4010 	ldmia.w	sp!, {r4, lr}
10002ce6:	4603      	mov	r3, r0
10002ce8:	2001      	movs	r0, #1
10002cea:	4718      	bx	r3

10002cec <runtime_init_spin_locks_reset>:
10002cec:	f7fe be60 	b.w	100019b0 <spin_locks_reset>

10002cf0 <runtime_init_install_ram_vector_table>:
10002cf0:	4914      	ldr	r1, [pc, #80]	@ (10002d44 <runtime_init_install_ram_vector_table+0x54>)
10002cf2:	4b15      	ldr	r3, [pc, #84]	@ (10002d48 <runtime_init_install_ram_vector_table+0x58>)
10002cf4:	b570      	push	{r4, r5, r6, lr}
10002cf6:	1a5c      	subs	r4, r3, r1
10002cf8:	10a6      	asrs	r6, r4, #2
10002cfa:	2e44      	cmp	r6, #68	@ 0x44
10002cfc:	4632      	mov	r2, r6
10002cfe:	bf28      	it	cs
10002d00:	2244      	movcs	r2, #68	@ 0x44
10002d02:	4d12      	ldr	r5, [pc, #72]	@ (10002d4c <runtime_init_install_ram_vector_table+0x5c>)
10002d04:	0092      	lsls	r2, r2, #2
10002d06:	4628      	mov	r0, r5
10002d08:	f002 f93c 	bl	10004f84 <memcpy>
10002d0c:	f5b4 7f86 	cmp.w	r4, #268	@ 0x10c
10002d10:	d813      	bhi.n	10002d3a <runtime_init_install_ram_vector_table+0x4a>
10002d12:	4a0f      	ldr	r2, [pc, #60]	@ (10002d50 <runtime_init_install_ram_vector_table+0x60>)
10002d14:	f1c6 0044 	rsb	r0, r6, #68	@ 0x44
10002d18:	d012      	beq.n	10002d40 <runtime_init_install_ram_vector_table+0x50>
10002d1a:	192b      	adds	r3, r5, r4
10002d1c:	0841      	lsrs	r1, r0, #1
10002d1e:	eb03 01c1 	add.w	r1, r3, r1, lsl #3
10002d22:	e9c3 2200 	strd	r2, r2, [r3]
10002d26:	3308      	adds	r3, #8
10002d28:	428b      	cmp	r3, r1
10002d2a:	d1fa      	bne.n	10002d22 <runtime_init_install_ram_vector_table+0x32>
10002d2c:	07c3      	lsls	r3, r0, #31
10002d2e:	d504      	bpl.n	10002d3a <runtime_init_install_ram_vector_table+0x4a>
10002d30:	f020 0001 	bic.w	r0, r0, #1
10002d34:	4430      	add	r0, r6
10002d36:	f845 2020 	str.w	r2, [r5, r0, lsl #2]
10002d3a:	4b06      	ldr	r3, [pc, #24]	@ (10002d54 <runtime_init_install_ram_vector_table+0x64>)
10002d3c:	609d      	str	r5, [r3, #8]
10002d3e:	bd70      	pop	{r4, r5, r6, pc}
10002d40:	2043      	movs	r0, #67	@ 0x43
10002d42:	e7f8      	b.n	10002d36 <runtime_init_install_ram_vector_table+0x46>
10002d44:	10000000 	.word	0x10000000
10002d48:	10000110 	.word	0x10000110
10002d4c:	20000000 	.word	0x20000000
10002d50:	10000111 	.word	0x10000111
10002d54:	e000ed00 	.word	0xe000ed00

10002d58 <runtime_init_clocks>:
10002d58:	2300      	movs	r3, #0
10002d5a:	b570      	push	{r4, r5, r6, lr}
10002d5c:	4c2b      	ldr	r4, [pc, #172]	@ (10002e0c <runtime_init_clocks+0xb4>)
10002d5e:	b082      	sub	sp, #8
10002d60:	f8c4 3084 	str.w	r3, [r4, #132]	@ 0x84
10002d64:	f7ff ff38 	bl	10002bd8 <xosc_init>
10002d68:	2201      	movs	r2, #1
10002d6a:	4b29      	ldr	r3, [pc, #164]	@ (10002e10 <runtime_init_clocks+0xb8>)
10002d6c:	63da      	str	r2, [r3, #60]	@ 0x3c
10002d6e:	6c63      	ldr	r3, [r4, #68]	@ 0x44
10002d70:	2b01      	cmp	r3, #1
10002d72:	d1fc      	bne.n	10002d6e <runtime_init_clocks+0x16>
10002d74:	2103      	movs	r1, #3
10002d76:	4a26      	ldr	r2, [pc, #152]	@ (10002e10 <runtime_init_clocks+0xb8>)
10002d78:	4b24      	ldr	r3, [pc, #144]	@ (10002e0c <runtime_init_clocks+0xb4>)
10002d7a:	6311      	str	r1, [r2, #48]	@ 0x30
10002d7c:	6b9c      	ldr	r4, [r3, #56]	@ 0x38
10002d7e:	2c01      	cmp	r4, #1
10002d80:	d1fc      	bne.n	10002d7c <runtime_init_clocks+0x24>
10002d82:	2602      	movs	r6, #2
10002d84:	2505      	movs	r5, #5
10002d86:	4621      	mov	r1, r4
10002d88:	2305      	movs	r3, #5
10002d8a:	4a22      	ldr	r2, [pc, #136]	@ (10002e14 <runtime_init_clocks+0xbc>)
10002d8c:	4822      	ldr	r0, [pc, #136]	@ (10002e18 <runtime_init_clocks+0xc0>)
10002d8e:	9600      	str	r6, [sp, #0]
10002d90:	f7ff fe6e 	bl	10002a70 <pll_init>
10002d94:	4621      	mov	r1, r4
10002d96:	462b      	mov	r3, r5
10002d98:	4a20      	ldr	r2, [pc, #128]	@ (10002e1c <runtime_init_clocks+0xc4>)
10002d9a:	4821      	ldr	r0, [pc, #132]	@ (10002e20 <runtime_init_clocks+0xc8>)
10002d9c:	9500      	str	r5, [sp, #0]
10002d9e:	f7ff fe67 	bl	10002a70 <pll_init>
10002da2:	2200      	movs	r2, #0
10002da4:	2004      	movs	r0, #4
10002da6:	4631      	mov	r1, r6
10002da8:	4b1e      	ldr	r3, [pc, #120]	@ (10002e24 <runtime_init_clocks+0xcc>)
10002daa:	f7ff fdf3 	bl	10002994 <clock_configure_undivided>
10002dae:	4621      	mov	r1, r4
10002db0:	4628      	mov	r0, r5
10002db2:	2200      	movs	r2, #0
10002db4:	4b1c      	ldr	r3, [pc, #112]	@ (10002e28 <runtime_init_clocks+0xd0>)
10002db6:	f7ff fded 	bl	10002994 <clock_configure_undivided>
10002dba:	2200      	movs	r2, #0
10002dbc:	2008      	movs	r0, #8
10002dbe:	4611      	mov	r1, r2
10002dc0:	4b1a      	ldr	r3, [pc, #104]	@ (10002e2c <runtime_init_clocks+0xd4>)
10002dc2:	f7ff fde7 	bl	10002994 <clock_configure_undivided>
10002dc6:	2200      	movs	r2, #0
10002dc8:	2009      	movs	r0, #9
10002dca:	4611      	mov	r1, r2
10002dcc:	4b17      	ldr	r3, [pc, #92]	@ (10002e2c <runtime_init_clocks+0xd4>)
10002dce:	f7ff fde1 	bl	10002994 <clock_configure_undivided>
10002dd2:	2200      	movs	r2, #0
10002dd4:	2006      	movs	r0, #6
10002dd6:	4611      	mov	r1, r2
10002dd8:	4b13      	ldr	r3, [pc, #76]	@ (10002e28 <runtime_init_clocks+0xd0>)
10002dda:	f7ff fddb 	bl	10002994 <clock_configure_undivided>
10002dde:	2200      	movs	r2, #0
10002de0:	4b11      	ldr	r3, [pc, #68]	@ (10002e28 <runtime_init_clocks+0xd0>)
10002de2:	2007      	movs	r0, #7
10002de4:	4611      	mov	r1, r2
10002de6:	f7ff fdd5 	bl	10002994 <clock_configure_undivided>
10002dea:	2004      	movs	r0, #4
10002dec:	f7ff fe3a 	bl	10002a64 <clock_get_hz>
10002df0:	2400      	movs	r4, #0
10002df2:	4b0f      	ldr	r3, [pc, #60]	@ (10002e30 <runtime_init_clocks+0xd8>)
10002df4:	fba3 3500 	umull	r3, r5, r3, r0
10002df8:	0cad      	lsrs	r5, r5, #18
10002dfa:	b2e0      	uxtb	r0, r4
10002dfc:	4629      	mov	r1, r5
10002dfe:	3401      	adds	r4, #1
10002e00:	f7ff feba 	bl	10002b78 <tick_start>
10002e04:	2c06      	cmp	r4, #6
10002e06:	d1f8      	bne.n	10002dfa <runtime_init_clocks+0xa2>
10002e08:	b002      	add	sp, #8
10002e0a:	bd70      	pop	{r4, r5, r6, pc}
10002e0c:	40010000 	.word	0x40010000
10002e10:	40013000 	.word	0x40013000
10002e14:	59682f00 	.word	0x59682f00
10002e18:	40050000 	.word	0x40050000
10002e1c:	47868c00 	.word	0x47868c00
10002e20:	40058000 	.word	0x40058000
10002e24:	00b71b00 	.word	0x00b71b00
10002e28:	08f0d180 	.word	0x08f0d180
10002e2c:	02dc6c00 	.word	0x02dc6c00
10002e30:	431bde83 	.word	0x431bde83

10002e34 <_out_char>:
10002e34:	b900      	cbnz	r0, 10002e38 <_out_char+0x4>
10002e36:	4770      	bx	lr
10002e38:	f000 b902 	b.w	10003040 <__wrap_putchar>

10002e3c <weak_raw_vprintf>:
10002e3c:	b510      	push	{r4, lr}
10002e3e:	4b09      	ldr	r3, [pc, #36]	@ (10002e64 <weak_raw_vprintf+0x28>)
10002e40:	b084      	sub	sp, #16
10002e42:	681c      	ldr	r4, [r3, #0]
10002e44:	b14c      	cbz	r4, 10002e5a <weak_raw_vprintf+0x1e>
10002e46:	4603      	mov	r3, r0
10002e48:	9100      	str	r1, [sp, #0]
10002e4a:	f04f 32ff 	mov.w	r2, #4294967295	@ 0xffffffff
10002e4e:	a903      	add	r1, sp, #12
10002e50:	4805      	ldr	r0, [pc, #20]	@ (10002e68 <weak_raw_vprintf+0x2c>)
10002e52:	47a0      	blx	r4
10002e54:	2001      	movs	r0, #1
10002e56:	b004      	add	sp, #16
10002e58:	bd10      	pop	{r4, pc}
10002e5a:	f000 f933 	bl	100030c4 <__wrap_puts>
10002e5e:	4620      	mov	r0, r4
10002e60:	b004      	add	sp, #16
10002e62:	bd10      	pop	{r4, pc}
10002e64:	200021f8 	.word	0x200021f8
10002e68:	10002e35 	.word	0x10002e35

10002e6c <_exit>:
10002e6c:	be00      	bkpt	0x0000
10002e6e:	e7fd      	b.n	10002e6c <_exit>

10002e70 <exit>:
10002e70:	b508      	push	{r3, lr}
10002e72:	f7ff fffb 	bl	10002e6c <_exit>
10002e76:	bf00      	nop

10002e78 <runtime_init>:
10002e78:	b538      	push	{r3, r4, r5, lr}
10002e7a:	4c06      	ldr	r4, [pc, #24]	@ (10002e94 <runtime_init+0x1c>)
10002e7c:	4d06      	ldr	r5, [pc, #24]	@ (10002e98 <runtime_init+0x20>)
10002e7e:	f7ff fecb 	bl	10002c18 <runtime_run_initializers>
10002e82:	42ac      	cmp	r4, r5
10002e84:	d204      	bcs.n	10002e90 <runtime_init+0x18>
10002e86:	f854 3b04 	ldr.w	r3, [r4], #4
10002e8a:	4798      	blx	r3
10002e8c:	42ac      	cmp	r4, r5
10002e8e:	d3fa      	bcc.n	10002e86 <runtime_init+0xe>
10002e90:	bd38      	pop	{r3, r4, r5, pc}
10002e92:	bf00      	nop
10002e94:	100051f8 	.word	0x100051f8
10002e98:	10005204 	.word	0x10005204

10002e9c <stdio_out_chars_no_crlf>:
10002e9c:	6803      	ldr	r3, [r0, #0]
10002e9e:	4608      	mov	r0, r1
10002ea0:	4611      	mov	r1, r2
10002ea2:	4718      	bx	r3

10002ea4 <stdio_out_chars_crlf>:
10002ea4:	e92d 41f0 	stmdb	sp!, {r4, r5, r6, r7, r8, lr}
10002ea8:	4615      	mov	r5, r2
10002eaa:	7d42      	ldrb	r2, [r0, #21]
10002eac:	4607      	mov	r7, r0
10002eae:	4688      	mov	r8, r1
10002eb0:	2a00      	cmp	r2, #0
10002eb2:	d046      	beq.n	10002f42 <stdio_out_chars_crlf+0x9e>
10002eb4:	2d00      	cmp	r5, #0
10002eb6:	dd1d      	ble.n	10002ef4 <stdio_out_chars_crlf+0x50>
10002eb8:	780b      	ldrb	r3, [r1, #0]
10002eba:	2b0a      	cmp	r3, #10
10002ebc:	d023      	beq.n	10002f06 <stdio_out_chars_crlf+0x62>
10002ebe:	2d01      	cmp	r5, #1
10002ec0:	f04f 0c00 	mov.w	ip, #0
10002ec4:	d018      	beq.n	10002ef8 <stdio_out_chars_crlf+0x54>
10002ec6:	4646      	mov	r6, r8
10002ec8:	2401      	movs	r4, #1
10002eca:	f816 2f01 	ldrb.w	r2, [r6, #1]!
10002ece:	4621      	mov	r1, r4
10002ed0:	2a0a      	cmp	r2, #10
10002ed2:	f104 0401 	add.w	r4, r4, #1
10002ed6:	d022      	beq.n	10002f1e <stdio_out_chars_crlf+0x7a>
10002ed8:	42a5      	cmp	r5, r4
10002eda:	d1f6      	bne.n	10002eca <stdio_out_chars_crlf+0x26>
10002edc:	4565      	cmp	r5, ip
10002ede:	dc0b      	bgt.n	10002ef8 <stdio_out_chars_crlf+0x54>
10002ee0:	eb08 0305 	add.w	r3, r8, r5
10002ee4:	f813 3c01 	ldrb.w	r3, [r3, #-1]
10002ee8:	f1a3 030d 	sub.w	r3, r3, #13
10002eec:	fab3 f383 	clz	r3, r3
10002ef0:	095b      	lsrs	r3, r3, #5
10002ef2:	753b      	strb	r3, [r7, #20]
10002ef4:	e8bd 81f0 	ldmia.w	sp!, {r4, r5, r6, r7, r8, pc}
10002ef8:	683b      	ldr	r3, [r7, #0]
10002efa:	eba5 010c 	sub.w	r1, r5, ip
10002efe:	eb08 000c 	add.w	r0, r8, ip
10002f02:	4798      	blx	r3
10002f04:	e7ec      	b.n	10002ee0 <stdio_out_chars_crlf+0x3c>
10002f06:	7d03      	ldrb	r3, [r0, #20]
10002f08:	2b00      	cmp	r3, #0
10002f0a:	d1d8      	bne.n	10002ebe <stdio_out_chars_crlf+0x1a>
10002f0c:	6803      	ldr	r3, [r0, #0]
10002f0e:	2102      	movs	r1, #2
10002f10:	480f      	ldr	r0, [pc, #60]	@ (10002f50 <stdio_out_chars_crlf+0xac>)
10002f12:	4798      	blx	r3
10002f14:	2d01      	cmp	r5, #1
10002f16:	d0e3      	beq.n	10002ee0 <stdio_out_chars_crlf+0x3c>
10002f18:	f04f 0c01 	mov.w	ip, #1
10002f1c:	e7d3      	b.n	10002ec6 <stdio_out_chars_crlf+0x22>
10002f1e:	f816 3c01 	ldrb.w	r3, [r6, #-1]
10002f22:	2b0d      	cmp	r3, #13
10002f24:	d0d8      	beq.n	10002ed8 <stdio_out_chars_crlf+0x34>
10002f26:	458c      	cmp	ip, r1
10002f28:	eb08 000c 	add.w	r0, r8, ip
10002f2c:	eba1 010c 	sub.w	r1, r1, ip
10002f30:	da01      	bge.n	10002f36 <stdio_out_chars_crlf+0x92>
10002f32:	683b      	ldr	r3, [r7, #0]
10002f34:	4798      	blx	r3
10002f36:	2102      	movs	r1, #2
10002f38:	4805      	ldr	r0, [pc, #20]	@ (10002f50 <stdio_out_chars_crlf+0xac>)
10002f3a:	683b      	ldr	r3, [r7, #0]
10002f3c:	4798      	blx	r3
10002f3e:	46a4      	mov	ip, r4
10002f40:	e7ca      	b.n	10002ed8 <stdio_out_chars_crlf+0x34>
10002f42:	4629      	mov	r1, r5
10002f44:	4640      	mov	r0, r8
10002f46:	683b      	ldr	r3, [r7, #0]
10002f48:	e8bd 41f0 	ldmia.w	sp!, {r4, r5, r6, r7, r8, lr}
10002f4c:	4718      	bx	r3
10002f4e:	bf00      	nop
10002f50:	10005464 	.word	0x10005464

10002f54 <stdio_put_string>:
10002f54:	e92d 47f0 	stmdb	sp!, {r4, r5, r6, r7, r8, r9, sl, lr}
10002f58:	b082      	sub	sp, #8
10002f5a:	460d      	mov	r5, r1
10002f5c:	4691      	mov	r9, r2
10002f5e:	461c      	mov	r4, r3
10002f60:	4606      	mov	r6, r0
10002f62:	f7ff fc4b 	bl	100027fc <time_us_64>
10002f66:	f04f 3cff 	mov.w	ip, #4294967295	@ 0xffffffff
10002f6a:	f06f 4700 	mvn.w	r7, #2147483648	@ 0x80000000
10002f6e:	4a2e      	ldr	r2, [pc, #184]	@ (10003028 <stdio_put_string+0xd4>)
10002f70:	1882      	adds	r2, r0, r2
10002f72:	f141 0300 	adc.w	r3, r1, #0
10002f76:	4594      	cmp	ip, r2
10002f78:	eb77 0103 	sbcs.w	r1, r7, r3
10002f7c:	bf3c      	itt	cc
10002f7e:	4662      	movcc	r2, ip
10002f80:	463b      	movcc	r3, r7
10002f82:	482a      	ldr	r0, [pc, #168]	@ (1000302c <stdio_put_string+0xd8>)
10002f84:	f002 f90c 	bl	100051a0 <__mutex_try_enter_block_until_veneer>
10002f88:	1c6b      	adds	r3, r5, #1
10002f8a:	4680      	mov	r8, r0
10002f8c:	d040      	beq.n	10003010 <stdio_put_string+0xbc>
10002f8e:	b30c      	cbz	r4, 10002fd4 <stdio_put_string+0x80>
10002f90:	4f27      	ldr	r7, [pc, #156]	@ (10003030 <stdio_put_string+0xdc>)
10002f92:	4b28      	ldr	r3, [pc, #160]	@ (10003034 <stdio_put_string+0xe0>)
10002f94:	681c      	ldr	r4, [r3, #0]
10002f96:	b1b4      	cbz	r4, 10002fc6 <stdio_put_string+0x72>
10002f98:	f1b9 0f00 	cmp.w	r9, #0
10002f9c:	d11c      	bne.n	10002fd8 <stdio_put_string+0x84>
10002f9e:	f8df 909c 	ldr.w	r9, [pc, #156]	@ 1000303c <stdio_put_string+0xe8>
10002fa2:	e001      	b.n	10002fa8 <stdio_put_string+0x54>
10002fa4:	6924      	ldr	r4, [r4, #16]
10002fa6:	b174      	cbz	r4, 10002fc6 <stdio_put_string+0x72>
10002fa8:	6823      	ldr	r3, [r4, #0]
10002faa:	2b00      	cmp	r3, #0
10002fac:	d0fa      	beq.n	10002fa4 <stdio_put_string+0x50>
10002fae:	f8d9 3000 	ldr.w	r3, [r9]
10002fb2:	b10b      	cbz	r3, 10002fb8 <stdio_put_string+0x64>
10002fb4:	429c      	cmp	r4, r3
10002fb6:	d1f5      	bne.n	10002fa4 <stdio_put_string+0x50>
10002fb8:	4620      	mov	r0, r4
10002fba:	462a      	mov	r2, r5
10002fbc:	4631      	mov	r1, r6
10002fbe:	47b8      	blx	r7
10002fc0:	6924      	ldr	r4, [r4, #16]
10002fc2:	2c00      	cmp	r4, #0
10002fc4:	d1f0      	bne.n	10002fa8 <stdio_put_string+0x54>
10002fc6:	f1b8 0f00 	cmp.w	r8, #0
10002fca:	d126      	bne.n	1000301a <stdio_put_string+0xc6>
10002fcc:	4628      	mov	r0, r5
10002fce:	b002      	add	sp, #8
10002fd0:	e8bd 87f0 	ldmia.w	sp!, {r4, r5, r6, r7, r8, r9, sl, pc}
10002fd4:	4f18      	ldr	r7, [pc, #96]	@ (10003038 <stdio_put_string+0xe4>)
10002fd6:	e7dc      	b.n	10002f92 <stdio_put_string+0x3e>
10002fd8:	f04f 0a0a 	mov.w	sl, #10
10002fdc:	f8df 905c 	ldr.w	r9, [pc, #92]	@ 1000303c <stdio_put_string+0xe8>
10002fe0:	e002      	b.n	10002fe8 <stdio_put_string+0x94>
10002fe2:	6924      	ldr	r4, [r4, #16]
10002fe4:	2c00      	cmp	r4, #0
10002fe6:	d0ee      	beq.n	10002fc6 <stdio_put_string+0x72>
10002fe8:	6823      	ldr	r3, [r4, #0]
10002fea:	2b00      	cmp	r3, #0
10002fec:	d0f9      	beq.n	10002fe2 <stdio_put_string+0x8e>
10002fee:	f8d9 3000 	ldr.w	r3, [r9]
10002ff2:	b10b      	cbz	r3, 10002ff8 <stdio_put_string+0xa4>
10002ff4:	42a3      	cmp	r3, r4
10002ff6:	d1f4      	bne.n	10002fe2 <stdio_put_string+0x8e>
10002ff8:	462a      	mov	r2, r5
10002ffa:	4631      	mov	r1, r6
10002ffc:	4620      	mov	r0, r4
10002ffe:	47b8      	blx	r7
10003000:	2201      	movs	r2, #1
10003002:	4620      	mov	r0, r4
10003004:	f10d 0107 	add.w	r1, sp, #7
10003008:	f88d a007 	strb.w	sl, [sp, #7]
1000300c:	47b8      	blx	r7
1000300e:	e7e8      	b.n	10002fe2 <stdio_put_string+0x8e>
10003010:	4630      	mov	r0, r6
10003012:	f002 f82d 	bl	10005070 <strlen>
10003016:	4605      	mov	r5, r0
10003018:	e7b9      	b.n	10002f8e <stdio_put_string+0x3a>
1000301a:	4804      	ldr	r0, [pc, #16]	@ (1000302c <stdio_put_string+0xd8>)
1000301c:	f002 f8b4 	bl	10005188 <__mutex_exit_veneer>
10003020:	4628      	mov	r0, r5
10003022:	b002      	add	sp, #8
10003024:	e8bd 87f0 	ldmia.w	sp!, {r4, r5, r6, r7, r8, r9, sl, pc}
10003028:	000f4240 	.word	0x000f4240
1000302c:	200010d0 	.word	0x200010d0
10003030:	10002ea5 	.word	0x10002ea5
10003034:	20001dd8 	.word	0x20001dd8
10003038:	10002e9d 	.word	0x10002e9d
1000303c:	20001de0 	.word	0x20001de0

10003040 <__wrap_putchar>:
10003040:	b5f0      	push	{r4, r5, r6, r7, lr}
10003042:	b083      	sub	sp, #12
10003044:	4606      	mov	r6, r0
10003046:	f88d 0007 	strb.w	r0, [sp, #7]
1000304a:	f7ff fbd7 	bl	100027fc <time_us_64>
1000304e:	f04f 35ff 	mov.w	r5, #4294967295	@ 0xffffffff
10003052:	f06f 4400 	mvn.w	r4, #2147483648	@ 0x80000000
10003056:	4a17      	ldr	r2, [pc, #92]	@ (100030b4 <__wrap_putchar+0x74>)
10003058:	1882      	adds	r2, r0, r2
1000305a:	f141 0300 	adc.w	r3, r1, #0
1000305e:	4295      	cmp	r5, r2
10003060:	eb74 0103 	sbcs.w	r1, r4, r3
10003064:	bf3c      	itt	cc
10003066:	4623      	movcc	r3, r4
10003068:	462a      	movcc	r2, r5
1000306a:	4813      	ldr	r0, [pc, #76]	@ (100030b8 <__wrap_putchar+0x78>)
1000306c:	f002 f898 	bl	100051a0 <__mutex_try_enter_block_until_veneer>
10003070:	4b12      	ldr	r3, [pc, #72]	@ (100030bc <__wrap_putchar+0x7c>)
10003072:	4607      	mov	r7, r0
10003074:	681c      	ldr	r4, [r3, #0]
10003076:	b19c      	cbz	r4, 100030a0 <__wrap_putchar+0x60>
10003078:	4d11      	ldr	r5, [pc, #68]	@ (100030c0 <__wrap_putchar+0x80>)
1000307a:	e001      	b.n	10003080 <__wrap_putchar+0x40>
1000307c:	6924      	ldr	r4, [r4, #16]
1000307e:	b17c      	cbz	r4, 100030a0 <__wrap_putchar+0x60>
10003080:	6823      	ldr	r3, [r4, #0]
10003082:	2b00      	cmp	r3, #0
10003084:	d0fa      	beq.n	1000307c <__wrap_putchar+0x3c>
10003086:	682b      	ldr	r3, [r5, #0]
10003088:	b10b      	cbz	r3, 1000308e <__wrap_putchar+0x4e>
1000308a:	429c      	cmp	r4, r3
1000308c:	d1f6      	bne.n	1000307c <__wrap_putchar+0x3c>
1000308e:	4620      	mov	r0, r4
10003090:	2201      	movs	r2, #1
10003092:	f10d 0107 	add.w	r1, sp, #7
10003096:	f7ff ff05 	bl	10002ea4 <stdio_out_chars_crlf>
1000309a:	6924      	ldr	r4, [r4, #16]
1000309c:	2c00      	cmp	r4, #0
1000309e:	d1ef      	bne.n	10003080 <__wrap_putchar+0x40>
100030a0:	b917      	cbnz	r7, 100030a8 <__wrap_putchar+0x68>
100030a2:	4630      	mov	r0, r6
100030a4:	b003      	add	sp, #12
100030a6:	bdf0      	pop	{r4, r5, r6, r7, pc}
100030a8:	4803      	ldr	r0, [pc, #12]	@ (100030b8 <__wrap_putchar+0x78>)
100030aa:	f002 f86d 	bl	10005188 <__mutex_exit_veneer>
100030ae:	4630      	mov	r0, r6
100030b0:	b003      	add	sp, #12
100030b2:	bdf0      	pop	{r4, r5, r6, r7, pc}
100030b4:	000f4240 	.word	0x000f4240
100030b8:	200010d0 	.word	0x200010d0
100030bc:	20001dd8 	.word	0x20001dd8
100030c0:	20001de0 	.word	0x20001de0

100030c4 <__wrap_puts>:
100030c4:	b538      	push	{r3, r4, r5, lr}
100030c6:	4604      	mov	r4, r0
100030c8:	f001 ffd2 	bl	10005070 <strlen>
100030cc:	2301      	movs	r3, #1
100030ce:	4605      	mov	r5, r0
100030d0:	461a      	mov	r2, r3
100030d2:	4620      	mov	r0, r4
100030d4:	4629      	mov	r1, r5
100030d6:	f7ff ff3d 	bl	10002f54 <stdio_put_string>
100030da:	4b08      	ldr	r3, [pc, #32]	@ (100030fc <__wrap_puts+0x38>)
100030dc:	681c      	ldr	r4, [r3, #0]
100030de:	b12c      	cbz	r4, 100030ec <__wrap_puts+0x28>
100030e0:	6863      	ldr	r3, [r4, #4]
100030e2:	b12b      	cbz	r3, 100030f0 <__wrap_puts+0x2c>
100030e4:	4798      	blx	r3
100030e6:	6924      	ldr	r4, [r4, #16]
100030e8:	2c00      	cmp	r4, #0
100030ea:	d1f9      	bne.n	100030e0 <__wrap_puts+0x1c>
100030ec:	4628      	mov	r0, r5
100030ee:	bd38      	pop	{r3, r4, r5, pc}
100030f0:	6924      	ldr	r4, [r4, #16]
100030f2:	2c00      	cmp	r4, #0
100030f4:	d1f4      	bne.n	100030e0 <__wrap_puts+0x1c>
100030f6:	4628      	mov	r0, r5
100030f8:	bd38      	pop	{r3, r4, r5, pc}
100030fa:	bf00      	nop
100030fc:	20001dd8 	.word	0x20001dd8

10003100 <dcd_init>:
10003100:	b570      	push	{r4, r5, r6, lr}
10003102:	f000 f92d 	bl	10003360 <rp2040_usb_init>
10003106:	230c      	movs	r3, #12
10003108:	2640      	movs	r6, #64	@ 0x40
1000310a:	4c19      	ldr	r4, [pc, #100]	@ (10003170 <dcd_init+0x70>)
1000310c:	22ff      	movs	r2, #255	@ 0xff
1000310e:	67a3      	str	r3, [r4, #120]	@ 0x78
10003110:	200e      	movs	r0, #14
10003112:	4918      	ldr	r1, [pc, #96]	@ (10003174 <dcd_init+0x74>)
10003114:	f7fe fcc6 	bl	10001aa4 <irq_add_shared_handler>
10003118:	4632      	mov	r2, r6
1000311a:	2100      	movs	r1, #0
1000311c:	4816      	ldr	r0, [pc, #88]	@ (10003178 <dcd_init+0x78>)
1000311e:	f001 fdc7 	bl	10004cb0 <memset>
10003122:	2501      	movs	r5, #1
10003124:	2300      	movs	r3, #0
10003126:	2180      	movs	r1, #128	@ 0x80
10003128:	4813      	ldr	r0, [pc, #76]	@ (10003178 <dcd_init+0x78>)
1000312a:	4a14      	ldr	r2, [pc, #80]	@ (1000317c <dcd_init+0x7c>)
1000312c:	8441      	strh	r1, [r0, #34]	@ 0x22
1000312e:	7045      	strb	r5, [r0, #1]
10003130:	8306      	strh	r6, [r0, #24]
10003132:	8706      	strh	r6, [r0, #56]	@ 0x38
10003134:	6082      	str	r2, [r0, #8]
10003136:	6043      	str	r3, [r0, #4]
10003138:	6013      	str	r3, [r2, #0]
1000313a:	f842 3c04 	str.w	r3, [r2, #-4]
1000313e:	f880 3021 	strb.w	r3, [r0, #33]	@ 0x21
10003142:	f880 303b 	strb.w	r3, [r0, #59]	@ 0x3b
10003146:	6243      	str	r3, [r0, #36]	@ 0x24
10003148:	4b0d      	ldr	r3, [pc, #52]	@ (10003180 <dcd_init+0x80>)
1000314a:	f04f 5600 	mov.w	r6, #536870912	@ 0x20000000
1000314e:	60c3      	str	r3, [r0, #12]
10003150:	62c3      	str	r3, [r0, #44]	@ 0x2c
10003152:	3b80      	subs	r3, #128	@ 0x80
10003154:	6283      	str	r3, [r0, #40]	@ 0x28
10003156:	f002 f827 	bl	100051a8 <__reset_non_control_endpoints_veneer>
1000315a:	f44f 3280 	mov.w	r2, #65536	@ 0x10000
1000315e:	4909      	ldr	r1, [pc, #36]	@ (10003184 <dcd_init+0x84>)
10003160:	4b09      	ldr	r3, [pc, #36]	@ (10003188 <dcd_init+0x88>)
10003162:	6425      	str	r5, [r4, #64]	@ 0x40
10003164:	4628      	mov	r0, r5
10003166:	64e6      	str	r6, [r4, #76]	@ 0x4c
10003168:	f8c4 1090 	str.w	r1, [r4, #144]	@ 0x90
1000316c:	64da      	str	r2, [r3, #76]	@ 0x4c
1000316e:	bd70      	pop	{r4, r5, r6, pc}
10003170:	50110000 	.word	0x50110000
10003174:	200005d5 	.word	0x200005d5
10003178:	20001df8 	.word	0x20001df8
1000317c:	50100084 	.word	0x50100084
10003180:	50100100 	.word	0x50100100
10003184:	0001d010 	.word	0x0001d010
10003188:	50112000 	.word	0x50112000

1000318c <dcd_int_enable>:
1000318c:	2101      	movs	r1, #1
1000318e:	200e      	movs	r0, #14
10003190:	f7fe bc3a 	b.w	10001a08 <irq_set_enabled>

10003194 <dcd_set_address>:
10003194:	2200      	movs	r2, #0
10003196:	4802      	ldr	r0, [pc, #8]	@ (100031a0 <dcd_set_address+0xc>)
10003198:	4611      	mov	r1, r2
1000319a:	f000 b901 	b.w	100033a0 <hw_endpoint_xfer_start>
1000319e:	bf00      	nop
100031a0:	20001e18 	.word	0x20001e18

100031a4 <dcd_sof_enable>:
100031a4:	4b04      	ldr	r3, [pc, #16]	@ (100031b8 <dcd_sof_enable+0x14>)
100031a6:	7019      	strb	r1, [r3, #0]
100031a8:	b121      	cbz	r1, 100031b4 <dcd_sof_enable+0x10>
100031aa:	f44f 3200 	mov.w	r2, #131072	@ 0x20000
100031ae:	4b03      	ldr	r3, [pc, #12]	@ (100031bc <dcd_sof_enable+0x18>)
100031b0:	f8c3 2090 	str.w	r2, [r3, #144]	@ 0x90
100031b4:	4770      	bx	lr
100031b6:	bf00      	nop
100031b8:	200025dd 	.word	0x200025dd
100031bc:	50112000 	.word	0x50112000

100031c0 <dcd_edpt0_status_complete>:
100031c0:	780b      	ldrb	r3, [r1, #0]
100031c2:	065b      	lsls	r3, r3, #25
100031c4:	d102      	bne.n	100031cc <dcd_edpt0_status_complete+0xc>
100031c6:	784b      	ldrb	r3, [r1, #1]
100031c8:	2b05      	cmp	r3, #5
100031ca:	d000      	beq.n	100031ce <dcd_edpt0_status_complete+0xe>
100031cc:	4770      	bx	lr
100031ce:	884b      	ldrh	r3, [r1, #2]
100031d0:	4a01      	ldr	r2, [pc, #4]	@ (100031d8 <dcd_edpt0_status_complete+0x18>)
100031d2:	b2db      	uxtb	r3, r3
100031d4:	6013      	str	r3, [r2, #0]
100031d6:	4770      	bx	lr
100031d8:	50110000 	.word	0x50110000

100031dc <dcd_edpt_open>:
100031dc:	78cb      	ldrb	r3, [r1, #3]
100031de:	e92d 41f0 	stmdb	sp!, {r4, r5, r6, r7, r8, lr}
100031e2:	f003 0e03 	and.w	lr, r3, #3
100031e6:	f1be 0f01 	cmp.w	lr, #1
100031ea:	f3c3 0001 	ubfx	r0, r3, #0, #2
100031ee:	d05b      	beq.n	100032a8 <dcd_edpt_open+0xcc>
100031f0:	2700      	movs	r7, #0
100031f2:	f891 c002 	ldrb.w	ip, [r1, #2]
100031f6:	4c34      	ldr	r4, [pc, #208]	@ (100032c8 <dcd_edpt_open+0xec>)
100031f8:	f00c 027f 	and.w	r2, ip, #127	@ 0x7f
100031fc:	0056      	lsls	r6, r2, #1
100031fe:	8889      	ldrh	r1, [r1, #4]
10003200:	eb06 13dc 	add.w	r3, r6, ip, lsr #7
10003204:	eb04 1343 	add.w	r3, r4, r3, lsl #5
10003208:	ea4f 15dc 	mov.w	r5, ip, lsr #7
1000320c:	76d8      	strb	r0, [r3, #27]
1000320e:	f3c1 010a 	ubfx	r1, r1, #0, #11
10003212:	f085 0001 	eor.w	r0, r5, #1
10003216:	f883 c002 	strb.w	ip, [r3, #2]
1000321a:	8319      	strh	r1, [r3, #24]
1000321c:	7058      	strb	r0, [r3, #1]
1000321e:	70df      	strb	r7, [r3, #3]
10003220:	00d3      	lsls	r3, r2, #3
10003222:	bb8d      	cbnz	r5, 10003288 <dcd_edpt_open+0xac>
10003224:	4829      	ldr	r0, [pc, #164]	@ (100032cc <dcd_edpt_open+0xf0>)
10003226:	3304      	adds	r3, #4
10003228:	eb04 1c82 	add.w	ip, r4, r2, lsl #6
1000322c:	eb03 0800 	add.w	r8, r3, r0
10003230:	f8cc 8008 	str.w	r8, [ip, #8]
10003234:	501f      	str	r7, [r3, r0]
10003236:	b382      	cbz	r2, 1000329a <dcd_edpt_open+0xbe>
10003238:	4b25      	ldr	r3, [pc, #148]	@ (100032d0 <dcd_edpt_open+0xf4>)
1000323a:	00d2      	lsls	r2, r2, #3
1000323c:	4413      	add	r3, r2
1000323e:	f8cc 3004 	str.w	r3, [ip, #4]
10003242:	4b24      	ldr	r3, [pc, #144]	@ (100032d4 <dcd_edpt_open+0xf8>)
10003244:	313f      	adds	r1, #63	@ 0x3f
10003246:	681a      	ldr	r2, [r3, #0]
10003248:	f021 013f 	bic.w	r1, r1, #63	@ 0x3f
1000324c:	f1be 0f02 	cmp.w	lr, #2
10003250:	bf08      	it	eq
10003252:	0049      	lsleq	r1, r1, #1
10003254:	4411      	add	r1, r2
10003256:	6019      	str	r1, [r3, #0]
10003258:	4b1f      	ldr	r3, [pc, #124]	@ (100032d8 <dcd_edpt_open+0xfc>)
1000325a:	1977      	adds	r7, r6, r5
1000325c:	eb04 1747 	add.w	r7, r4, r7, lsl #5
10003260:	4299      	cmp	r1, r3
10003262:	60fa      	str	r2, [r7, #12]
10003264:	d82b      	bhi.n	100032be <dcd_edpt_open+0xe2>
10003266:	442e      	add	r6, r5
10003268:	eb04 1346 	add.w	r3, r4, r6, lsl #5
1000326c:	7ed9      	ldrb	r1, [r3, #27]
1000326e:	f082 42a0 	eor.w	r2, r2, #1342177280	@ 0x50000000
10003272:	f482 1280 	eor.w	r2, r2, #1048576	@ 0x100000
10003276:	685b      	ldr	r3, [r3, #4]
10003278:	ea42 6281 	orr.w	r2, r2, r1, lsl #26
1000327c:	f042 4200 	orr.w	r2, r2, #2147483648	@ 0x80000000
10003280:	601a      	str	r2, [r3, #0]
10003282:	2001      	movs	r0, #1
10003284:	e8bd 81f0 	ldmia.w	sp!, {r4, r5, r6, r7, r8, pc}
10003288:	4810      	ldr	r0, [pc, #64]	@ (100032cc <dcd_edpt_open+0xf0>)
1000328a:	eb04 1c82 	add.w	ip, r4, r2, lsl #6
1000328e:	4403      	add	r3, r0
10003290:	f8cc 3028 	str.w	r3, [ip, #40]	@ 0x28
10003294:	f840 7032 	str.w	r7, [r0, r2, lsl #3]
10003298:	b94a      	cbnz	r2, 100032ae <dcd_edpt_open+0xd2>
1000329a:	2200      	movs	r2, #0
1000329c:	490f      	ldr	r1, [pc, #60]	@ (100032dc <dcd_edpt_open+0x100>)
1000329e:	eb04 1345 	add.w	r3, r4, r5, lsl #5
100032a2:	60d9      	str	r1, [r3, #12]
100032a4:	605a      	str	r2, [r3, #4]
100032a6:	e7ec      	b.n	10003282 <dcd_edpt_open+0xa6>
100032a8:	2000      	movs	r0, #0
100032aa:	e8bd 81f0 	ldmia.w	sp!, {r4, r5, r6, r7, r8, pc}
100032ae:	00d2      	lsls	r2, r2, #3
100032b0:	f102 42a0 	add.w	r2, r2, #1342177280	@ 0x50000000
100032b4:	f502 1280 	add.w	r2, r2, #1048576	@ 0x100000
100032b8:	f8cc 2024 	str.w	r2, [ip, #36]	@ 0x24
100032bc:	e7c1      	b.n	10003242 <dcd_edpt_open+0x66>
100032be:	f7ff fca5 	bl	10002c0c <hard_assertion_failure>
100032c2:	68fa      	ldr	r2, [r7, #12]
100032c4:	e7cf      	b.n	10003266 <dcd_edpt_open+0x8a>
100032c6:	bf00      	nop
100032c8:	20001df8 	.word	0x20001df8
100032cc:	50100080 	.word	0x50100080
100032d0:	50100004 	.word	0x50100004
100032d4:	20002200 	.word	0x20002200
100032d8:	50100fff 	.word	0x50100fff
100032dc:	50100100 	.word	0x50100100

100032e0 <dcd_edpt_close_all>:
100032e0:	f001 bf62 	b.w	100051a8 <__reset_non_control_endpoints_veneer>

100032e4 <dcd_edpt_xfer>:
100032e4:	468c      	mov	ip, r1
100032e6:	b508      	push	{r3, lr}
100032e8:	4611      	mov	r1, r2
100032ea:	4807      	ldr	r0, [pc, #28]	@ (10003308 <dcd_edpt_xfer+0x24>)
100032ec:	461a      	mov	r2, r3
100032ee:	f00c 037f 	and.w	r3, ip, #127	@ 0x7f
100032f2:	ea4f 1cdc 	mov.w	ip, ip, lsr #7
100032f6:	eb0c 0c43 	add.w	ip, ip, r3, lsl #1
100032fa:	eb00 104c 	add.w	r0, r0, ip, lsl #5
100032fe:	f000 f84f 	bl	100033a0 <hw_endpoint_xfer_start>
10003302:	2001      	movs	r0, #1
10003304:	bd08      	pop	{r3, pc}
10003306:	bf00      	nop
10003308:	20001df8 	.word	0x20001df8

1000330c <dcd_edpt_stall>:
1000330c:	f011 027f 	ands.w	r2, r1, #127	@ 0x7f
10003310:	d105      	bne.n	1000331e <dcd_edpt_stall+0x12>
10003312:	2900      	cmp	r1, #0
10003314:	bf0c      	ite	eq
10003316:	2002      	moveq	r0, #2
10003318:	2001      	movne	r0, #1
1000331a:	4b06      	ldr	r3, [pc, #24]	@ (10003334 <dcd_edpt_stall+0x28>)
1000331c:	6698      	str	r0, [r3, #104]	@ 0x68
1000331e:	09c9      	lsrs	r1, r1, #7
10003320:	4b05      	ldr	r3, [pc, #20]	@ (10003338 <dcd_edpt_stall+0x2c>)
10003322:	eb01 0042 	add.w	r0, r1, r2, lsl #1
10003326:	eb03 1040 	add.w	r0, r3, r0, lsl #5
1000332a:	f44f 6200 	mov.w	r2, #2048	@ 0x800
1000332e:	2100      	movs	r1, #0
10003330:	f001 bf32 	b.w	10005198 <___hw_endpoint_buffer_control_update32_veneer>
10003334:	50112000 	.word	0x50112000
10003338:	20001df8 	.word	0x20001df8

1000333c <dcd_edpt_clear_stall>:
1000333c:	f011 037f 	ands.w	r3, r1, #127	@ 0x7f
10003340:	d100      	bne.n	10003344 <dcd_edpt_clear_stall+0x8>
10003342:	4770      	bx	lr
10003344:	2200      	movs	r2, #0
10003346:	4805      	ldr	r0, [pc, #20]	@ (1000335c <dcd_edpt_clear_stall+0x20>)
10003348:	005b      	lsls	r3, r3, #1
1000334a:	eb03 13d1 	add.w	r3, r3, r1, lsr #7
1000334e:	eb00 1043 	add.w	r0, r0, r3, lsl #5
10003352:	f46f 6100 	mvn.w	r1, #2048	@ 0x800
10003356:	70c2      	strb	r2, [r0, #3]
10003358:	f001 bf1e 	b.w	10005198 <___hw_endpoint_buffer_control_update32_veneer>
1000335c:	20001df8 	.word	0x20001df8

10003360 <rp2040_usb_init>:
10003360:	f04f 5280 	mov.w	r2, #268435456	@ 0x10000000
10003364:	4809      	ldr	r0, [pc, #36]	@ (1000338c <rp2040_usb_init+0x2c>)
10003366:	490a      	ldr	r1, [pc, #40]	@ (10003390 <rp2040_usb_init+0x30>)
10003368:	b508      	push	{r3, lr}
1000336a:	4b0a      	ldr	r3, [pc, #40]	@ (10003394 <rp2040_usb_init+0x34>)
1000336c:	6002      	str	r2, [r0, #0]
1000336e:	600a      	str	r2, [r1, #0]
10003370:	6899      	ldr	r1, [r3, #8]
10003372:	43c9      	mvns	r1, r1
10003374:	f011 5180 	ands.w	r1, r1, #268435456	@ 0x10000000
10003378:	d1fa      	bne.n	10003370 <rp2040_usb_init+0x10>
1000337a:	f44f 5280 	mov.w	r2, #4096	@ 0x1000
1000337e:	4806      	ldr	r0, [pc, #24]	@ (10003398 <rp2040_usb_init+0x38>)
10003380:	f001 fc96 	bl	10004cb0 <memset>
10003384:	2209      	movs	r2, #9
10003386:	4b05      	ldr	r3, [pc, #20]	@ (1000339c <rp2040_usb_init+0x3c>)
10003388:	675a      	str	r2, [r3, #116]	@ 0x74
1000338a:	bd08      	pop	{r3, pc}
1000338c:	40022000 	.word	0x40022000
10003390:	40023000 	.word	0x40023000
10003394:	40020000 	.word	0x40020000
10003398:	50100000 	.word	0x50100000
1000339c:	50110000 	.word	0x50110000

100033a0 <hw_endpoint_xfer_start>:
100033a0:	2300      	movs	r3, #0
100033a2:	f04f 0c01 	mov.w	ip, #1
100033a6:	b510      	push	{r4, lr}
100033a8:	f880 c01a 	strb.w	ip, [r0, #26]
100033ac:	8282      	strh	r2, [r0, #20]
100033ae:	82c3      	strh	r3, [r0, #22]
100033b0:	6101      	str	r1, [r0, #16]
100033b2:	4604      	mov	r4, r0
100033b4:	f001 fefc 	bl	100051b0 <__e15_is_bulkin_ep_veneer>
100033b8:	b120      	cbz	r0, 100033c4 <hw_endpoint_xfer_start+0x24>
100033ba:	f44f 3200 	mov.w	r2, #131072	@ 0x20000
100033be:	4b07      	ldr	r3, [pc, #28]	@ (100033dc <hw_endpoint_xfer_start+0x3c>)
100033c0:	f8c3 2090 	str.w	r2, [r3, #144]	@ 0x90
100033c4:	4620      	mov	r0, r4
100033c6:	f001 fed3 	bl	10005170 <__e15_is_critical_frame_period_veneer>
100033ca:	b110      	cbz	r0, 100033d2 <hw_endpoint_xfer_start+0x32>
100033cc:	2301      	movs	r3, #1
100033ce:	7723      	strb	r3, [r4, #28]
100033d0:	bd10      	pop	{r4, pc}
100033d2:	4620      	mov	r0, r4
100033d4:	e8bd 4010 	ldmia.w	sp!, {r4, lr}
100033d8:	f001 bed2 	b.w	10005180 <__hw_endpoint_start_next_buffer_veneer>
100033dc:	50112000 	.word	0x50112000

100033e0 <tud_vendor_control_xfer_cb>:
100033e0:	2000      	movs	r0, #0
100033e2:	4770      	bx	lr

100033e4 <configuration_reset>:
100033e4:	e92d 41f0 	stmdb	sp!, {r4, r5, r6, r7, r8, lr}
100033e8:	f04f 0800 	mov.w	r8, #0
100033ec:	4d1c      	ldr	r5, [pc, #112]	@ (10003460 <configuration_reset+0x7c>)
100033ee:	4604      	mov	r4, r0
100033f0:	4642      	mov	r2, r8
100033f2:	782b      	ldrb	r3, [r5, #0]
100033f4:	4f1b      	ldr	r7, [pc, #108]	@ (10003464 <configuration_reset+0x80>)
100033f6:	4e1c      	ldr	r6, [pc, #112]	@ (10003468 <configuration_reset+0x84>)
100033f8:	e00d      	b.n	10003416 <configuration_reset+0x32>
100033fa:	6833      	ldr	r3, [r6, #0]
100033fc:	eb13 1342 	adds.w	r3, r3, r2, lsl #5
10003400:	d024      	beq.n	1000344c <configuration_reset+0x68>
10003402:	68db      	ldr	r3, [r3, #12]
10003404:	4620      	mov	r0, r4
10003406:	4798      	blx	r3
10003408:	f108 0801 	add.w	r8, r8, #1
1000340c:	782b      	ldrb	r3, [r5, #0]
1000340e:	fa5f f288 	uxtb.w	r2, r8
10003412:	4293      	cmp	r3, r2
10003414:	d306      	bcc.n	10003424 <configuration_reset+0x40>
10003416:	4293      	cmp	r3, r2
10003418:	eba2 0303 	sub.w	r3, r2, r3
1000341c:	d8ed      	bhi.n	100033fa <configuration_reset+0x16>
1000341e:	eb07 1343 	add.w	r3, r7, r3, lsl #5
10003422:	e7ee      	b.n	10003402 <configuration_reset+0x1e>
10003424:	2254      	movs	r2, #84	@ 0x54
10003426:	2100      	movs	r1, #0
10003428:	4810      	ldr	r0, [pc, #64]	@ (1000346c <configuration_reset+0x88>)
1000342a:	f001 fc41 	bl	10004cb0 <memset>
1000342e:	f04f 33ff 	mov.w	r3, #4294967295	@ 0xffffffff
10003432:	480e      	ldr	r0, [pc, #56]	@ (1000346c <configuration_reset+0x88>)
10003434:	2220      	movs	r2, #32
10003436:	1d04      	adds	r4, r0, #4
10003438:	6043      	str	r3, [r0, #4]
1000343a:	e9c4 3301 	strd	r3, r3, [r4, #4]
1000343e:	60e3      	str	r3, [r4, #12]
10003440:	21ff      	movs	r1, #255	@ 0xff
10003442:	e8bd 41f0 	ldmia.w	sp!, {r4, r5, r6, r7, r8, lr}
10003446:	3014      	adds	r0, #20
10003448:	f001 bc32 	b.w	10004cb0 <memset>
1000344c:	f04f 23e0 	mov.w	r3, #3758153728	@ 0xe000e000
10003450:	f8d3 3df0 	ldr.w	r3, [r3, #3568]	@ 0xdf0
10003454:	07db      	lsls	r3, r3, #31
10003456:	d500      	bpl.n	1000345a <configuration_reset+0x76>
10003458:	be00      	bkpt	0x0000
1000345a:	e8bd 81f0 	ldmia.w	sp!, {r4, r5, r6, r7, r8, pc}
1000345e:	bf00      	nop
10003460:	200025dc 	.word	0x200025dc
10003464:	10005468 	.word	0x10005468
10003468:	20001810 	.word	0x20001810
1000346c:	20001b60 	.word	0x20001b60

10003470 <tud_event_hook_cb>:
10003470:	4770      	bx	lr
10003472:	bf00      	nop

10003474 <tud_sof_cb>:
10003474:	4770      	bx	lr
10003476:	bf00      	nop

10003478 <tud_descriptor_bos_cb>:
10003478:	2000      	movs	r0, #0
1000347a:	4770      	bx	lr

1000347c <tud_descriptor_device_qualifier_cb>:
1000347c:	2000      	movs	r0, #0
1000347e:	4770      	bx	lr

10003480 <tud_descriptor_other_speed_configuration_cb>:
10003480:	2000      	movs	r0, #0
10003482:	4770      	bx	lr

10003484 <tud_mount_cb>:
10003484:	4770      	bx	lr
10003486:	bf00      	nop

10003488 <tud_umount_cb>:
10003488:	4770      	bx	lr
1000348a:	bf00      	nop

1000348c <tud_suspend_cb>:
1000348c:	4770      	bx	lr
1000348e:	bf00      	nop

10003490 <tud_resume_cb>:
10003490:	4770      	bx	lr
10003492:	bf00      	nop

10003494 <tud_mounted>:
10003494:	4b02      	ldr	r3, [pc, #8]	@ (100034a0 <tud_mounted+0xc>)
10003496:	7858      	ldrb	r0, [r3, #1]
10003498:	3800      	subs	r0, #0
1000349a:	bf18      	it	ne
1000349c:	2001      	movne	r0, #1
1000349e:	4770      	bx	lr
100034a0:	20001b60 	.word	0x20001b60

100034a4 <tud_suspended>:
100034a4:	4b02      	ldr	r3, [pc, #8]	@ (100034b0 <tud_suspended+0xc>)
100034a6:	7818      	ldrb	r0, [r3, #0]
100034a8:	f3c0 0080 	ubfx	r0, r0, #2, #1
100034ac:	4770      	bx	lr
100034ae:	bf00      	nop
100034b0:	20001b60 	.word	0x20001b60

100034b4 <tud_rhport_init>:
100034b4:	e92d 47f0 	stmdb	sp!, {r4, r5, r6, r7, r8, r9, sl, lr}
100034b8:	f8df 90e4 	ldr.w	r9, [pc, #228]	@ 100035a0 <tud_rhport_init+0xec>
100034bc:	f899 3000 	ldrb.w	r3, [r9]
100034c0:	2bff      	cmp	r3, #255	@ 0xff
100034c2:	d155      	bne.n	10003570 <tud_rhport_init+0xbc>
100034c4:	460d      	mov	r5, r1
100034c6:	2900      	cmp	r1, #0
100034c8:	d03d      	beq.n	10003546 <tud_rhport_init+0x92>
100034ca:	2100      	movs	r1, #0
100034cc:	2254      	movs	r2, #84	@ 0x54
100034ce:	4606      	mov	r6, r0
100034d0:	4829      	ldr	r0, [pc, #164]	@ (10003578 <tud_rhport_init+0xc4>)
100034d2:	f001 fbed 	bl	10004cb0 <memset>
100034d6:	2200      	movs	r2, #0
100034d8:	4c28      	ldr	r4, [pc, #160]	@ (1000357c <tud_rhport_init+0xc8>)
100034da:	4b29      	ldr	r3, [pc, #164]	@ (10003580 <tud_rhport_init+0xcc>)
100034dc:	4620      	mov	r0, r4
100034de:	701a      	strb	r2, [r3, #0]
100034e0:	f7fe fd58 	bl	10001f94 <mutex_init>
100034e4:	4b27      	ldr	r3, [pc, #156]	@ (10003584 <tud_rhport_init+0xd0>)
100034e6:	4828      	ldr	r0, [pc, #160]	@ (10003588 <tud_rhport_init+0xd4>)
100034e8:	601c      	str	r4, [r3, #0]
100034ea:	4c28      	ldr	r4, [pc, #160]	@ (1000358c <tud_rhport_init+0xd8>)
100034ec:	f7fe fd60 	bl	10001fb0 <critical_section_init>
100034f0:	4620      	mov	r0, r4
100034f2:	f001 fb85 	bl	10004c00 <tu_fifo_clear>
100034f6:	4a26      	ldr	r2, [pc, #152]	@ (10003590 <tud_rhport_init+0xdc>)
100034f8:	4b26      	ldr	r3, [pc, #152]	@ (10003594 <tud_rhport_init+0xe0>)
100034fa:	6014      	str	r4, [r2, #0]
100034fc:	b123      	cbz	r3, 10003508 <tud_rhport_init+0x54>
100034fe:	4826      	ldr	r0, [pc, #152]	@ (10003598 <tud_rhport_init+0xe4>)
10003500:	f3af 8000 	nop.w
10003504:	4b25      	ldr	r3, [pc, #148]	@ (1000359c <tud_rhport_init+0xe8>)
10003506:	6018      	str	r0, [r3, #0]
10003508:	f04f 0a00 	mov.w	sl, #0
1000350c:	4c22      	ldr	r4, [pc, #136]	@ (10003598 <tud_rhport_init+0xe4>)
1000350e:	4653      	mov	r3, sl
10003510:	7822      	ldrb	r2, [r4, #0]
10003512:	f8df 8090 	ldr.w	r8, [pc, #144]	@ 100035a4 <tud_rhport_init+0xf0>
10003516:	4f21      	ldr	r7, [pc, #132]	@ (1000359c <tud_rhport_init+0xe8>)
10003518:	e00d      	b.n	10003536 <tud_rhport_init+0x82>
1000351a:	683a      	ldr	r2, [r7, #0]
1000351c:	eb12 1343 	adds.w	r3, r2, r3, lsl #5
10003520:	d011      	beq.n	10003546 <tud_rhport_init+0x92>
10003522:	685b      	ldr	r3, [r3, #4]
10003524:	b17b      	cbz	r3, 10003546 <tud_rhport_init+0x92>
10003526:	4798      	blx	r3
10003528:	f10a 0a01 	add.w	sl, sl, #1
1000352c:	7822      	ldrb	r2, [r4, #0]
1000352e:	fa5f f38a 	uxtb.w	r3, sl
10003532:	4293      	cmp	r3, r2
10003534:	d811      	bhi.n	1000355a <tud_rhport_init+0xa6>
10003536:	4293      	cmp	r3, r2
10003538:	d3ef      	bcc.n	1000351a <tud_rhport_init+0x66>
1000353a:	1a9b      	subs	r3, r3, r2
1000353c:	eb08 1343 	add.w	r3, r8, r3, lsl #5
10003540:	685b      	ldr	r3, [r3, #4]
10003542:	2b00      	cmp	r3, #0
10003544:	d1ef      	bne.n	10003526 <tud_rhport_init+0x72>
10003546:	f04f 23e0 	mov.w	r3, #3758153728	@ 0xe000e000
1000354a:	f8d3 3df0 	ldr.w	r3, [r3, #3568]	@ 0xdf0
1000354e:	07db      	lsls	r3, r3, #31
10003550:	d500      	bpl.n	10003554 <tud_rhport_init+0xa0>
10003552:	be00      	bkpt	0x0000
10003554:	2000      	movs	r0, #0
10003556:	e8bd 87f0 	ldmia.w	sp!, {r4, r5, r6, r7, r8, r9, sl, pc}
1000355a:	4629      	mov	r1, r5
1000355c:	4630      	mov	r0, r6
1000355e:	f889 6000 	strb.w	r6, [r9]
10003562:	f7ff fdcd 	bl	10003100 <dcd_init>
10003566:	2800      	cmp	r0, #0
10003568:	d0ed      	beq.n	10003546 <tud_rhport_init+0x92>
1000356a:	4630      	mov	r0, r6
1000356c:	f7ff fe0e 	bl	1000318c <dcd_int_enable>
10003570:	2001      	movs	r0, #1
10003572:	e8bd 87f0 	ldmia.w	sp!, {r4, r5, r6, r7, r8, r9, sl, pc}
10003576:	bf00      	nop
10003578:	20001b60 	.word	0x20001b60
1000357c:	20001b58 	.word	0x20001b58
10003580:	200025de 	.word	0x200025de
10003584:	20001bb4 	.word	0x20001bb4
10003588:	200010c0 	.word	0x200010c0
1000358c:	200010ac 	.word	0x200010ac
10003590:	20001bb8 	.word	0x20001bb8
10003594:	00000000 	.word	0x00000000
10003598:	200025dc 	.word	0x200025dc
1000359c:	20001810 	.word	0x20001810
100035a0:	200010c8 	.word	0x200010c8
100035a4:	10005468 	.word	0x10005468

100035a8 <tud_task_ext>:
100035a8:	e92d 4ff0 	stmdb	sp!, {r4, r5, r6, r7, r8, r9, sl, fp, lr}
100035ac:	f8df 92b0 	ldr.w	r9, [pc, #688]	@ 10003860 <tud_task_ext+0x2b8>
100035b0:	b08b      	sub	sp, #44	@ 0x2c
100035b2:	f899 3000 	ldrb.w	r3, [r9]
100035b6:	2bff      	cmp	r3, #255	@ 0xff
100035b8:	f000 80ed 	beq.w	10003796 <tud_task_ext+0x1ee>
100035bc:	4ca2      	ldr	r4, [pc, #648]	@ (10003848 <tud_task_ext+0x2a0>)
100035be:	4da3      	ldr	r5, [pc, #652]	@ (1000384c <tud_task_ext+0x2a4>)
100035c0:	f8df a298 	ldr.w	sl, [pc, #664]	@ 1000385c <tud_task_ext+0x2b4>
100035c4:	f8df b29c 	ldr.w	fp, [pc, #668]	@ 10003864 <tud_task_ext+0x2bc>
100035c8:	6826      	ldr	r6, [r4, #0]
100035ca:	6973      	ldr	r3, [r6, #20]
100035cc:	f3ef 8210 	mrs	r2, PRIMASK
100035d0:	b672      	cpsid	i
100035d2:	e8d3 0fcf 	ldaexb	r0, [r3]
100035d6:	2101      	movs	r1, #1
100035d8:	2800      	cmp	r0, #0
100035da:	d1fa      	bne.n	100035d2 <tud_task_ext+0x2a>
100035dc:	e8c3 1f40 	strexb	r0, r1, [r3]
100035e0:	2800      	cmp	r0, #0
100035e2:	d1f6      	bne.n	100035d2 <tud_task_ext+0x2a>
100035e4:	f3bf 8f5f 	dmb	sy
100035e8:	61b2      	str	r2, [r6, #24]
100035ea:	4630      	mov	r0, r6
100035ec:	a907      	add	r1, sp, #28
100035ee:	f001 f951 	bl	10004894 <tu_fifo_read>
100035f2:	2300      	movs	r3, #0
100035f4:	6972      	ldr	r2, [r6, #20]
100035f6:	e8c2 3f8f 	stlb	r3, [r2]
100035fa:	69b3      	ldr	r3, [r6, #24]
100035fc:	f383 8810 	msr	PRIMASK, r3
10003600:	2800      	cmp	r0, #0
10003602:	f000 80c8 	beq.w	10003796 <tud_task_ext+0x1ee>
10003606:	f89d 301d 	ldrb.w	r3, [sp, #29]
1000360a:	3b01      	subs	r3, #1
1000360c:	2b07      	cmp	r3, #7
1000360e:	f200 836b 	bhi.w	10003ce8 <tud_task_ext+0x740>
10003612:	e8df f003 	tbb	[pc, r3]
10003616:	afa5      	.short	0xafa5
10003618:	358c9b93 	.word	0x358c9b93
1000361c:	040a      	.short	0x040a
1000361e:	9b08      	ldr	r3, [sp, #32]
10003620:	2b00      	cmp	r3, #0
10003622:	d0d1      	beq.n	100035c8 <tud_task_ext+0x20>
10003624:	9809      	ldr	r0, [sp, #36]	@ 0x24
10003626:	4798      	blx	r3
10003628:	e7ce      	b.n	100035c8 <tud_task_ext+0x20>
1000362a:	f89d 1020 	ldrb.w	r1, [sp, #32]
1000362e:	f001 067f 	and.w	r6, r1, #127	@ 0x7f
10003632:	eb05 0046 	add.w	r0, r5, r6, lsl #1
10003636:	eb00 10d1 	add.w	r0, r0, r1, lsr #7
1000363a:	f890 3034 	ldrb.w	r3, [r0, #52]	@ 0x34
1000363e:	f023 0301 	bic.w	r3, r3, #1
10003642:	f880 3034 	strb.w	r3, [r0, #52]	@ 0x34
10003646:	f890 3034 	ldrb.w	r3, [r0, #52]	@ 0x34
1000364a:	f023 0304 	bic.w	r3, r3, #4
1000364e:	f880 3034 	strb.w	r3, [r0, #52]	@ 0x34
10003652:	2e00      	cmp	r6, #0
10003654:	f000 80a2 	beq.w	1000379c <tud_task_ext+0x1f4>
10003658:	7d02      	ldrb	r2, [r0, #20]
1000365a:	f89a 3000 	ldrb.w	r3, [sl]
1000365e:	429a      	cmp	r2, r3
10003660:	f080 8091 	bcs.w	10003786 <tud_task_ext+0x1de>
10003664:	4b7a      	ldr	r3, [pc, #488]	@ (10003850 <tud_task_ext+0x2a8>)
10003666:	681b      	ldr	r3, [r3, #0]
10003668:	eb13 1342 	adds.w	r3, r3, r2, lsl #5
1000366c:	f000 808c 	beq.w	10003788 <tud_task_ext+0x1e0>
10003670:	699e      	ldr	r6, [r3, #24]
10003672:	f89d 2021 	ldrb.w	r2, [sp, #33]	@ 0x21
10003676:	9b09      	ldr	r3, [sp, #36]	@ 0x24
10003678:	f89d 001c 	ldrb.w	r0, [sp, #28]
1000367c:	47b0      	blx	r6
1000367e:	e7a3      	b.n	100035c8 <tud_task_ext+0x20>
10003680:	f89b 3000 	ldrb.w	r3, [fp]
10003684:	2b00      	cmp	r3, #0
10003686:	d07f      	beq.n	10003788 <tud_task_ext+0x1e0>
10003688:	f89b 3000 	ldrb.w	r3, [fp]
1000368c:	3b01      	subs	r3, #1
1000368e:	b2db      	uxtb	r3, r3
10003690:	f88b 3000 	strb.w	r3, [fp]
10003694:	f89b 3000 	ldrb.w	r3, [fp]
10003698:	f003 00ff 	and.w	r0, r3, #255	@ 0xff
1000369c:	2b00      	cmp	r3, #0
1000369e:	d193      	bne.n	100035c8 <tud_task_ext+0x20>
100036a0:	4f6a      	ldr	r7, [pc, #424]	@ (1000384c <tud_task_ext+0x2a4>)
100036a2:	f89d 801c 	ldrb.w	r8, [sp, #28]
100036a6:	783b      	ldrb	r3, [r7, #0]
100036a8:	f043 0301 	orr.w	r3, r3, #1
100036ac:	703b      	strb	r3, [r7, #0]
100036ae:	f897 3034 	ldrb.w	r3, [r7, #52]	@ 0x34
100036b2:	f360 0300 	bfi	r3, r0, #0, #1
100036b6:	f887 3034 	strb.w	r3, [r7, #52]	@ 0x34
100036ba:	f897 3034 	ldrb.w	r3, [r7, #52]	@ 0x34
100036be:	f360 0382 	bfi	r3, r0, #2, #1
100036c2:	f887 3034 	strb.w	r3, [r7, #52]	@ 0x34
100036c6:	f897 3035 	ldrb.w	r3, [r7, #53]	@ 0x35
100036ca:	f360 0300 	bfi	r3, r0, #0, #1
100036ce:	f887 3035 	strb.w	r3, [r7, #53]	@ 0x35
100036d2:	f897 3035 	ldrb.w	r3, [r7, #53]	@ 0x35
100036d6:	f360 0382 	bfi	r3, r0, #2, #1
100036da:	f887 3035 	strb.w	r3, [r7, #53]	@ 0x35
100036de:	f000 fc5b 	bl	10003f98 <usbd_control_set_complete_callback>
100036e2:	f89d 3020 	ldrb.w	r3, [sp, #32]
100036e6:	f003 0260 	and.w	r2, r3, #96	@ 0x60
100036ea:	2a60      	cmp	r2, #96	@ 0x60
100036ec:	d066      	beq.n	100037bc <tud_task_ext+0x214>
100036ee:	2a40      	cmp	r2, #64	@ 0x40
100036f0:	d076      	beq.n	100037e0 <tud_task_ext+0x238>
100036f2:	f003 031f 	and.w	r3, r3, #31
100036f6:	2b01      	cmp	r3, #1
100036f8:	f000 80b6 	beq.w	10003868 <tud_task_ext+0x2c0>
100036fc:	2b02      	cmp	r3, #2
100036fe:	d07b      	beq.n	100037f8 <tud_task_ext+0x250>
10003700:	2b00      	cmp	r3, #0
10003702:	d15b      	bne.n	100037bc <tud_task_ext+0x214>
10003704:	2a20      	cmp	r2, #32
10003706:	f000 81db 	beq.w	10003ac0 <tud_task_ext+0x518>
1000370a:	2a00      	cmp	r2, #0
1000370c:	d156      	bne.n	100037bc <tud_task_ext+0x214>
1000370e:	f89d 3021 	ldrb.w	r3, [sp, #33]	@ 0x21
10003712:	2b09      	cmp	r3, #9
10003714:	d852      	bhi.n	100037bc <tud_task_ext+0x214>
10003716:	e8df f013 	tbh	[pc, r3, lsl #1]
1000371a:	01a2      	.short	0x01a2
1000371c:	00510194 	.word	0x00510194
10003720:	005101b3 	.word	0x005101b3
10003724:	015d0187 	.word	0x015d0187
10003728:	01520051 	.word	0x01520051
1000372c:	00e5      	.short	0x00e5
1000372e:	782b      	ldrb	r3, [r5, #0]
10003730:	07d9      	lsls	r1, r3, #31
10003732:	f57f af49 	bpl.w	100035c8 <tud_task_ext+0x20>
10003736:	f7ff feab 	bl	10003490 <tud_resume_cb>
1000373a:	e745      	b.n	100035c8 <tud_task_ext+0x20>
1000373c:	78eb      	ldrb	r3, [r5, #3]
1000373e:	07da      	lsls	r2, r3, #31
10003740:	f57f af42 	bpl.w	100035c8 <tud_task_ext+0x20>
10003744:	9808      	ldr	r0, [sp, #32]
10003746:	f7ff fe95 	bl	10003474 <tud_sof_cb>
1000374a:	e73d      	b.n	100035c8 <tud_task_ext+0x20>
1000374c:	782b      	ldrb	r3, [r5, #0]
1000374e:	07d8      	lsls	r0, r3, #31
10003750:	f57f af3a 	bpl.w	100035c8 <tud_task_ext+0x20>
10003754:	7828      	ldrb	r0, [r5, #0]
10003756:	f3c0 00c0 	ubfx	r0, r0, #3, #1
1000375a:	f7ff fe97 	bl	1000348c <tud_suspend_cb>
1000375e:	e733      	b.n	100035c8 <tud_task_ext+0x20>
10003760:	f89d 001c 	ldrb.w	r0, [sp, #28]
10003764:	f7ff fe3e 	bl	100033e4 <configuration_reset>
10003768:	f000 fc0c 	bl	10003f84 <usbd_control_reset>
1000376c:	f89d 3020 	ldrb.w	r3, [sp, #32]
10003770:	70ab      	strb	r3, [r5, #2]
10003772:	e729      	b.n	100035c8 <tud_task_ext+0x20>
10003774:	f89d 001c 	ldrb.w	r0, [sp, #28]
10003778:	f7ff fe34 	bl	100033e4 <configuration_reset>
1000377c:	f000 fc02 	bl	10003f84 <usbd_control_reset>
10003780:	f7ff fe82 	bl	10003488 <tud_umount_cb>
10003784:	e720      	b.n	100035c8 <tud_task_ext+0x20>
10003786:	d011      	beq.n	100037ac <tud_task_ext+0x204>
10003788:	f04f 23e0 	mov.w	r3, #3758153728	@ 0xe000e000
1000378c:	f8d3 3df0 	ldr.w	r3, [r3, #3568]	@ 0xdf0
10003790:	07dc      	lsls	r4, r3, #31
10003792:	d500      	bpl.n	10003796 <tud_task_ext+0x1ee>
10003794:	be00      	bkpt	0x0000
10003796:	b00b      	add	sp, #44	@ 0x2c
10003798:	e8bd 8ff0 	ldmia.w	sp!, {r4, r5, r6, r7, r8, r9, sl, fp, pc}
1000379c:	9b09      	ldr	r3, [sp, #36]	@ 0x24
1000379e:	f89d 2021 	ldrb.w	r2, [sp, #33]	@ 0x21
100037a2:	f89d 001c 	ldrb.w	r0, [sp, #28]
100037a6:	f000 fc0b 	bl	10003fc0 <usbd_control_xfer_cb>
100037aa:	e70d      	b.n	100035c8 <tud_task_ext+0x20>
100037ac:	4b29      	ldr	r3, [pc, #164]	@ (10003854 <tud_task_ext+0x2ac>)
100037ae:	e75f      	b.n	10003670 <tud_task_ext+0xc8>
100037b0:	f7fd fa7a 	bl	10000ca8 <tud_descriptor_configuration_cb>
100037b4:	4602      	mov	r2, r0
100037b6:	2800      	cmp	r0, #0
100037b8:	f040 8179 	bne.w	10003aae <tud_task_ext+0x506>
100037bc:	f04f 23e0 	mov.w	r3, #3758153728	@ 0xe000e000
100037c0:	f8d3 3df0 	ldr.w	r3, [r3, #3568]	@ 0xdf0
100037c4:	07de      	lsls	r6, r3, #31
100037c6:	d500      	bpl.n	100037ca <tud_task_ext+0x222>
100037c8:	be00      	bkpt	0x0000
100037ca:	f89d 001c 	ldrb.w	r0, [sp, #28]
100037ce:	2100      	movs	r1, #0
100037d0:	f7ff fd9c 	bl	1000330c <dcd_edpt_stall>
100037d4:	2180      	movs	r1, #128	@ 0x80
100037d6:	f89d 001c 	ldrb.w	r0, [sp, #28]
100037da:	f7ff fd97 	bl	1000330c <dcd_edpt_stall>
100037de:	e6f3      	b.n	100035c8 <tud_task_ext+0x20>
100037e0:	481d      	ldr	r0, [pc, #116]	@ (10003858 <tud_task_ext+0x2b0>)
100037e2:	f000 fbd9 	bl	10003f98 <usbd_control_set_complete_callback>
100037e6:	2101      	movs	r1, #1
100037e8:	4640      	mov	r0, r8
100037ea:	aa08      	add	r2, sp, #32
100037ec:	f7ff fdf8 	bl	100033e0 <tud_vendor_control_xfer_cb>
100037f0:	2800      	cmp	r0, #0
100037f2:	f47f aee9 	bne.w	100035c8 <tud_task_ext+0x20>
100037f6:	e7e8      	b.n	100037ca <tud_task_ext+0x222>
100037f8:	f89d 1024 	ldrb.w	r1, [sp, #36]	@ 0x24
100037fc:	f011 0f70 	tst.w	r1, #112	@ 0x70
10003800:	d1dc      	bne.n	100037bc <tud_task_ext+0x214>
10003802:	f001 067f 	and.w	r6, r1, #127	@ 0x7f
10003806:	eb07 0046 	add.w	r0, r7, r6, lsl #1
1000380a:	4b14      	ldr	r3, [pc, #80]	@ (1000385c <tud_task_ext+0x2b4>)
1000380c:	eb00 10d1 	add.w	r0, r0, r1, lsr #7
10003810:	781b      	ldrb	r3, [r3, #0]
10003812:	7d00      	ldrb	r0, [r0, #20]
10003814:	0076      	lsls	r6, r6, #1
10003816:	9601      	str	r6, [sp, #4]
10003818:	4298      	cmp	r0, r3
1000381a:	ea4f 16d1 	mov.w	r6, r1, lsr #7
1000381e:	9600      	str	r6, [sp, #0]
10003820:	d34f      	bcc.n	100038c2 <tud_task_ext+0x31a>
10003822:	f040 815f 	bne.w	10003ae4 <tud_task_ext+0x53c>
10003826:	4e0b      	ldr	r6, [pc, #44]	@ (10003854 <tud_task_ext+0x2ac>)
10003828:	2a00      	cmp	r2, #0
1000382a:	f000 815f 	beq.w	10003aec <tud_task_ext+0x544>
1000382e:	6970      	ldr	r0, [r6, #20]
10003830:	f000 fbb2 	bl	10003f98 <usbd_control_set_complete_callback>
10003834:	2101      	movs	r1, #1
10003836:	4640      	mov	r0, r8
10003838:	6973      	ldr	r3, [r6, #20]
1000383a:	aa08      	add	r2, sp, #32
1000383c:	4798      	blx	r3
1000383e:	2800      	cmp	r0, #0
10003840:	f47f aec2 	bne.w	100035c8 <tud_task_ext+0x20>
10003844:	e7c1      	b.n	100037ca <tud_task_ext+0x222>
10003846:	bf00      	nop
10003848:	20001bb8 	.word	0x20001bb8
1000384c:	20001b60 	.word	0x20001b60
10003850:	20001810 	.word	0x20001810
10003854:	10005468 	.word	0x10005468
10003858:	100033e1 	.word	0x100033e1
1000385c:	200025dc 	.word	0x200025dc
10003860:	200010c8 	.word	0x200010c8
10003864:	200025de 	.word	0x200025de
10003868:	f89d 3024 	ldrb.w	r3, [sp, #36]	@ 0x24
1000386c:	2b0f      	cmp	r3, #15
1000386e:	d8ac      	bhi.n	100037ca <tud_task_ext+0x222>
10003870:	4aaa      	ldr	r2, [pc, #680]	@ (10003b1c <tud_task_ext+0x574>)
10003872:	443b      	add	r3, r7
10003874:	791b      	ldrb	r3, [r3, #4]
10003876:	7812      	ldrb	r2, [r2, #0]
10003878:	4293      	cmp	r3, r2
1000387a:	d32d      	bcc.n	100038d8 <tud_task_ext+0x330>
1000387c:	d1a5      	bne.n	100037ca <tud_task_ext+0x222>
1000387e:	4ea8      	ldr	r6, [pc, #672]	@ (10003b20 <tud_task_ext+0x578>)
10003880:	6970      	ldr	r0, [r6, #20]
10003882:	f000 fb89 	bl	10003f98 <usbd_control_set_complete_callback>
10003886:	2101      	movs	r1, #1
10003888:	4640      	mov	r0, r8
1000388a:	6973      	ldr	r3, [r6, #20]
1000388c:	aa08      	add	r2, sp, #32
1000388e:	4798      	blx	r3
10003890:	2800      	cmp	r0, #0
10003892:	f47f ae99 	bne.w	100035c8 <tud_task_ext+0x20>
10003896:	f89d 3020 	ldrb.w	r3, [sp, #32]
1000389a:	f013 0660 	ands.w	r6, r3, #96	@ 0x60
1000389e:	d194      	bne.n	100037ca <tud_task_ext+0x222>
100038a0:	f89d 3021 	ldrb.w	r3, [sp, #33]	@ 0x21
100038a4:	3b0a      	subs	r3, #10
100038a6:	2b01      	cmp	r3, #1
100038a8:	d88f      	bhi.n	100037ca <tud_task_ext+0x222>
100038aa:	f000 fb75 	bl	10003f98 <usbd_control_set_complete_callback>
100038ae:	f89d 3021 	ldrb.w	r3, [sp, #33]	@ 0x21
100038b2:	2b0a      	cmp	r3, #10
100038b4:	f000 81f1 	beq.w	10003c9a <tud_task_ext+0x6f2>
100038b8:	4640      	mov	r0, r8
100038ba:	a908      	add	r1, sp, #32
100038bc:	f000 faf0 	bl	10003ea0 <tud_control_status>
100038c0:	e682      	b.n	100035c8 <tud_task_ext+0x20>
100038c2:	4b98      	ldr	r3, [pc, #608]	@ (10003b24 <tud_task_ext+0x57c>)
100038c4:	681b      	ldr	r3, [r3, #0]
100038c6:	eb03 1640 	add.w	r6, r3, r0, lsl #5
100038ca:	2a00      	cmp	r2, #0
100038cc:	f000 810e 	beq.w	10003aec <tud_task_ext+0x544>
100038d0:	2e00      	cmp	r6, #0
100038d2:	f43f af7a 	beq.w	100037ca <tud_task_ext+0x222>
100038d6:	e7aa      	b.n	1000382e <tud_task_ext+0x286>
100038d8:	4a92      	ldr	r2, [pc, #584]	@ (10003b24 <tud_task_ext+0x57c>)
100038da:	6816      	ldr	r6, [r2, #0]
100038dc:	eb16 1643 	adds.w	r6, r6, r3, lsl #5
100038e0:	d1ce      	bne.n	10003880 <tud_task_ext+0x2d8>
100038e2:	e772      	b.n	100037ca <tud_task_ext+0x222>
100038e4:	787b      	ldrb	r3, [r7, #1]
100038e6:	f89d 6022 	ldrb.w	r6, [sp, #34]	@ 0x22
100038ea:	429e      	cmp	r6, r3
100038ec:	f000 814c 	beq.w	10003b88 <tud_task_ext+0x5e0>
100038f0:	787b      	ldrb	r3, [r7, #1]
100038f2:	2b00      	cmp	r3, #0
100038f4:	f040 81bd 	bne.w	10003c72 <tud_task_ext+0x6ca>
100038f8:	707e      	strb	r6, [r7, #1]
100038fa:	2e00      	cmp	r6, #0
100038fc:	f000 8142 	beq.w	10003b84 <tud_task_ext+0x5dc>
10003900:	1e70      	subs	r0, r6, #1
10003902:	b2c0      	uxtb	r0, r0
10003904:	f7fd f9d0 	bl	10000ca8 <tud_descriptor_configuration_cb>
10003908:	4603      	mov	r3, r0
1000390a:	2800      	cmp	r0, #0
1000390c:	f000 815e 	beq.w	10003bcc <tud_task_ext+0x624>
10003910:	7842      	ldrb	r2, [r0, #1]
10003912:	2a02      	cmp	r2, #2
10003914:	f040 815a 	bne.w	10003bcc <tud_task_ext+0x624>
10003918:	79c1      	ldrb	r1, [r0, #7]
1000391a:	f103 0609 	add.w	r6, r3, #9
1000391e:	f3c1 1240 	ubfx	r2, r1, #5, #1
10003922:	0112      	lsls	r2, r2, #4
10003924:	f3c1 1180 	ubfx	r1, r1, #6, #1
10003928:	ea42 1241 	orr.w	r2, r2, r1, lsl #5
1000392c:	4631      	mov	r1, r6
1000392e:	7838      	ldrb	r0, [r7, #0]
10003930:	f020 0030 	bic.w	r0, r0, #48	@ 0x30
10003934:	4302      	orrs	r2, r0
10003936:	703a      	strb	r2, [r7, #0]
10003938:	885a      	ldrh	r2, [r3, #2]
1000393a:	f8cd 8008 	str.w	r8, [sp, #8]
1000393e:	189a      	adds	r2, r3, r2
10003940:	9200      	str	r2, [sp, #0]
10003942:	9b00      	ldr	r3, [sp, #0]
10003944:	428b      	cmp	r3, r1
10003946:	f240 81a3 	bls.w	10003c90 <tud_task_ext+0x6e8>
1000394a:	784b      	ldrb	r3, [r1, #1]
1000394c:	2b0b      	cmp	r3, #11
1000394e:	f000 81ae 	beq.w	10003cae <tud_task_ext+0x706>
10003952:	f04f 0c01 	mov.w	ip, #1
10003956:	2b04      	cmp	r3, #4
10003958:	f040 8138 	bne.w	10003bcc <tud_task_ext+0x624>
1000395c:	2300      	movs	r3, #0
1000395e:	9a00      	ldr	r2, [sp, #0]
10003960:	461e      	mov	r6, r3
10003962:	1a52      	subs	r2, r2, r1
10003964:	b292      	uxth	r2, r2
10003966:	9201      	str	r2, [sp, #4]
10003968:	4a6c      	ldr	r2, [pc, #432]	@ (10003b1c <tud_task_ext+0x574>)
1000396a:	f8cd c00c 	str.w	ip, [sp, #12]
1000396e:	7812      	ldrb	r2, [r2, #0]
10003970:	e01d      	b.n	100039ae <tud_task_ext+0x406>
10003972:	4a6c      	ldr	r2, [pc, #432]	@ (10003b24 <tud_task_ext+0x57c>)
10003974:	6812      	ldr	r2, [r2, #0]
10003976:	eb12 1846 	adds.w	r8, r2, r6, lsl #5
1000397a:	f000 8127 	beq.w	10003bcc <tud_task_ext+0x624>
1000397e:	9a01      	ldr	r2, [sp, #4]
10003980:	9305      	str	r3, [sp, #20]
10003982:	9802      	ldr	r0, [sp, #8]
10003984:	f8d8 3010 	ldr.w	r3, [r8, #16]
10003988:	9104      	str	r1, [sp, #16]
1000398a:	4798      	blx	r3
1000398c:	9b05      	ldr	r3, [sp, #20]
1000398e:	2808      	cmp	r0, #8
10003990:	4602      	mov	r2, r0
10003992:	9904      	ldr	r1, [sp, #16]
10003994:	f103 0301 	add.w	r3, r3, #1
10003998:	d903      	bls.n	100039a2 <tud_task_ext+0x3fa>
1000399a:	9801      	ldr	r0, [sp, #4]
1000399c:	4290      	cmp	r0, r2
1000399e:	f080 80f8 	bcs.w	10003b92 <tud_task_ext+0x5ea>
100039a2:	4a5e      	ldr	r2, [pc, #376]	@ (10003b1c <tud_task_ext+0x574>)
100039a4:	b2de      	uxtb	r6, r3
100039a6:	7812      	ldrb	r2, [r2, #0]
100039a8:	42b2      	cmp	r2, r6
100039aa:	f0c0 810f 	bcc.w	10003bcc <tud_task_ext+0x624>
100039ae:	42b2      	cmp	r2, r6
100039b0:	eba6 0202 	sub.w	r2, r6, r2
100039b4:	d8dd      	bhi.n	10003972 <tud_task_ext+0x3ca>
100039b6:	485a      	ldr	r0, [pc, #360]	@ (10003b20 <tud_task_ext+0x578>)
100039b8:	eb00 1842 	add.w	r8, r0, r2, lsl #5
100039bc:	e7df      	b.n	1000397e <tud_task_ext+0x3d6>
100039be:	787b      	ldrb	r3, [r7, #1]
100039c0:	4640      	mov	r0, r8
100039c2:	f88d 301a 	strb.w	r3, [sp, #26]
100039c6:	f10d 021a 	add.w	r2, sp, #26
100039ca:	2301      	movs	r3, #1
100039cc:	a908      	add	r1, sp, #32
100039ce:	f000 fa81 	bl	10003ed4 <tud_control_xfer>
100039d2:	e5f9      	b.n	100035c8 <tud_task_ext+0x20>
100039d4:	f8bd 0022 	ldrh.w	r0, [sp, #34]	@ 0x22
100039d8:	0a03      	lsrs	r3, r0, #8
100039da:	3b01      	subs	r3, #1
100039dc:	0a02      	lsrs	r2, r0, #8
100039de:	b2c0      	uxtb	r0, r0
100039e0:	2b0e      	cmp	r3, #14
100039e2:	f63f aef2 	bhi.w	100037ca <tud_task_ext+0x222>
100039e6:	a101      	add	r1, pc, #4	@ (adr r1, 100039ec <tud_task_ext+0x444>)
100039e8:	f851 f023 	ldr.w	pc, [r1, r3, lsl #2]
100039ec:	10003bfd 	.word	0x10003bfd
100039f0:	10003a9d 	.word	0x10003a9d
100039f4:	10003c39 	.word	0x10003c39
100039f8:	100037cb 	.word	0x100037cb
100039fc:	100037cb 	.word	0x100037cb
10003a00:	10003c1b 	.word	0x10003c1b
10003a04:	10003a9d 	.word	0x10003a9d
10003a08:	100037cb 	.word	0x100037cb
10003a0c:	100037cb 	.word	0x100037cb
10003a10:	100037cb 	.word	0x100037cb
10003a14:	100037cb 	.word	0x100037cb
10003a18:	100037cb 	.word	0x100037cb
10003a1c:	100037cb 	.word	0x100037cb
10003a20:	100037cb 	.word	0x100037cb
10003a24:	10003bef 	.word	0x10003bef
10003a28:	a808      	add	r0, sp, #32
10003a2a:	f000 fabb 	bl	10003fa4 <usbd_control_set_request>
10003a2e:	4640      	mov	r0, r8
10003a30:	f89d 1022 	ldrb.w	r1, [sp, #34]	@ 0x22
10003a34:	f7ff fbae 	bl	10003194 <dcd_set_address>
10003a38:	783b      	ldrb	r3, [r7, #0]
10003a3a:	f043 0302 	orr.w	r3, r3, #2
10003a3e:	703b      	strb	r3, [r7, #0]
10003a40:	e5c2      	b.n	100035c8 <tud_task_ext+0x20>
10003a42:	f8bd 3022 	ldrh.w	r3, [sp, #34]	@ 0x22
10003a46:	2b01      	cmp	r3, #1
10003a48:	f47f aebf 	bne.w	100037ca <tud_task_ext+0x222>
10003a4c:	783b      	ldrb	r3, [r7, #0]
10003a4e:	4640      	mov	r0, r8
10003a50:	f023 0308 	bic.w	r3, r3, #8
10003a54:	a908      	add	r1, sp, #32
10003a56:	703b      	strb	r3, [r7, #0]
10003a58:	f000 fa22 	bl	10003ea0 <tud_control_status>
10003a5c:	e5b4      	b.n	100035c8 <tud_task_ext+0x20>
10003a5e:	4640      	mov	r0, r8
10003a60:	783b      	ldrb	r3, [r7, #0]
10003a62:	089a      	lsrs	r2, r3, #2
10003a64:	f002 0202 	and.w	r2, r2, #2
10003a68:	f3c3 1340 	ubfx	r3, r3, #5, #1
10003a6c:	4313      	orrs	r3, r2
10003a6e:	f8ad 301a 	strh.w	r3, [sp, #26]
10003a72:	f10d 021a 	add.w	r2, sp, #26
10003a76:	2302      	movs	r3, #2
10003a78:	a908      	add	r1, sp, #32
10003a7a:	f000 fa2b 	bl	10003ed4 <tud_control_xfer>
10003a7e:	e5a3      	b.n	100035c8 <tud_task_ext+0x20>
10003a80:	f8bd 3022 	ldrh.w	r3, [sp, #34]	@ 0x22
10003a84:	2b01      	cmp	r3, #1
10003a86:	f47f aea0 	bne.w	100037ca <tud_task_ext+0x222>
10003a8a:	783b      	ldrb	r3, [r7, #0]
10003a8c:	4640      	mov	r0, r8
10003a8e:	f043 0308 	orr.w	r3, r3, #8
10003a92:	a908      	add	r1, sp, #32
10003a94:	703b      	strb	r3, [r7, #0]
10003a96:	f000 fa03 	bl	10003ea0 <tud_control_status>
10003a9a:	e595      	b.n	100035c8 <tud_task_ext+0x20>
10003a9c:	2a02      	cmp	r2, #2
10003a9e:	f43f ae87 	beq.w	100037b0 <tud_task_ext+0x208>
10003aa2:	f7ff fced 	bl	10003480 <tud_descriptor_other_speed_configuration_cb>
10003aa6:	4602      	mov	r2, r0
10003aa8:	2800      	cmp	r0, #0
10003aaa:	f43f ae8e 	beq.w	100037ca <tud_task_ext+0x222>
10003aae:	4640      	mov	r0, r8
10003ab0:	8853      	ldrh	r3, [r2, #2]
10003ab2:	a908      	add	r1, sp, #32
10003ab4:	f000 fa0e 	bl	10003ed4 <tud_control_xfer>
10003ab8:	2800      	cmp	r0, #0
10003aba:	f47f ad85 	bne.w	100035c8 <tud_task_ext+0x20>
10003abe:	e684      	b.n	100037ca <tud_task_ext+0x222>
10003ac0:	f89d 3024 	ldrb.w	r3, [sp, #36]	@ 0x24
10003ac4:	2b0f      	cmp	r3, #15
10003ac6:	f63f ae80 	bhi.w	100037ca <tud_task_ext+0x222>
10003aca:	4a14      	ldr	r2, [pc, #80]	@ (10003b1c <tud_task_ext+0x574>)
10003acc:	443b      	add	r3, r7
10003ace:	791b      	ldrb	r3, [r3, #4]
10003ad0:	7812      	ldrb	r2, [r2, #0]
10003ad2:	4293      	cmp	r3, r2
10003ad4:	d21d      	bcs.n	10003b12 <tud_task_ext+0x56a>
10003ad6:	4a13      	ldr	r2, [pc, #76]	@ (10003b24 <tud_task_ext+0x57c>)
10003ad8:	6816      	ldr	r6, [r2, #0]
10003ada:	eb16 1643 	adds.w	r6, r6, r3, lsl #5
10003ade:	f47f aea6 	bne.w	1000382e <tud_task_ext+0x286>
10003ae2:	e672      	b.n	100037ca <tud_task_ext+0x222>
10003ae4:	2a00      	cmp	r2, #0
10003ae6:	f47f ae70 	bne.w	100037ca <tud_task_ext+0x222>
10003aea:	2600      	movs	r6, #0
10003aec:	f89d 2021 	ldrb.w	r2, [sp, #33]	@ 0x21
10003af0:	f002 03fd 	and.w	r3, r2, #253	@ 0xfd
10003af4:	2b01      	cmp	r3, #1
10003af6:	d017      	beq.n	10003b28 <tud_task_ext+0x580>
10003af8:	2a00      	cmp	r2, #0
10003afa:	f47f ae5f 	bne.w	100037bc <tud_task_ext+0x214>
10003afe:	9b01      	ldr	r3, [sp, #4]
10003b00:	9a00      	ldr	r2, [sp, #0]
10003b02:	443b      	add	r3, r7
10003b04:	4413      	add	r3, r2
10003b06:	f893 3034 	ldrb.w	r3, [r3, #52]	@ 0x34
10003b0a:	4640      	mov	r0, r8
10003b0c:	f3c3 0340 	ubfx	r3, r3, #1, #1
10003b10:	e7ad      	b.n	10003a6e <tud_task_ext+0x4c6>
10003b12:	f47f ae5a 	bne.w	100037ca <tud_task_ext+0x222>
10003b16:	4e02      	ldr	r6, [pc, #8]	@ (10003b20 <tud_task_ext+0x578>)
10003b18:	e689      	b.n	1000382e <tud_task_ext+0x286>
10003b1a:	bf00      	nop
10003b1c:	200025dc 	.word	0x200025dc
10003b20:	10005468 	.word	0x10005468
10003b24:	20001810 	.word	0x20001810
10003b28:	f8bd 3022 	ldrh.w	r3, [sp, #34]	@ 0x22
10003b2c:	b9b3      	cbnz	r3, 10003b5c <tud_task_ext+0x5b4>
10003b2e:	2a01      	cmp	r2, #1
10003b30:	f899 0000 	ldrb.w	r0, [r9]
10003b34:	f000 8088 	beq.w	10003c48 <tud_task_ext+0x6a0>
10003b38:	f7ff fbe8 	bl	1000330c <dcd_edpt_stall>
10003b3c:	9b01      	ldr	r3, [sp, #4]
10003b3e:	9a00      	ldr	r2, [sp, #0]
10003b40:	443b      	add	r3, r7
10003b42:	4413      	add	r3, r2
10003b44:	f893 2034 	ldrb.w	r2, [r3, #52]	@ 0x34
10003b48:	f042 0202 	orr.w	r2, r2, #2
10003b4c:	f883 2034 	strb.w	r2, [r3, #52]	@ 0x34
10003b50:	f893 2034 	ldrb.w	r2, [r3, #52]	@ 0x34
10003b54:	f042 0201 	orr.w	r2, r2, #1
10003b58:	f883 2034 	strb.w	r2, [r3, #52]	@ 0x34
10003b5c:	2e00      	cmp	r6, #0
10003b5e:	f43f ad33 	beq.w	100035c8 <tud_task_ext+0x20>
10003b62:	6970      	ldr	r0, [r6, #20]
10003b64:	f000 fa18 	bl	10003f98 <usbd_control_set_complete_callback>
10003b68:	6973      	ldr	r3, [r6, #20]
10003b6a:	2101      	movs	r1, #1
10003b6c:	aa08      	add	r2, sp, #32
10003b6e:	4640      	mov	r0, r8
10003b70:	4798      	blx	r3
10003b72:	2000      	movs	r0, #0
10003b74:	f000 fa10 	bl	10003f98 <usbd_control_set_complete_callback>
10003b78:	f897 3035 	ldrb.w	r3, [r7, #53]	@ 0x35
10003b7c:	07df      	lsls	r7, r3, #31
10003b7e:	f53f ad23 	bmi.w	100035c8 <tud_task_ext+0x20>
10003b82:	e699      	b.n	100038b8 <tud_task_ext+0x310>
10003b84:	f7ff fc80 	bl	10003488 <tud_umount_cb>
10003b88:	4640      	mov	r0, r8
10003b8a:	a908      	add	r1, sp, #32
10003b8c:	f000 f988 	bl	10003ea0 <tud_control_status>
10003b90:	e51a      	b.n	100035c8 <tud_task_ext+0x20>
10003b92:	f8dd c00c 	ldr.w	ip, [sp, #12]
10003b96:	f1bc 0f01 	cmp.w	ip, #1
10003b9a:	f000 809d 	beq.w	10003cd8 <tud_task_ext+0x730>
10003b9e:	f1bc 0f00 	cmp.w	ip, #0
10003ba2:	f000 808a 	beq.w	10003cba <tud_task_ext+0x712>
10003ba6:	2300      	movs	r3, #0
10003ba8:	f891 8002 	ldrb.w	r8, [r1, #2]
10003bac:	e004      	b.n	10003bb8 <tud_task_ext+0x610>
10003bae:	7106      	strb	r6, [r0, #4]
10003bb0:	b2d8      	uxtb	r0, r3
10003bb2:	4584      	cmp	ip, r0
10003bb4:	f240 8081 	bls.w	10003cba <tud_task_ext+0x712>
10003bb8:	eb08 0003 	add.w	r0, r8, r3
10003bbc:	fa57 f080 	uxtab	r0, r7, r0
10003bc0:	f890 e004 	ldrb.w	lr, [r0, #4]
10003bc4:	3301      	adds	r3, #1
10003bc6:	f1be 0fff 	cmp.w	lr, #255	@ 0xff
10003bca:	d0f0      	beq.n	10003bae <tud_task_ext+0x606>
10003bcc:	f04f 23e0 	mov.w	r3, #3758153728	@ 0xe000e000
10003bd0:	f8d3 3df0 	ldr.w	r3, [r3, #3568]	@ 0xdf0
10003bd4:	07da      	lsls	r2, r3, #31
10003bd6:	d500      	bpl.n	10003bda <tud_task_ext+0x632>
10003bd8:	be00      	bkpt	0x0000
10003bda:	f04f 23e0 	mov.w	r3, #3758153728	@ 0xe000e000
10003bde:	f8d3 3df0 	ldr.w	r3, [r3, #3568]	@ 0xdf0
10003be2:	07db      	lsls	r3, r3, #31
10003be4:	d500      	bpl.n	10003be8 <tud_task_ext+0x640>
10003be6:	be00      	bkpt	0x0000
10003be8:	2300      	movs	r3, #0
10003bea:	707b      	strb	r3, [r7, #1]
10003bec:	e5ed      	b.n	100037ca <tud_task_ext+0x222>
10003bee:	f7ff fc43 	bl	10003478 <tud_descriptor_bos_cb>
10003bf2:	4602      	mov	r2, r0
10003bf4:	2800      	cmp	r0, #0
10003bf6:	f47f af5a 	bne.w	10003aae <tud_task_ext+0x506>
10003bfa:	e5e6      	b.n	100037ca <tud_task_ext+0x222>
10003bfc:	f7fd f850 	bl	10000ca0 <tud_descriptor_device_cb>
10003c00:	4602      	mov	r2, r0
10003c02:	2800      	cmp	r0, #0
10003c04:	f43f adda 	beq.w	100037bc <tud_task_ext+0x214>
10003c08:	4640      	mov	r0, r8
10003c0a:	2312      	movs	r3, #18
10003c0c:	a908      	add	r1, sp, #32
10003c0e:	f000 f961 	bl	10003ed4 <tud_control_xfer>
10003c12:	2800      	cmp	r0, #0
10003c14:	f47f acd8 	bne.w	100035c8 <tud_task_ext+0x20>
10003c18:	e5d7      	b.n	100037ca <tud_task_ext+0x222>
10003c1a:	f7ff fc2f 	bl	1000347c <tud_descriptor_device_qualifier_cb>
10003c1e:	4602      	mov	r2, r0
10003c20:	2800      	cmp	r0, #0
10003c22:	f43f add2 	beq.w	100037ca <tud_task_ext+0x222>
10003c26:	4640      	mov	r0, r8
10003c28:	7813      	ldrb	r3, [r2, #0]
10003c2a:	a908      	add	r1, sp, #32
10003c2c:	f000 f952 	bl	10003ed4 <tud_control_xfer>
10003c30:	2800      	cmp	r0, #0
10003c32:	f47f acc9 	bne.w	100035c8 <tud_task_ext+0x20>
10003c36:	e5c8      	b.n	100037ca <tud_task_ext+0x222>
10003c38:	f8bd 1024 	ldrh.w	r1, [sp, #36]	@ 0x24
10003c3c:	f7fd f838 	bl	10000cb0 <tud_descriptor_string_cb>
10003c40:	4602      	mov	r2, r0
10003c42:	2800      	cmp	r0, #0
10003c44:	d1ef      	bne.n	10003c26 <tud_task_ext+0x67e>
10003c46:	e5c0      	b.n	100037ca <tud_task_ext+0x222>
10003c48:	9302      	str	r3, [sp, #8]
10003c4a:	f7ff fb77 	bl	1000333c <dcd_edpt_clear_stall>
10003c4e:	9a01      	ldr	r2, [sp, #4]
10003c50:	9b00      	ldr	r3, [sp, #0]
10003c52:	443a      	add	r2, r7
10003c54:	441a      	add	r2, r3
10003c56:	f892 1034 	ldrb.w	r1, [r2, #52]	@ 0x34
10003c5a:	9b02      	ldr	r3, [sp, #8]
10003c5c:	f363 0141 	bfi	r1, r3, #1, #1
10003c60:	f882 1034 	strb.w	r1, [r2, #52]	@ 0x34
10003c64:	f892 1034 	ldrb.w	r1, [r2, #52]	@ 0x34
10003c68:	f363 0100 	bfi	r1, r3, #0, #1
10003c6c:	f882 1034 	strb.w	r1, [r2, #52]	@ 0x34
10003c70:	e774      	b.n	10003b5c <tud_task_ext+0x5b4>
10003c72:	2100      	movs	r1, #0
10003c74:	4640      	mov	r0, r8
10003c76:	f7ff fa95 	bl	100031a4 <dcd_sof_enable>
10003c7a:	4640      	mov	r0, r8
10003c7c:	f7ff fb30 	bl	100032e0 <dcd_edpt_close_all>
10003c80:	78bb      	ldrb	r3, [r7, #2]
10003c82:	4640      	mov	r0, r8
10003c84:	9300      	str	r3, [sp, #0]
10003c86:	f7ff fbad 	bl	100033e4 <configuration_reset>
10003c8a:	9b00      	ldr	r3, [sp, #0]
10003c8c:	70bb      	strb	r3, [r7, #2]
10003c8e:	e633      	b.n	100038f8 <tud_task_ext+0x350>
10003c90:	f8dd 8008 	ldr.w	r8, [sp, #8]
10003c94:	f7ff fbf6 	bl	10003484 <tud_mount_cb>
10003c98:	e776      	b.n	10003b88 <tud_task_ext+0x5e0>
10003c9a:	4640      	mov	r0, r8
10003c9c:	2301      	movs	r3, #1
10003c9e:	a908      	add	r1, sp, #32
10003ca0:	f10d 021a 	add.w	r2, sp, #26
10003ca4:	f88d 601a 	strb.w	r6, [sp, #26]
10003ca8:	f000 f914 	bl	10003ed4 <tud_control_xfer>
10003cac:	e48c      	b.n	100035c8 <tud_task_ext+0x20>
10003cae:	780b      	ldrb	r3, [r1, #0]
10003cb0:	f891 c003 	ldrb.w	ip, [r1, #3]
10003cb4:	4419      	add	r1, r3
10003cb6:	784b      	ldrb	r3, [r1, #1]
10003cb8:	e64d      	b.n	10003956 <tud_task_ext+0x3ae>
10003cba:	4633      	mov	r3, r6
10003cbc:	480f      	ldr	r0, [pc, #60]	@ (10003cfc <tud_task_ext+0x754>)
10003cbe:	9203      	str	r2, [sp, #12]
10003cc0:	9101      	str	r1, [sp, #4]
10003cc2:	f000 fd5f 	bl	10004784 <tu_edpt_bind_driver>
10003cc6:	4b0e      	ldr	r3, [pc, #56]	@ (10003d00 <tud_task_ext+0x758>)
10003cc8:	9901      	ldr	r1, [sp, #4]
10003cca:	781b      	ldrb	r3, [r3, #0]
10003ccc:	9a03      	ldr	r2, [sp, #12]
10003cce:	42b3      	cmp	r3, r6
10003cd0:	4411      	add	r1, r2
10003cd2:	f4bf ae36 	bcs.w	10003942 <tud_task_ext+0x39a>
10003cd6:	e779      	b.n	10003bcc <tud_task_ext+0x624>
10003cd8:	f8d8 0010 	ldr.w	r0, [r8, #16]
10003cdc:	4b09      	ldr	r3, [pc, #36]	@ (10003d04 <tud_task_ext+0x75c>)
10003cde:	4298      	cmp	r0, r3
10003ce0:	bf08      	it	eq
10003ce2:	f04f 0c02 	moveq.w	ip, #2
10003ce6:	e75e      	b.n	10003ba6 <tud_task_ext+0x5fe>
10003ce8:	f04f 23e0 	mov.w	r3, #3758153728	@ 0xe000e000
10003cec:	f8d3 3df0 	ldr.w	r3, [r3, #3568]	@ 0xdf0
10003cf0:	07db      	lsls	r3, r3, #31
10003cf2:	f57f ac69 	bpl.w	100035c8 <tud_task_ext+0x20>
10003cf6:	be00      	bkpt	0x0000
10003cf8:	e466      	b.n	100035c8 <tud_task_ext+0x20>
10003cfa:	bf00      	nop
10003cfc:	20001b74 	.word	0x20001b74
10003d00:	200025dc 	.word	0x200025dc
10003d04:	100043bd 	.word	0x100043bd

10003d08 <usbd_open_edpt_pair>:
10003d08:	e92d 4ff8 	stmdb	sp!, {r3, r4, r5, r6, r7, r8, r9, sl, fp, lr}
10003d0c:	9f0a      	ldr	r7, [sp, #40]	@ 0x28
10003d0e:	2a00      	cmp	r2, #0
10003d10:	d040      	beq.n	10003d94 <usbd_open_edpt_pair+0x8c>
10003d12:	460c      	mov	r4, r1
10003d14:	461e      	mov	r6, r3
10003d16:	4615      	mov	r5, r2
10003d18:	f04f 0a00 	mov.w	sl, #0
10003d1c:	f8df 907c 	ldr.w	r9, [pc, #124]	@ 10003d9c <usbd_open_edpt_pair+0x94>
10003d20:	f8df 807c 	ldr.w	r8, [pc, #124]	@ 10003da0 <usbd_open_edpt_pair+0x98>
10003d24:	e018      	b.n	10003d58 <usbd_open_edpt_pair+0x50>
10003d26:	4620      	mov	r0, r4
10003d28:	f898 1002 	ldrb.w	r1, [r8, #2]
10003d2c:	f899 b000 	ldrb.w	fp, [r9]
10003d30:	f000 fcf8 	bl	10004724 <tu_edpt_validate>
10003d34:	b1e0      	cbz	r0, 10003d70 <usbd_open_edpt_pair+0x68>
10003d36:	4621      	mov	r1, r4
10003d38:	4658      	mov	r0, fp
10003d3a:	f7ff fa4f 	bl	100031dc <dcd_edpt_open>
10003d3e:	b1f0      	cbz	r0, 10003d7e <usbd_open_edpt_pair+0x76>
10003d40:	78a2      	ldrb	r2, [r4, #2]
10003d42:	f10a 0a01 	add.w	sl, sl, #1
10003d46:	09d1      	lsrs	r1, r2, #7
10003d48:	bf16      	itet	ne
10003d4a:	9b0b      	ldrne	r3, [sp, #44]	@ 0x2c
10003d4c:	703a      	strbeq	r2, [r7, #0]
10003d4e:	701a      	strbne	r2, [r3, #0]
10003d50:	7822      	ldrb	r2, [r4, #0]
10003d52:	45aa      	cmp	sl, r5
10003d54:	4414      	add	r4, r2
10003d56:	d01d      	beq.n	10003d94 <usbd_open_edpt_pair+0x8c>
10003d58:	7862      	ldrb	r2, [r4, #1]
10003d5a:	2a05      	cmp	r2, #5
10003d5c:	d10f      	bne.n	10003d7e <usbd_open_edpt_pair+0x76>
10003d5e:	78e1      	ldrb	r1, [r4, #3]
10003d60:	f001 0103 	and.w	r1, r1, #3
10003d64:	42b1      	cmp	r1, r6
10003d66:	d10a      	bne.n	10003d7e <usbd_open_edpt_pair+0x76>
10003d68:	78a2      	ldrb	r2, [r4, #2]
10003d6a:	f012 0f70 	tst.w	r2, #112	@ 0x70
10003d6e:	d0da      	beq.n	10003d26 <usbd_open_edpt_pair+0x1e>
10003d70:	f04f 23e0 	mov.w	r3, #3758153728	@ 0xe000e000
10003d74:	f8d3 3df0 	ldr.w	r3, [r3, #3568]	@ 0xdf0
10003d78:	07da      	lsls	r2, r3, #31
10003d7a:	d500      	bpl.n	10003d7e <usbd_open_edpt_pair+0x76>
10003d7c:	be00      	bkpt	0x0000
10003d7e:	f04f 23e0 	mov.w	r3, #3758153728	@ 0xe000e000
10003d82:	f8d3 3df0 	ldr.w	r3, [r3, #3568]	@ 0xdf0
10003d86:	07db      	lsls	r3, r3, #31
10003d88:	d402      	bmi.n	10003d90 <usbd_open_edpt_pair+0x88>
10003d8a:	2000      	movs	r0, #0
10003d8c:	e8bd 8ff8 	ldmia.w	sp!, {r3, r4, r5, r6, r7, r8, r9, sl, fp, pc}
10003d90:	be00      	bkpt	0x0000
10003d92:	e7fa      	b.n	10003d8a <usbd_open_edpt_pair+0x82>
10003d94:	2001      	movs	r0, #1
10003d96:	e8bd 8ff8 	ldmia.w	sp!, {r3, r4, r5, r6, r7, r8, r9, sl, fp, pc}
10003d9a:	bf00      	nop
10003d9c:	200010c8 	.word	0x200010c8
10003da0:	20001b60 	.word	0x20001b60

10003da4 <usbd_edpt_open>:
10003da4:	b538      	push	{r3, r4, r5, lr}
10003da6:	788b      	ldrb	r3, [r1, #2]
10003da8:	f013 0f70 	tst.w	r3, #112	@ 0x70
10003dac:	d008      	beq.n	10003dc0 <usbd_edpt_open+0x1c>
10003dae:	f04f 23e0 	mov.w	r3, #3758153728	@ 0xe000e000
10003db2:	f8d3 3df0 	ldr.w	r3, [r3, #3568]	@ 0xdf0
10003db6:	07db      	lsls	r3, r3, #31
10003db8:	d500      	bpl.n	10003dbc <usbd_edpt_open+0x18>
10003dba:	be00      	bkpt	0x0000
10003dbc:	2000      	movs	r0, #0
10003dbe:	bd38      	pop	{r3, r4, r5, pc}
10003dc0:	4a07      	ldr	r2, [pc, #28]	@ (10003de0 <usbd_edpt_open+0x3c>)
10003dc2:	4b08      	ldr	r3, [pc, #32]	@ (10003de4 <usbd_edpt_open+0x40>)
10003dc4:	460c      	mov	r4, r1
10003dc6:	4608      	mov	r0, r1
10003dc8:	7891      	ldrb	r1, [r2, #2]
10003dca:	781d      	ldrb	r5, [r3, #0]
10003dcc:	f000 fcaa 	bl	10004724 <tu_edpt_validate>
10003dd0:	2800      	cmp	r0, #0
10003dd2:	d0ec      	beq.n	10003dae <usbd_edpt_open+0xa>
10003dd4:	4621      	mov	r1, r4
10003dd6:	4628      	mov	r0, r5
10003dd8:	e8bd 4038 	ldmia.w	sp!, {r3, r4, r5, lr}
10003ddc:	f7ff b9fe 	b.w	100031dc <dcd_edpt_open>
10003de0:	20001b60 	.word	0x20001b60
10003de4:	200010c8 	.word	0x200010c8

10003de8 <usbd_edpt_claim>:
10003de8:	460b      	mov	r3, r1
10003dea:	4a06      	ldr	r2, [pc, #24]	@ (10003e04 <usbd_edpt_claim+0x1c>)
10003dec:	4806      	ldr	r0, [pc, #24]	@ (10003e08 <usbd_edpt_claim+0x20>)
10003dee:	6811      	ldr	r1, [r2, #0]
10003df0:	09da      	lsrs	r2, r3, #7
10003df2:	3234      	adds	r2, #52	@ 0x34
10003df4:	f003 037f 	and.w	r3, r3, #127	@ 0x7f
10003df8:	eb02 0343 	add.w	r3, r2, r3, lsl #1
10003dfc:	4418      	add	r0, r3
10003dfe:	f000 bc4b 	b.w	10004698 <tu_edpt_claim>
10003e02:	bf00      	nop
10003e04:	20001bb4 	.word	0x20001bb4
10003e08:	20001b60 	.word	0x20001b60

10003e0c <usbd_edpt_release>:
10003e0c:	460b      	mov	r3, r1
10003e0e:	4a06      	ldr	r2, [pc, #24]	@ (10003e28 <usbd_edpt_release+0x1c>)
10003e10:	4806      	ldr	r0, [pc, #24]	@ (10003e2c <usbd_edpt_release+0x20>)
10003e12:	6811      	ldr	r1, [r2, #0]
10003e14:	09da      	lsrs	r2, r3, #7
10003e16:	3234      	adds	r2, #52	@ 0x34
10003e18:	f003 037f 	and.w	r3, r3, #127	@ 0x7f
10003e1c:	eb02 0343 	add.w	r3, r2, r3, lsl #1
10003e20:	4418      	add	r0, r3
10003e22:	f000 bc63 	b.w	100046ec <tu_edpt_release>
10003e26:	bf00      	nop
10003e28:	20001bb4 	.word	0x20001bb4
10003e2c:	20001b60 	.word	0x20001b60

10003e30 <usbd_edpt_xfer>:
10003e30:	b510      	push	{r4, lr}
10003e32:	4819      	ldr	r0, [pc, #100]	@ (10003e98 <usbd_edpt_xfer+0x68>)
10003e34:	f001 0c7f 	and.w	ip, r1, #127	@ 0x7f
10003e38:	eb00 004c 	add.w	r0, r0, ip, lsl #1
10003e3c:	eb00 10d1 	add.w	r0, r0, r1, lsr #7
10003e40:	f890 c034 	ldrb.w	ip, [r0, #52]	@ 0x34
10003e44:	f01c 0f01 	tst.w	ip, #1
10003e48:	d008      	beq.n	10003e5c <usbd_edpt_xfer+0x2c>
10003e4a:	f04f 23e0 	mov.w	r3, #3758153728	@ 0xe000e000
10003e4e:	f8d3 3df0 	ldr.w	r3, [r3, #3568]	@ 0xdf0
10003e52:	07da      	lsls	r2, r3, #31
10003e54:	d500      	bpl.n	10003e58 <usbd_edpt_xfer+0x28>
10003e56:	be00      	bkpt	0x0000
10003e58:	2000      	movs	r0, #0
10003e5a:	bd10      	pop	{r4, pc}
10003e5c:	f100 0430 	add.w	r4, r0, #48	@ 0x30
10003e60:	f894 c004 	ldrb.w	ip, [r4, #4]
10003e64:	480d      	ldr	r0, [pc, #52]	@ (10003e9c <usbd_edpt_xfer+0x6c>)
10003e66:	f04c 0c01 	orr.w	ip, ip, #1
10003e6a:	7800      	ldrb	r0, [r0, #0]
10003e6c:	f884 c004 	strb.w	ip, [r4, #4]
10003e70:	f7ff fa38 	bl	100032e4 <dcd_edpt_xfer>
10003e74:	2800      	cmp	r0, #0
10003e76:	d1f0      	bne.n	10003e5a <usbd_edpt_xfer+0x2a>
10003e78:	f04f 21e0 	mov.w	r1, #3758153728	@ 0xe000e000
10003e7c:	7922      	ldrb	r2, [r4, #4]
10003e7e:	f360 0200 	bfi	r2, r0, #0, #1
10003e82:	7122      	strb	r2, [r4, #4]
10003e84:	7922      	ldrb	r2, [r4, #4]
10003e86:	f360 0282 	bfi	r2, r0, #2, #1
10003e8a:	7122      	strb	r2, [r4, #4]
10003e8c:	f8d1 3df0 	ldr.w	r3, [r1, #3568]	@ 0xdf0
10003e90:	07db      	lsls	r3, r3, #31
10003e92:	d5e1      	bpl.n	10003e58 <usbd_edpt_xfer+0x28>
10003e94:	be00      	bkpt	0x0000
10003e96:	e7df      	b.n	10003e58 <usbd_edpt_xfer+0x28>
10003e98:	20001b60 	.word	0x20001b60
10003e9c:	200010c8 	.word	0x200010c8

10003ea0 <tud_control_status>:
10003ea0:	b530      	push	{r4, r5, lr}
10003ea2:	4c0b      	ldr	r4, [pc, #44]	@ (10003ed0 <tud_control_status+0x30>)
10003ea4:	468c      	mov	ip, r1
10003ea6:	46a6      	mov	lr, r4
10003ea8:	4605      	mov	r5, r0
10003eaa:	6808      	ldr	r0, [r1, #0]
10003eac:	6849      	ldr	r1, [r1, #4]
10003eae:	2300      	movs	r3, #0
10003eb0:	e8ae 0003 	stmia.w	lr!, {r0, r1}
10003eb4:	f89c 1000 	ldrb.w	r1, [ip]
10003eb8:	4628      	mov	r0, r5
10003eba:	43c9      	mvns	r1, r1
10003ebc:	e9c4 3302 	strd	r3, r3, [r4, #8]
10003ec0:	e8bd 4030 	ldmia.w	sp!, {r4, r5, lr}
10003ec4:	461a      	mov	r2, r3
10003ec6:	f001 0180 	and.w	r1, r1, #128	@ 0x80
10003eca:	f7ff bfb1 	b.w	10003e30 <usbd_edpt_xfer>
10003ece:	bf00      	nop
10003ed0:	20001b20 	.word	0x20001b20

10003ed4 <tud_control_xfer>:
10003ed4:	e92d 41f0 	stmdb	sp!, {r4, r5, r6, r7, r8, lr}
10003ed8:	4f28      	ldr	r7, [pc, #160]	@ (10003f7c <tud_control_xfer+0xa8>)
10003eda:	f04f 0800 	mov.w	r8, #0
10003ede:	46be      	mov	lr, r7
10003ee0:	468c      	mov	ip, r1
10003ee2:	4606      	mov	r6, r0
10003ee4:	6808      	ldr	r0, [r1, #0]
10003ee6:	6849      	ldr	r1, [r1, #4]
10003ee8:	60ba      	str	r2, [r7, #8]
10003eea:	e8ae 0003 	stmia.w	lr!, {r0, r1}
10003eee:	f8a7 800e 	strh.w	r8, [r7, #14]
10003ef2:	4615      	mov	r5, r2
10003ef4:	f8bc 2006 	ldrh.w	r2, [ip, #6]
10003ef8:	4293      	cmp	r3, r2
10003efa:	bf28      	it	cs
10003efc:	4613      	movcs	r3, r2
10003efe:	81bb      	strh	r3, [r7, #12]
10003f00:	b19a      	cbz	r2, 10003f2a <tud_control_xfer+0x56>
10003f02:	461c      	mov	r4, r3
10003f04:	b333      	cbz	r3, 10003f54 <tud_control_xfer+0x80>
10003f06:	b1dd      	cbz	r5, 10003f40 <tud_control_xfer+0x6c>
10003f08:	f997 3000 	ldrsb.w	r3, [r7]
10003f0c:	2c40      	cmp	r4, #64	@ 0x40
10003f0e:	bf28      	it	cs
10003f10:	2440      	movcs	r4, #64	@ 0x40
10003f12:	2b00      	cmp	r3, #0
10003f14:	db29      	blt.n	10003f6a <tud_control_xfer+0x96>
10003f16:	4641      	mov	r1, r8
10003f18:	4623      	mov	r3, r4
10003f1a:	4630      	mov	r0, r6
10003f1c:	4a18      	ldr	r2, [pc, #96]	@ (10003f80 <tud_control_xfer+0xac>)
10003f1e:	f7ff ff87 	bl	10003e30 <usbd_edpt_xfer>
10003f22:	b168      	cbz	r0, 10003f40 <tud_control_xfer+0x6c>
10003f24:	2001      	movs	r0, #1
10003f26:	e8bd 81f0 	ldmia.w	sp!, {r4, r5, r6, r7, r8, pc}
10003f2a:	f89c 1000 	ldrb.w	r1, [ip]
10003f2e:	4613      	mov	r3, r2
10003f30:	43c9      	mvns	r1, r1
10003f32:	4630      	mov	r0, r6
10003f34:	f001 0180 	and.w	r1, r1, #128	@ 0x80
10003f38:	f7ff ff7a 	bl	10003e30 <usbd_edpt_xfer>
10003f3c:	2800      	cmp	r0, #0
10003f3e:	d1f1      	bne.n	10003f24 <tud_control_xfer+0x50>
10003f40:	f04f 23e0 	mov.w	r3, #3758153728	@ 0xe000e000
10003f44:	f8d3 3df0 	ldr.w	r3, [r3, #3568]	@ 0xdf0
10003f48:	07db      	lsls	r3, r3, #31
10003f4a:	d500      	bpl.n	10003f4e <tud_control_xfer+0x7a>
10003f4c:	be00      	bkpt	0x0000
10003f4e:	2000      	movs	r0, #0
10003f50:	e8bd 81f0 	ldmia.w	sp!, {r4, r5, r6, r7, r8, pc}
10003f54:	461a      	mov	r2, r3
10003f56:	7839      	ldrb	r1, [r7, #0]
10003f58:	f001 0180 	and.w	r1, r1, #128	@ 0x80
10003f5c:	4623      	mov	r3, r4
10003f5e:	4630      	mov	r0, r6
10003f60:	f7ff ff66 	bl	10003e30 <usbd_edpt_xfer>
10003f64:	2800      	cmp	r0, #0
10003f66:	d1dd      	bne.n	10003f24 <tud_control_xfer+0x50>
10003f68:	e7ea      	b.n	10003f40 <tud_control_xfer+0x6c>
10003f6a:	4622      	mov	r2, r4
10003f6c:	4629      	mov	r1, r5
10003f6e:	4804      	ldr	r0, [pc, #16]	@ (10003f80 <tud_control_xfer+0xac>)
10003f70:	f001 f808 	bl	10004f84 <memcpy>
10003f74:	2180      	movs	r1, #128	@ 0x80
10003f76:	4a02      	ldr	r2, [pc, #8]	@ (10003f80 <tud_control_xfer+0xac>)
10003f78:	e7f0      	b.n	10003f5c <tud_control_xfer+0x88>
10003f7a:	bf00      	nop
10003f7c:	20001b20 	.word	0x20001b20
10003f80:	20001ae0 	.word	0x20001ae0

10003f84 <usbd_control_reset>:
10003f84:	2200      	movs	r2, #0
10003f86:	4b03      	ldr	r3, [pc, #12]	@ (10003f94 <usbd_control_reset+0x10>)
10003f88:	e9c3 2200 	strd	r2, r2, [r3]
10003f8c:	e9c3 2202 	strd	r2, r2, [r3, #8]
10003f90:	611a      	str	r2, [r3, #16]
10003f92:	4770      	bx	lr
10003f94:	20001b20 	.word	0x20001b20

10003f98 <usbd_control_set_complete_callback>:
10003f98:	4b01      	ldr	r3, [pc, #4]	@ (10003fa0 <usbd_control_set_complete_callback+0x8>)
10003f9a:	6118      	str	r0, [r3, #16]
10003f9c:	4770      	bx	lr
10003f9e:	bf00      	nop
10003fa0:	20001b20 	.word	0x20001b20

10003fa4 <usbd_control_set_request>:
10003fa4:	b430      	push	{r4, r5}
10003fa6:	4602      	mov	r2, r0
10003fa8:	4c04      	ldr	r4, [pc, #16]	@ (10003fbc <usbd_control_set_request+0x18>)
10003faa:	2500      	movs	r5, #0
10003fac:	4623      	mov	r3, r4
10003fae:	6800      	ldr	r0, [r0, #0]
10003fb0:	6851      	ldr	r1, [r2, #4]
10003fb2:	e9c4 5502 	strd	r5, r5, [r4, #8]
10003fb6:	bc30      	pop	{r4, r5}
10003fb8:	c303      	stmia	r3!, {r0, r1}
10003fba:	4770      	bx	lr
10003fbc:	20001b20 	.word	0x20001b20

10003fc0 <usbd_control_xfer_cb>:
10003fc0:	b570      	push	{r4, r5, r6, lr}
10003fc2:	4c3d      	ldr	r4, [pc, #244]	@ (100040b8 <usbd_control_xfer_cb+0xf8>)
10003fc4:	09c9      	lsrs	r1, r1, #7
10003fc6:	7822      	ldrb	r2, [r4, #0]
10003fc8:	4606      	mov	r6, r0
10003fca:	ebb1 1fd2 	cmp.w	r1, r2, lsr #7
10003fce:	461d      	mov	r5, r3
10003fd0:	b082      	sub	sp, #8
10003fd2:	d017      	beq.n	10004004 <usbd_control_xfer_cb+0x44>
10003fd4:	b153      	cbz	r3, 10003fec <usbd_control_xfer_cb+0x2c>
10003fd6:	f04f 23e0 	mov.w	r3, #3758153728	@ 0xe000e000
10003fda:	f8d3 3df0 	ldr.w	r3, [r3, #3568]	@ 0xdf0
10003fde:	07db      	lsls	r3, r3, #31
10003fe0:	d402      	bmi.n	10003fe8 <usbd_control_xfer_cb+0x28>
10003fe2:	2000      	movs	r0, #0
10003fe4:	b002      	add	sp, #8
10003fe6:	bd70      	pop	{r4, r5, r6, pc}
10003fe8:	be00      	bkpt	0x0000
10003fea:	e7fa      	b.n	10003fe2 <usbd_control_xfer_cb+0x22>
10003fec:	4621      	mov	r1, r4
10003fee:	f7ff f8e7 	bl	100031c0 <dcd_edpt0_status_complete>
10003ff2:	6923      	ldr	r3, [r4, #16]
10003ff4:	b11b      	cbz	r3, 10003ffe <usbd_control_xfer_cb+0x3e>
10003ff6:	4622      	mov	r2, r4
10003ff8:	2103      	movs	r1, #3
10003ffa:	4630      	mov	r0, r6
10003ffc:	4798      	blx	r3
10003ffe:	2001      	movs	r0, #1
10004000:	b002      	add	sp, #8
10004002:	bd70      	pop	{r4, r5, r6, pc}
10004004:	f994 3000 	ldrsb.w	r3, [r4]
10004008:	2b00      	cmp	r3, #0
1000400a:	db06      	blt.n	1000401a <usbd_control_xfer_cb+0x5a>
1000400c:	68a0      	ldr	r0, [r4, #8]
1000400e:	2800      	cmp	r0, #0
10004010:	d0e7      	beq.n	10003fe2 <usbd_control_xfer_cb+0x22>
10004012:	462a      	mov	r2, r5
10004014:	4929      	ldr	r1, [pc, #164]	@ (100040bc <usbd_control_xfer_cb+0xfc>)
10004016:	f000 ffb5 	bl	10004f84 <memcpy>
1000401a:	89e0      	ldrh	r0, [r4, #14]
1000401c:	68a1      	ldr	r1, [r4, #8]
1000401e:	88e3      	ldrh	r3, [r4, #6]
10004020:	4428      	add	r0, r5
10004022:	b280      	uxth	r0, r0
10004024:	4429      	add	r1, r5
10004026:	4283      	cmp	r3, r0
10004028:	81e0      	strh	r0, [r4, #14]
1000402a:	60a1      	str	r1, [r4, #8]
1000402c:	d016      	beq.n	1000405c <usbd_control_xfer_cb+0x9c>
1000402e:	2d3f      	cmp	r5, #63	@ 0x3f
10004030:	d914      	bls.n	1000405c <usbd_control_xfer_cb+0x9c>
10004032:	89a2      	ldrh	r2, [r4, #12]
10004034:	f994 4000 	ldrsb.w	r4, [r4]
10004038:	1a13      	subs	r3, r2, r0
1000403a:	b29b      	uxth	r3, r3
1000403c:	2b40      	cmp	r3, #64	@ 0x40
1000403e:	bf28      	it	cs
10004040:	2340      	movcs	r3, #64	@ 0x40
10004042:	2c00      	cmp	r4, #0
10004044:	db27      	blt.n	10004096 <usbd_control_xfer_cb+0xd6>
10004046:	4290      	cmp	r0, r2
10004048:	f04f 0100 	mov.w	r1, #0
1000404c:	d031      	beq.n	100040b2 <usbd_control_xfer_cb+0xf2>
1000404e:	4a1b      	ldr	r2, [pc, #108]	@ (100040bc <usbd_control_xfer_cb+0xfc>)
10004050:	4630      	mov	r0, r6
10004052:	f7ff feed 	bl	10003e30 <usbd_edpt_xfer>
10004056:	2800      	cmp	r0, #0
10004058:	d1d1      	bne.n	10003ffe <usbd_control_xfer_cb+0x3e>
1000405a:	e7bc      	b.n	10003fd6 <usbd_control_xfer_cb+0x16>
1000405c:	6923      	ldr	r3, [r4, #16]
1000405e:	b123      	cbz	r3, 1000406a <usbd_control_xfer_cb+0xaa>
10004060:	2102      	movs	r1, #2
10004062:	4630      	mov	r0, r6
10004064:	4a14      	ldr	r2, [pc, #80]	@ (100040b8 <usbd_control_xfer_cb+0xf8>)
10004066:	4798      	blx	r3
10004068:	b160      	cbz	r0, 10004084 <usbd_control_xfer_cb+0xc4>
1000406a:	7821      	ldrb	r1, [r4, #0]
1000406c:	2300      	movs	r3, #0
1000406e:	43c9      	mvns	r1, r1
10004070:	4630      	mov	r0, r6
10004072:	461a      	mov	r2, r3
10004074:	f001 0180 	and.w	r1, r1, #128	@ 0x80
10004078:	f7ff feda 	bl	10003e30 <usbd_edpt_xfer>
1000407c:	2800      	cmp	r0, #0
1000407e:	d0aa      	beq.n	10003fd6 <usbd_control_xfer_cb+0x16>
10004080:	2001      	movs	r0, #1
10004082:	e7bd      	b.n	10004000 <usbd_control_xfer_cb+0x40>
10004084:	4601      	mov	r1, r0
10004086:	4630      	mov	r0, r6
10004088:	f7ff f940 	bl	1000330c <dcd_edpt_stall>
1000408c:	2180      	movs	r1, #128	@ 0x80
1000408e:	4630      	mov	r0, r6
10004090:	f7ff f93c 	bl	1000330c <dcd_edpt_stall>
10004094:	e7b3      	b.n	10003ffe <usbd_control_xfer_cb+0x3e>
10004096:	4290      	cmp	r0, r2
10004098:	d008      	beq.n	100040ac <usbd_control_xfer_cb+0xec>
1000409a:	461a      	mov	r2, r3
1000409c:	4807      	ldr	r0, [pc, #28]	@ (100040bc <usbd_control_xfer_cb+0xfc>)
1000409e:	9301      	str	r3, [sp, #4]
100040a0:	f000 ff70 	bl	10004f84 <memcpy>
100040a4:	2180      	movs	r1, #128	@ 0x80
100040a6:	4a05      	ldr	r2, [pc, #20]	@ (100040bc <usbd_control_xfer_cb+0xfc>)
100040a8:	9b01      	ldr	r3, [sp, #4]
100040aa:	e7d1      	b.n	10004050 <usbd_control_xfer_cb+0x90>
100040ac:	2180      	movs	r1, #128	@ 0x80
100040ae:	2200      	movs	r2, #0
100040b0:	e7ce      	b.n	10004050 <usbd_control_xfer_cb+0x90>
100040b2:	460a      	mov	r2, r1
100040b4:	e7cc      	b.n	10004050 <usbd_control_xfer_cb+0x90>
100040b6:	bf00      	nop
100040b8:	20001b20 	.word	0x20001b20
100040bc:	20001ae0 	.word	0x20001ae0

100040c0 <_prep_out_transaction.isra.0>:
100040c0:	e92d 41f0 	stmdb	sp!, {r4, r5, r6, r7, r8, lr}
100040c4:	4604      	mov	r4, r0
100040c6:	f7ff f9e5 	bl	10003494 <tud_mounted>
100040ca:	b908      	cbnz	r0, 100040d0 <_prep_out_transaction.isra.0+0x10>
100040cc:	e8bd 81f0 	ldmia.w	sp!, {r4, r5, r6, r7, r8, pc}
100040d0:	f7ff f9e8 	bl	100034a4 <tud_suspended>
100040d4:	4605      	mov	r5, r0
100040d6:	2800      	cmp	r0, #0
100040d8:	d1f8      	bne.n	100040cc <_prep_out_transaction.isra.0+0xc>
100040da:	f44f 7312 	mov.w	r3, #584	@ 0x248
100040de:	fb04 f303 	mul.w	r3, r4, r3
100040e2:	4e13      	ldr	r6, [pc, #76]	@ (10004130 <_prep_out_transaction.isra.0+0x70>)
100040e4:	18f7      	adds	r7, r6, r3
100040e6:	78f9      	ldrb	r1, [r7, #3]
100040e8:	2900      	cmp	r1, #0
100040ea:	d0ef      	beq.n	100040cc <_prep_out_transaction.isra.0+0xc>
100040ec:	3310      	adds	r3, #16
100040ee:	441e      	add	r6, r3
100040f0:	4630      	mov	r0, r6
100040f2:	f000 fbbd 	bl	10004870 <tu_fifo_remaining>
100040f6:	283f      	cmp	r0, #63	@ 0x3f
100040f8:	d9e8      	bls.n	100040cc <_prep_out_transaction.isra.0+0xc>
100040fa:	4628      	mov	r0, r5
100040fc:	78f9      	ldrb	r1, [r7, #3]
100040fe:	f7ff fe73 	bl	10003de8 <usbd_edpt_claim>
10004102:	2800      	cmp	r0, #0
10004104:	d0e2      	beq.n	100040cc <_prep_out_transaction.isra.0+0xc>
10004106:	4630      	mov	r0, r6
10004108:	f000 fbb2 	bl	10004870 <tu_fifo_remaining>
1000410c:	283f      	cmp	r0, #63	@ 0x3f
1000410e:	78f9      	ldrb	r1, [r7, #3]
10004110:	d908      	bls.n	10004124 <_prep_out_transaction.isra.0+0x64>
10004112:	4a08      	ldr	r2, [pc, #32]	@ (10004134 <_prep_out_transaction.isra.0+0x74>)
10004114:	4628      	mov	r0, r5
10004116:	eb02 12c4 	add.w	r2, r2, r4, lsl #7
1000411a:	2340      	movs	r3, #64	@ 0x40
1000411c:	e8bd 41f0 	ldmia.w	sp!, {r4, r5, r6, r7, r8, lr}
10004120:	f7ff be86 	b.w	10003e30 <usbd_edpt_xfer>
10004124:	4628      	mov	r0, r5
10004126:	e8bd 41f0 	ldmia.w	sp!, {r4, r5, r6, r7, r8, lr}
1000412a:	f7ff be6f 	b.w	10003e0c <usbd_edpt_release>
1000412e:	bf00      	nop
10004130:	20001898 	.word	0x20001898
10004134:	20001814 	.word	0x20001814

10004138 <tud_cdc_n_connected>:
10004138:	b510      	push	{r4, lr}
1000413a:	4604      	mov	r4, r0
1000413c:	f7ff f9aa 	bl	10003494 <tud_mounted>
10004140:	b908      	cbnz	r0, 10004146 <tud_cdc_n_connected+0xe>
10004142:	2000      	movs	r0, #0
10004144:	bd10      	pop	{r4, pc}
10004146:	f7ff f9ad 	bl	100034a4 <tud_suspended>
1000414a:	2800      	cmp	r0, #0
1000414c:	d1f9      	bne.n	10004142 <tud_cdc_n_connected+0xa>
1000414e:	f44f 7212 	mov.w	r2, #584	@ 0x248
10004152:	4b03      	ldr	r3, [pc, #12]	@ (10004160 <tud_cdc_n_connected+0x28>)
10004154:	fb02 3304 	mla	r3, r2, r4, r3
10004158:	7918      	ldrb	r0, [r3, #4]
1000415a:	f000 0001 	and.w	r0, r0, #1
1000415e:	bd10      	pop	{r4, pc}
10004160:	20001898 	.word	0x20001898

10004164 <tud_cdc_n_read>:
10004164:	e92d 43f8 	stmdb	sp!, {r3, r4, r5, r6, r7, r8, r9, lr}
10004168:	f64f 73ff 	movw	r3, #65535	@ 0xffff
1000416c:	f44f 7412 	mov.w	r4, #584	@ 0x248
10004170:	429a      	cmp	r2, r3
10004172:	bf28      	it	cs
10004174:	461a      	movcs	r2, r3
10004176:	fb00 f404 	mul.w	r4, r0, r4
1000417a:	f8df 8078 	ldr.w	r8, [pc, #120]	@ 100041f4 <tud_cdc_n_read+0x90>
1000417e:	f104 0510 	add.w	r5, r4, #16
10004182:	4445      	add	r5, r8
10004184:	4606      	mov	r6, r0
10004186:	b292      	uxth	r2, r2
10004188:	4628      	mov	r0, r5
1000418a:	f000 fbcd 	bl	10004928 <tu_fifo_read_n>
1000418e:	4607      	mov	r7, r0
10004190:	f7ff f980 	bl	10003494 <tud_mounted>
10004194:	b910      	cbnz	r0, 1000419c <tud_cdc_n_read+0x38>
10004196:	4638      	mov	r0, r7
10004198:	e8bd 83f8 	ldmia.w	sp!, {r3, r4, r5, r6, r7, r8, r9, pc}
1000419c:	f7ff f982 	bl	100034a4 <tud_suspended>
100041a0:	4681      	mov	r9, r0
100041a2:	2800      	cmp	r0, #0
100041a4:	d1f7      	bne.n	10004196 <tud_cdc_n_read+0x32>
100041a6:	44a0      	add	r8, r4
100041a8:	f898 3003 	ldrb.w	r3, [r8, #3]
100041ac:	2b00      	cmp	r3, #0
100041ae:	d0f2      	beq.n	10004196 <tud_cdc_n_read+0x32>
100041b0:	4628      	mov	r0, r5
100041b2:	f000 fb5d 	bl	10004870 <tu_fifo_remaining>
100041b6:	283f      	cmp	r0, #63	@ 0x3f
100041b8:	d9ed      	bls.n	10004196 <tud_cdc_n_read+0x32>
100041ba:	4648      	mov	r0, r9
100041bc:	f898 1003 	ldrb.w	r1, [r8, #3]
100041c0:	f7ff fe12 	bl	10003de8 <usbd_edpt_claim>
100041c4:	2800      	cmp	r0, #0
100041c6:	d0e6      	beq.n	10004196 <tud_cdc_n_read+0x32>
100041c8:	4628      	mov	r0, r5
100041ca:	f000 fb51 	bl	10004870 <tu_fifo_remaining>
100041ce:	283f      	cmp	r0, #63	@ 0x3f
100041d0:	f898 1003 	ldrb.w	r1, [r8, #3]
100041d4:	d907      	bls.n	100041e6 <tud_cdc_n_read+0x82>
100041d6:	4a06      	ldr	r2, [pc, #24]	@ (100041f0 <tud_cdc_n_read+0x8c>)
100041d8:	4648      	mov	r0, r9
100041da:	2340      	movs	r3, #64	@ 0x40
100041dc:	eb02 12c6 	add.w	r2, r2, r6, lsl #7
100041e0:	f7ff fe26 	bl	10003e30 <usbd_edpt_xfer>
100041e4:	e7d7      	b.n	10004196 <tud_cdc_n_read+0x32>
100041e6:	4648      	mov	r0, r9
100041e8:	f7ff fe10 	bl	10003e0c <usbd_edpt_release>
100041ec:	e7d3      	b.n	10004196 <tud_cdc_n_read+0x32>
100041ee:	bf00      	nop
100041f0:	20001814 	.word	0x20001814
100041f4:	20001898 	.word	0x20001898

100041f8 <tud_cdc_n_write_flush>:
100041f8:	e92d 41f0 	stmdb	sp!, {r4, r5, r6, r7, r8, lr}
100041fc:	4604      	mov	r4, r0
100041fe:	f7ff f949 	bl	10003494 <tud_mounted>
10004202:	b910      	cbnz	r0, 1000420a <tud_cdc_n_write_flush+0x12>
10004204:	2000      	movs	r0, #0
10004206:	e8bd 81f0 	ldmia.w	sp!, {r4, r5, r6, r7, r8, pc}
1000420a:	f7ff f94b 	bl	100034a4 <tud_suspended>
1000420e:	4605      	mov	r5, r0
10004210:	2800      	cmp	r0, #0
10004212:	d1f7      	bne.n	10004204 <tud_cdc_n_write_flush+0xc>
10004214:	f44f 7612 	mov.w	r6, #584	@ 0x248
10004218:	fb04 f606 	mul.w	r6, r4, r6
1000421c:	f8df 8064 	ldr.w	r8, [pc, #100]	@ 10004284 <tud_cdc_n_write_flush+0x8c>
10004220:	f106 0724 	add.w	r7, r6, #36	@ 0x24
10004224:	4447      	add	r7, r8
10004226:	4638      	mov	r0, r7
10004228:	f000 fb08 	bl	1000483c <tu_fifo_count>
1000422c:	2800      	cmp	r0, #0
1000422e:	d0e9      	beq.n	10004204 <tud_cdc_n_write_flush+0xc>
10004230:	44b0      	add	r8, r6
10004232:	4628      	mov	r0, r5
10004234:	f898 1002 	ldrb.w	r1, [r8, #2]
10004238:	f7ff fdd6 	bl	10003de8 <usbd_edpt_claim>
1000423c:	2800      	cmp	r0, #0
1000423e:	d0e1      	beq.n	10004204 <tud_cdc_n_write_flush+0xc>
10004240:	4e0f      	ldr	r6, [pc, #60]	@ (10004280 <tud_cdc_n_write_flush+0x88>)
10004242:	4638      	mov	r0, r7
10004244:	eb06 16c4 	add.w	r6, r6, r4, lsl #7
10004248:	4631      	mov	r1, r6
1000424a:	2240      	movs	r2, #64	@ 0x40
1000424c:	f000 fb6c 	bl	10004928 <tu_fifo_read_n>
10004250:	f898 1002 	ldrb.w	r1, [r8, #2]
10004254:	4604      	mov	r4, r0
10004256:	b168      	cbz	r0, 10004274 <tud_cdc_n_write_flush+0x7c>
10004258:	4603      	mov	r3, r0
1000425a:	4632      	mov	r2, r6
1000425c:	4628      	mov	r0, r5
1000425e:	f7ff fde7 	bl	10003e30 <usbd_edpt_xfer>
10004262:	b950      	cbnz	r0, 1000427a <tud_cdc_n_write_flush+0x82>
10004264:	f04f 23e0 	mov.w	r3, #3758153728	@ 0xe000e000
10004268:	f8d3 3df0 	ldr.w	r3, [r3, #3568]	@ 0xdf0
1000426c:	07db      	lsls	r3, r3, #31
1000426e:	d5c9      	bpl.n	10004204 <tud_cdc_n_write_flush+0xc>
10004270:	be00      	bkpt	0x0000
10004272:	e7c7      	b.n	10004204 <tud_cdc_n_write_flush+0xc>
10004274:	f7ff fdca 	bl	10003e0c <usbd_edpt_release>
10004278:	e7c4      	b.n	10004204 <tud_cdc_n_write_flush+0xc>
1000427a:	4620      	mov	r0, r4
1000427c:	e7c3      	b.n	10004206 <tud_cdc_n_write_flush+0xe>
1000427e:	bf00      	nop
10004280:	20001854 	.word	0x20001854
10004284:	20001898 	.word	0x20001898

10004288 <tud_cdc_n_write>:
10004288:	b538      	push	{r3, r4, r5, lr}
1000428a:	f64f 75ff 	movw	r5, #65535	@ 0xffff
1000428e:	f44f 7312 	mov.w	r3, #584	@ 0x248
10004292:	42aa      	cmp	r2, r5
10004294:	bf28      	it	cs
10004296:	462a      	movcs	r2, r5
10004298:	4c0a      	ldr	r4, [pc, #40]	@ (100042c4 <tud_cdc_n_write+0x3c>)
1000429a:	b292      	uxth	r2, r2
1000429c:	fb03 4400 	mla	r4, r3, r0, r4
100042a0:	4605      	mov	r5, r0
100042a2:	4620      	mov	r0, r4
100042a4:	f000 fbfe 	bl	10004aa4 <tu_fifo_write_n>
100042a8:	4603      	mov	r3, r0
100042aa:	4620      	mov	r0, r4
100042ac:	461c      	mov	r4, r3
100042ae:	f000 fac5 	bl	1000483c <tu_fifo_count>
100042b2:	283f      	cmp	r0, #63	@ 0x3f
100042b4:	d801      	bhi.n	100042ba <tud_cdc_n_write+0x32>
100042b6:	4620      	mov	r0, r4
100042b8:	bd38      	pop	{r3, r4, r5, pc}
100042ba:	4628      	mov	r0, r5
100042bc:	f7ff ff9c 	bl	100041f8 <tud_cdc_n_write_flush>
100042c0:	4620      	mov	r0, r4
100042c2:	bd38      	pop	{r3, r4, r5, pc}
100042c4:	200018bc 	.word	0x200018bc

100042c8 <cdcd_init>:
100042c8:	b5f0      	push	{r4, r5, r6, r7, lr}
100042ca:	2400      	movs	r4, #0
100042cc:	b083      	sub	sp, #12
100042ce:	f44f 7212 	mov.w	r2, #584	@ 0x248
100042d2:	2100      	movs	r1, #0
100042d4:	4818      	ldr	r0, [pc, #96]	@ (10004338 <cdcd_init+0x70>)
100042d6:	f000 fceb 	bl	10004cb0 <memset>
100042da:	23ff      	movs	r3, #255	@ 0xff
100042dc:	f44f 31e1 	mov.w	r1, #115200	@ 0x1c200
100042e0:	2208      	movs	r2, #8
100042e2:	4816      	ldr	r0, [pc, #88]	@ (1000433c <cdcd_init+0x74>)
100042e4:	7004      	strb	r4, [r0, #0]
100042e6:	4814      	ldr	r0, [pc, #80]	@ (10004338 <cdcd_init+0x70>)
100042e8:	9400      	str	r4, [sp, #0]
100042ea:	4607      	mov	r7, r0
100042ec:	7143      	strb	r3, [r0, #5]
100042ee:	6081      	str	r1, [r0, #8]
100042f0:	7382      	strb	r2, [r0, #14]
100042f2:	f100 0138 	add.w	r1, r0, #56	@ 0x38
100042f6:	2301      	movs	r3, #1
100042f8:	f44f 7280 	mov.w	r2, #256	@ 0x100
100042fc:	3010      	adds	r0, #16
100042fe:	f000 fa6d 	bl	100047dc <tu_fifo_config>
10004302:	2301      	movs	r3, #1
10004304:	f44f 7280 	mov.w	r2, #256	@ 0x100
10004308:	f507 719c 	add.w	r1, r7, #312	@ 0x138
1000430c:	9300      	str	r3, [sp, #0]
1000430e:	f507 760e 	add.w	r6, r7, #568	@ 0x238
10004312:	f107 0024 	add.w	r0, r7, #36	@ 0x24
10004316:	f000 fa61 	bl	100047dc <tu_fifo_config>
1000431a:	f507 7510 	add.w	r5, r7, #576	@ 0x240
1000431e:	4630      	mov	r0, r6
10004320:	f7fd fe38 	bl	10001f94 <mutex_init>
10004324:	4628      	mov	r0, r5
10004326:	f7fd fe35 	bl	10001f94 <mutex_init>
1000432a:	e9c7 4607 	strd	r4, r6, [r7, #28]
1000432e:	e9c7 540c 	strd	r5, r4, [r7, #48]	@ 0x30
10004332:	b003      	add	sp, #12
10004334:	bdf0      	pop	{r4, r5, r6, r7, pc}
10004336:	bf00      	nop
10004338:	20001898 	.word	0x20001898
1000433c:	20001894 	.word	0x20001894

10004340 <cdcd_deinit>:
10004340:	4a0a      	ldr	r2, [pc, #40]	@ (1000436c <cdcd_deinit+0x2c>)
10004342:	6b11      	ldr	r1, [r2, #48]	@ 0x30
10004344:	6a13      	ldr	r3, [r2, #32]
10004346:	b161      	cbz	r1, 10004362 <cdcd_deinit+0x22>
10004348:	b13b      	cbz	r3, 1000435a <cdcd_deinit+0x1a>
1000434a:	2300      	movs	r3, #0
1000434c:	e9c2 330c 	strd	r3, r3, [r2, #48]	@ 0x30
10004350:	61d3      	str	r3, [r2, #28]
10004352:	2300      	movs	r3, #0
10004354:	6213      	str	r3, [r2, #32]
10004356:	2001      	movs	r0, #1
10004358:	4770      	bx	lr
1000435a:	2001      	movs	r0, #1
1000435c:	e9c2 330c 	strd	r3, r3, [r2, #48]	@ 0x30
10004360:	4770      	bx	lr
10004362:	2b00      	cmp	r3, #0
10004364:	d0f7      	beq.n	10004356 <cdcd_deinit+0x16>
10004366:	61d1      	str	r1, [r2, #28]
10004368:	e7f3      	b.n	10004352 <cdcd_deinit+0x12>
1000436a:	bf00      	nop
1000436c:	20001898 	.word	0x20001898

10004370 <cdcd_reset>:
10004370:	2200      	movs	r2, #0
10004372:	b510      	push	{r4, lr}
10004374:	4c0e      	ldr	r4, [pc, #56]	@ (100043b0 <cdcd_reset+0x40>)
10004376:	480f      	ldr	r0, [pc, #60]	@ (100043b4 <cdcd_reset+0x44>)
10004378:	7823      	ldrb	r3, [r4, #0]
1000437a:	6002      	str	r2, [r0, #0]
1000437c:	7102      	strb	r2, [r0, #4]
1000437e:	07da      	lsls	r2, r3, #31
10004380:	d507      	bpl.n	10004392 <cdcd_reset+0x22>
10004382:	079b      	lsls	r3, r3, #30
10004384:	d50b      	bpl.n	1000439e <cdcd_reset+0x2e>
10004386:	e8bd 4010 	ldmia.w	sp!, {r4, lr}
1000438a:	2101      	movs	r1, #1
1000438c:	480a      	ldr	r0, [pc, #40]	@ (100043b8 <cdcd_reset+0x48>)
1000438e:	f000 bc53 	b.w	10004c38 <tu_fifo_set_overwritable>
10004392:	3010      	adds	r0, #16
10004394:	f000 fc34 	bl	10004c00 <tu_fifo_clear>
10004398:	7823      	ldrb	r3, [r4, #0]
1000439a:	079b      	lsls	r3, r3, #30
1000439c:	d4f3      	bmi.n	10004386 <cdcd_reset+0x16>
1000439e:	4806      	ldr	r0, [pc, #24]	@ (100043b8 <cdcd_reset+0x48>)
100043a0:	f000 fc2e 	bl	10004c00 <tu_fifo_clear>
100043a4:	e8bd 4010 	ldmia.w	sp!, {r4, lr}
100043a8:	2101      	movs	r1, #1
100043aa:	4803      	ldr	r0, [pc, #12]	@ (100043b8 <cdcd_reset+0x48>)
100043ac:	f000 bc44 	b.w	10004c38 <tu_fifo_set_overwritable>
100043b0:	20001894 	.word	0x20001894
100043b4:	20001898 	.word	0x20001898
100043b8:	200018bc 	.word	0x200018bc

100043bc <cdcd_open>:
100043bc:	b5f0      	push	{r4, r5, r6, r7, lr}
100043be:	794b      	ldrb	r3, [r1, #5]
100043c0:	b083      	sub	sp, #12
100043c2:	2b02      	cmp	r3, #2
100043c4:	d102      	bne.n	100043cc <cdcd_open+0x10>
100043c6:	798b      	ldrb	r3, [r1, #6]
100043c8:	2b02      	cmp	r3, #2
100043ca:	d003      	beq.n	100043d4 <cdcd_open+0x18>
100043cc:	2500      	movs	r5, #0
100043ce:	4628      	mov	r0, r5
100043d0:	b003      	add	sp, #12
100043d2:	bdf0      	pop	{r4, r5, r6, r7, pc}
100043d4:	4f27      	ldr	r7, [pc, #156]	@ (10004474 <cdcd_open+0xb8>)
100043d6:	78bb      	ldrb	r3, [r7, #2]
100043d8:	b13b      	cbz	r3, 100043ea <cdcd_open+0x2e>
100043da:	f04f 23e0 	mov.w	r3, #3758153728	@ 0xe000e000
100043de:	f8d3 3df0 	ldr.w	r3, [r3, #3568]	@ 0xdf0
100043e2:	07db      	lsls	r3, r3, #31
100043e4:	d5f2      	bpl.n	100043cc <cdcd_open+0x10>
100043e6:	be00      	bkpt	0x0000
100043e8:	e7f0      	b.n	100043cc <cdcd_open+0x10>
100043ea:	788b      	ldrb	r3, [r1, #2]
100043ec:	4606      	mov	r6, r0
100043ee:	703b      	strb	r3, [r7, #0]
100043f0:	780b      	ldrb	r3, [r1, #0]
100043f2:	18cc      	adds	r4, r1, r3
100043f4:	7861      	ldrb	r1, [r4, #1]
100043f6:	2924      	cmp	r1, #36	@ 0x24
100043f8:	bf08      	it	eq
100043fa:	2509      	moveq	r5, #9
100043fc:	d007      	beq.n	1000440e <cdcd_open+0x52>
100043fe:	e036      	b.n	1000446e <cdcd_open+0xb2>
10004400:	7823      	ldrb	r3, [r4, #0]
10004402:	441c      	add	r4, r3
10004404:	7861      	ldrb	r1, [r4, #1]
10004406:	442b      	add	r3, r5
10004408:	2924      	cmp	r1, #36	@ 0x24
1000440a:	b29d      	uxth	r5, r3
1000440c:	d107      	bne.n	1000441e <cdcd_open+0x62>
1000440e:	4295      	cmp	r5, r2
10004410:	d9f6      	bls.n	10004400 <cdcd_open+0x44>
10004412:	2000      	movs	r0, #0
10004414:	f7ff fe54 	bl	100040c0 <_prep_out_transaction.isra.0>
10004418:	4628      	mov	r0, r5
1000441a:	b003      	add	sp, #12
1000441c:	bdf0      	pop	{r4, r5, r6, r7, pc}
1000441e:	460b      	mov	r3, r1
10004420:	2905      	cmp	r1, #5
10004422:	d016      	beq.n	10004452 <cdcd_open+0x96>
10004424:	2b04      	cmp	r3, #4
10004426:	d1f4      	bne.n	10004412 <cdcd_open+0x56>
10004428:	7963      	ldrb	r3, [r4, #5]
1000442a:	2b0a      	cmp	r3, #10
1000442c:	d1f1      	bne.n	10004412 <cdcd_open+0x56>
1000442e:	4b12      	ldr	r3, [pc, #72]	@ (10004478 <cdcd_open+0xbc>)
10004430:	7827      	ldrb	r7, [r4, #0]
10004432:	9301      	str	r3, [sp, #4]
10004434:	3301      	adds	r3, #1
10004436:	9300      	str	r3, [sp, #0]
10004438:	2302      	movs	r3, #2
1000443a:	4630      	mov	r0, r6
1000443c:	461a      	mov	r2, r3
1000443e:	19e1      	adds	r1, r4, r7
10004440:	f7ff fc62 	bl	10003d08 <usbd_open_edpt_pair>
10004444:	2800      	cmp	r0, #0
10004446:	d0c8      	beq.n	100043da <cdcd_open+0x1e>
10004448:	350e      	adds	r5, #14
1000444a:	fa17 f585 	uxtah	r5, r7, r5
1000444e:	b2ad      	uxth	r5, r5
10004450:	e7df      	b.n	10004412 <cdcd_open+0x56>
10004452:	4621      	mov	r1, r4
10004454:	4630      	mov	r0, r6
10004456:	f7ff fca5 	bl	10003da4 <usbd_edpt_open>
1000445a:	2800      	cmp	r0, #0
1000445c:	d0bd      	beq.n	100043da <cdcd_open+0x1e>
1000445e:	78a3      	ldrb	r3, [r4, #2]
10004460:	707b      	strb	r3, [r7, #1]
10004462:	7823      	ldrb	r3, [r4, #0]
10004464:	195a      	adds	r2, r3, r5
10004466:	441c      	add	r4, r3
10004468:	7863      	ldrb	r3, [r4, #1]
1000446a:	b295      	uxth	r5, r2
1000446c:	e7da      	b.n	10004424 <cdcd_open+0x68>
1000446e:	460b      	mov	r3, r1
10004470:	2509      	movs	r5, #9
10004472:	e7d5      	b.n	10004420 <cdcd_open+0x64>
10004474:	20001898 	.word	0x20001898
10004478:	2000189a 	.word	0x2000189a

1000447c <cdcd_control_xfer_cb>:
1000447c:	7813      	ldrb	r3, [r2, #0]
1000447e:	f003 0360 	and.w	r3, r3, #96	@ 0x60
10004482:	2b20      	cmp	r3, #32
10004484:	d108      	bne.n	10004498 <cdcd_control_xfer_cb+0x1c>
10004486:	b570      	push	{r4, r5, r6, lr}
10004488:	4c26      	ldr	r4, [pc, #152]	@ (10004524 <cdcd_control_xfer_cb+0xa8>)
1000448a:	8893      	ldrh	r3, [r2, #4]
1000448c:	f894 c000 	ldrb.w	ip, [r4]
10004490:	459c      	cmp	ip, r3
10004492:	d003      	beq.n	1000449c <cdcd_control_xfer_cb+0x20>
10004494:	2000      	movs	r0, #0
10004496:	bd70      	pop	{r4, r5, r6, pc}
10004498:	2000      	movs	r0, #0
1000449a:	4770      	bx	lr
1000449c:	7853      	ldrb	r3, [r2, #1]
1000449e:	3b20      	subs	r3, #32
100044a0:	2b03      	cmp	r3, #3
100044a2:	d8f7      	bhi.n	10004494 <cdcd_control_xfer_cb+0x18>
100044a4:	e8df f003 	tbb	[pc, r3]
100044a8:	020d2327 	.word	0x020d2327
100044ac:	2901      	cmp	r1, #1
100044ae:	d02e      	beq.n	1000450e <cdcd_control_xfer_cb+0x92>
100044b0:	2903      	cmp	r1, #3
100044b2:	d11e      	bne.n	100044f2 <cdcd_control_xfer_cb+0x76>
100044b4:	4b1c      	ldr	r3, [pc, #112]	@ (10004528 <cdcd_control_xfer_cb+0xac>)
100044b6:	b1e3      	cbz	r3, 100044f2 <cdcd_control_xfer_cb+0x76>
100044b8:	2000      	movs	r0, #0
100044ba:	8851      	ldrh	r1, [r2, #2]
100044bc:	f3af 8000 	nop.w
100044c0:	e017      	b.n	100044f2 <cdcd_control_xfer_cb+0x76>
100044c2:	2901      	cmp	r1, #1
100044c4:	d023      	beq.n	1000450e <cdcd_control_xfer_cb+0x92>
100044c6:	2903      	cmp	r1, #3
100044c8:	d113      	bne.n	100044f2 <cdcd_control_xfer_cb+0x76>
100044ca:	8855      	ldrh	r5, [r2, #2]
100044cc:	4817      	ldr	r0, [pc, #92]	@ (1000452c <cdcd_control_xfer_cb+0xb0>)
100044ce:	f005 0601 	and.w	r6, r5, #1
100044d2:	f086 0101 	eor.w	r1, r6, #1
100044d6:	7125      	strb	r5, [r4, #4]
100044d8:	f000 fbae 	bl	10004c38 <tu_fifo_set_overwritable>
100044dc:	4b14      	ldr	r3, [pc, #80]	@ (10004530 <cdcd_control_xfer_cb+0xb4>)
100044de:	b143      	cbz	r3, 100044f2 <cdcd_control_xfer_cb+0x76>
100044e0:	4631      	mov	r1, r6
100044e2:	2000      	movs	r0, #0
100044e4:	f3c5 0240 	ubfx	r2, r5, #1, #1
100044e8:	f3af 8000 	nop.w
100044ec:	e001      	b.n	100044f2 <cdcd_control_xfer_cb+0x76>
100044ee:	2901      	cmp	r1, #1
100044f0:	d011      	beq.n	10004516 <cdcd_control_xfer_cb+0x9a>
100044f2:	2001      	movs	r0, #1
100044f4:	bd70      	pop	{r4, r5, r6, pc}
100044f6:	2901      	cmp	r1, #1
100044f8:	d00d      	beq.n	10004516 <cdcd_control_xfer_cb+0x9a>
100044fa:	2903      	cmp	r1, #3
100044fc:	d1f9      	bne.n	100044f2 <cdcd_control_xfer_cb+0x76>
100044fe:	4b0d      	ldr	r3, [pc, #52]	@ (10004534 <cdcd_control_xfer_cb+0xb8>)
10004500:	2b00      	cmp	r3, #0
10004502:	d0f6      	beq.n	100044f2 <cdcd_control_xfer_cb+0x76>
10004504:	2000      	movs	r0, #0
10004506:	490c      	ldr	r1, [pc, #48]	@ (10004538 <cdcd_control_xfer_cb+0xbc>)
10004508:	f3af 8000 	nop.w
1000450c:	e7f1      	b.n	100044f2 <cdcd_control_xfer_cb+0x76>
1000450e:	4611      	mov	r1, r2
10004510:	f7ff fcc6 	bl	10003ea0 <tud_control_status>
10004514:	e7ed      	b.n	100044f2 <cdcd_control_xfer_cb+0x76>
10004516:	4611      	mov	r1, r2
10004518:	2307      	movs	r3, #7
1000451a:	4a07      	ldr	r2, [pc, #28]	@ (10004538 <cdcd_control_xfer_cb+0xbc>)
1000451c:	f7ff fcda 	bl	10003ed4 <tud_control_xfer>
10004520:	e7e7      	b.n	100044f2 <cdcd_control_xfer_cb+0x76>
10004522:	bf00      	nop
10004524:	20001898 	.word	0x20001898
10004528:	00000000 	.word	0x00000000
1000452c:	200018bc 	.word	0x200018bc
	...
10004538:	200018a0 	.word	0x200018a0

1000453c <cdcd_xfer_cb>:
1000453c:	e92d 43f8 	stmdb	sp!, {r3, r4, r5, r6, r7, r8, r9, lr}
10004540:	4e35      	ldr	r6, [pc, #212]	@ (10004618 <cdcd_xfer_cb+0xdc>)
10004542:	460c      	mov	r4, r1
10004544:	78f2      	ldrb	r2, [r6, #3]
10004546:	4607      	mov	r7, r0
10004548:	428a      	cmp	r2, r1
1000454a:	461d      	mov	r5, r3
1000454c:	d03d      	beq.n	100045ca <cdcd_xfer_cb+0x8e>
1000454e:	78b3      	ldrb	r3, [r6, #2]
10004550:	428b      	cmp	r3, r1
10004552:	d012      	beq.n	1000457a <cdcd_xfer_cb+0x3e>
10004554:	f04f 23e0 	mov.w	r3, #3758153728	@ 0xe000e000
10004558:	f8d3 3df0 	ldr.w	r3, [r3, #3568]	@ 0xdf0
1000455c:	07db      	lsls	r3, r3, #31
1000455e:	d432      	bmi.n	100045c6 <cdcd_xfer_cb+0x8a>
10004560:	2000      	movs	r0, #0
10004562:	e8bd 83f8 	ldmia.w	sp!, {r3, r4, r5, r6, r7, r8, r9, pc}
10004566:	4b2d      	ldr	r3, [pc, #180]	@ (1000461c <cdcd_xfer_cb+0xe0>)
10004568:	b123      	cbz	r3, 10004574 <cdcd_xfer_cb+0x38>
1000456a:	482d      	ldr	r0, [pc, #180]	@ (10004620 <cdcd_xfer_cb+0xe4>)
1000456c:	f000 f976 	bl	1000485c <tu_fifo_empty>
10004570:	2800      	cmp	r0, #0
10004572:	d04d      	beq.n	10004610 <cdcd_xfer_cb+0xd4>
10004574:	2000      	movs	r0, #0
10004576:	f7ff fda3 	bl	100040c0 <_prep_out_transaction.isra.0>
1000457a:	78b3      	ldrb	r3, [r6, #2]
1000457c:	42a3      	cmp	r3, r4
1000457e:	d001      	beq.n	10004584 <cdcd_xfer_cb+0x48>
10004580:	2001      	movs	r0, #1
10004582:	e7ee      	b.n	10004562 <cdcd_xfer_cb+0x26>
10004584:	4b27      	ldr	r3, [pc, #156]	@ (10004624 <cdcd_xfer_cb+0xe8>)
10004586:	b113      	cbz	r3, 1000458e <cdcd_xfer_cb+0x52>
10004588:	2000      	movs	r0, #0
1000458a:	f3af 8000 	nop.w
1000458e:	2000      	movs	r0, #0
10004590:	f7ff fe32 	bl	100041f8 <tud_cdc_n_write_flush>
10004594:	2800      	cmp	r0, #0
10004596:	d1f3      	bne.n	10004580 <cdcd_xfer_cb+0x44>
10004598:	4823      	ldr	r0, [pc, #140]	@ (10004628 <cdcd_xfer_cb+0xec>)
1000459a:	f000 f94f 	bl	1000483c <tu_fifo_count>
1000459e:	2800      	cmp	r0, #0
100045a0:	d1ee      	bne.n	10004580 <cdcd_xfer_cb+0x44>
100045a2:	2d00      	cmp	r5, #0
100045a4:	d0ec      	beq.n	10004580 <cdcd_xfer_cb+0x44>
100045a6:	f015 053f 	ands.w	r5, r5, #63	@ 0x3f
100045aa:	d1e9      	bne.n	10004580 <cdcd_xfer_cb+0x44>
100045ac:	4638      	mov	r0, r7
100045ae:	78b1      	ldrb	r1, [r6, #2]
100045b0:	f7ff fc1a 	bl	10003de8 <usbd_edpt_claim>
100045b4:	2800      	cmp	r0, #0
100045b6:	d0e3      	beq.n	10004580 <cdcd_xfer_cb+0x44>
100045b8:	462b      	mov	r3, r5
100045ba:	462a      	mov	r2, r5
100045bc:	4638      	mov	r0, r7
100045be:	78b1      	ldrb	r1, [r6, #2]
100045c0:	f7ff fc36 	bl	10003e30 <usbd_edpt_xfer>
100045c4:	e7dc      	b.n	10004580 <cdcd_xfer_cb+0x44>
100045c6:	be00      	bkpt	0x0000
100045c8:	e7ca      	b.n	10004560 <cdcd_xfer_cb+0x24>
100045ca:	b29a      	uxth	r2, r3
100045cc:	4917      	ldr	r1, [pc, #92]	@ (1000462c <cdcd_xfer_cb+0xf0>)
100045ce:	f106 0010 	add.w	r0, r6, #16
100045d2:	f000 fa67 	bl	10004aa4 <tu_fifo_write_n>
100045d6:	4b16      	ldr	r3, [pc, #88]	@ (10004630 <cdcd_xfer_cb+0xf4>)
100045d8:	2b00      	cmp	r3, #0
100045da:	d0c4      	beq.n	10004566 <cdcd_xfer_cb+0x2a>
100045dc:	7973      	ldrb	r3, [r6, #5]
100045de:	2bff      	cmp	r3, #255	@ 0xff
100045e0:	d0c1      	beq.n	10004566 <cdcd_xfer_cb+0x2a>
100045e2:	2d00      	cmp	r5, #0
100045e4:	d0bf      	beq.n	10004566 <cdcd_xfer_cb+0x2a>
100045e6:	f8df 8044 	ldr.w	r8, [pc, #68]	@ 1000462c <cdcd_xfer_cb+0xf0>
100045ea:	eb08 0905 	add.w	r9, r8, r5
100045ee:	e002      	b.n	100045f6 <cdcd_xfer_cb+0xba>
100045f0:	45c8      	cmp	r8, r9
100045f2:	d0b8      	beq.n	10004566 <cdcd_xfer_cb+0x2a>
100045f4:	7973      	ldrb	r3, [r6, #5]
100045f6:	f818 2b01 	ldrb.w	r2, [r8], #1
100045fa:	429a      	cmp	r2, r3
100045fc:	d1f8      	bne.n	100045f0 <cdcd_xfer_cb+0xb4>
100045fe:	4808      	ldr	r0, [pc, #32]	@ (10004620 <cdcd_xfer_cb+0xe4>)
10004600:	f000 f92c 	bl	1000485c <tu_fifo_empty>
10004604:	2800      	cmp	r0, #0
10004606:	d1f3      	bne.n	100045f0 <cdcd_xfer_cb+0xb4>
10004608:	7971      	ldrb	r1, [r6, #5]
1000460a:	f3af 8000 	nop.w
1000460e:	e7ef      	b.n	100045f0 <cdcd_xfer_cb+0xb4>
10004610:	f3af 8000 	nop.w
10004614:	e7ae      	b.n	10004574 <cdcd_xfer_cb+0x38>
10004616:	bf00      	nop
10004618:	20001898 	.word	0x20001898
1000461c:	00000000 	.word	0x00000000
10004620:	200018a8 	.word	0x200018a8
10004624:	00000000 	.word	0x00000000
10004628:	200018bc 	.word	0x200018bc
1000462c:	20001814 	.word	0x20001814
10004630:	00000000 	.word	0x00000000

10004634 <tusb_rhport_init>:
10004634:	b510      	push	{r4, lr}
10004636:	b082      	sub	sp, #8
10004638:	b1c9      	cbz	r1, 1000466e <tusb_rhport_init+0x3a>
1000463a:	2801      	cmp	r0, #1
1000463c:	d80c      	bhi.n	10004658 <tusb_rhport_init+0x24>
1000463e:	780b      	ldrb	r3, [r1, #0]
10004640:	b153      	cbz	r3, 10004658 <tusb_rhport_init+0x24>
10004642:	4c14      	ldr	r4, [pc, #80]	@ (10004694 <tusb_rhport_init+0x60>)
10004644:	2b01      	cmp	r3, #1
10004646:	5423      	strb	r3, [r4, r0]
10004648:	d002      	beq.n	10004650 <tusb_rhport_init+0x1c>
1000464a:	2001      	movs	r0, #1
1000464c:	b002      	add	sp, #8
1000464e:	bd10      	pop	{r4, pc}
10004650:	f7fe ff30 	bl	100034b4 <tud_rhport_init>
10004654:	2800      	cmp	r0, #0
10004656:	d1f8      	bne.n	1000464a <tusb_rhport_init+0x16>
10004658:	f04f 23e0 	mov.w	r3, #3758153728	@ 0xe000e000
1000465c:	f8d3 3df0 	ldr.w	r3, [r3, #3568]	@ 0xdf0
10004660:	07db      	lsls	r3, r3, #31
10004662:	d402      	bmi.n	1000466a <tusb_rhport_init+0x36>
10004664:	2000      	movs	r0, #0
10004666:	b002      	add	sp, #8
10004668:	bd10      	pop	{r4, pc}
1000466a:	be00      	bkpt	0x0000
1000466c:	e7fa      	b.n	10004664 <tusb_rhport_init+0x30>
1000466e:	2401      	movs	r4, #1
10004670:	4608      	mov	r0, r1
10004672:	a901      	add	r1, sp, #4
10004674:	f8ad 4004 	strh.w	r4, [sp, #4]
10004678:	f7fe ff1c 	bl	100034b4 <tud_rhport_init>
1000467c:	b938      	cbnz	r0, 1000468e <tusb_rhport_init+0x5a>
1000467e:	f04f 23e0 	mov.w	r3, #3758153728	@ 0xe000e000
10004682:	f8d3 3df0 	ldr.w	r3, [r3, #3568]	@ 0xdf0
10004686:	07da      	lsls	r2, r3, #31
10004688:	d5ed      	bpl.n	10004666 <tusb_rhport_init+0x32>
1000468a:	be00      	bkpt	0x0000
1000468c:	e7eb      	b.n	10004666 <tusb_rhport_init+0x32>
1000468e:	4b01      	ldr	r3, [pc, #4]	@ (10004694 <tusb_rhport_init+0x60>)
10004690:	701c      	strb	r4, [r3, #0]
10004692:	e7e8      	b.n	10004666 <tusb_rhport_init+0x32>
10004694:	20001b54 	.word	0x20001b54

10004698 <tu_edpt_claim>:
10004698:	b5f8      	push	{r3, r4, r5, r6, r7, lr}
1000469a:	7803      	ldrb	r3, [r0, #0]
1000469c:	f013 0401 	ands.w	r4, r3, #1
100046a0:	d11a      	bne.n	100046d8 <tu_edpt_claim+0x40>
100046a2:	7803      	ldrb	r3, [r0, #0]
100046a4:	4605      	mov	r5, r0
100046a6:	075a      	lsls	r2, r3, #29
100046a8:	f3c3 0780 	ubfx	r7, r3, #2, #1
100046ac:	d501      	bpl.n	100046b2 <tu_edpt_claim+0x1a>
100046ae:	4620      	mov	r0, r4
100046b0:	bdf8      	pop	{r3, r4, r5, r6, r7, pc}
100046b2:	460e      	mov	r6, r1
100046b4:	f04f 31ff 	mov.w	r1, #4294967295	@ 0xffffffff
100046b8:	4630      	mov	r0, r6
100046ba:	f000 fd5d 	bl	10005178 <__mutex_enter_timeout_ms_veneer>
100046be:	782b      	ldrb	r3, [r5, #0]
100046c0:	f013 0401 	ands.w	r4, r3, #1
100046c4:	d10b      	bne.n	100046de <tu_edpt_claim+0x46>
100046c6:	782b      	ldrb	r3, [r5, #0]
100046c8:	075b      	lsls	r3, r3, #29
100046ca:	d409      	bmi.n	100046e0 <tu_edpt_claim+0x48>
100046cc:	782b      	ldrb	r3, [r5, #0]
100046ce:	2401      	movs	r4, #1
100046d0:	f043 0304 	orr.w	r3, r3, #4
100046d4:	702b      	strb	r3, [r5, #0]
100046d6:	e003      	b.n	100046e0 <tu_edpt_claim+0x48>
100046d8:	2400      	movs	r4, #0
100046da:	4620      	mov	r0, r4
100046dc:	bdf8      	pop	{r3, r4, r5, r6, r7, pc}
100046de:	463c      	mov	r4, r7
100046e0:	4630      	mov	r0, r6
100046e2:	f000 fd51 	bl	10005188 <__mutex_exit_veneer>
100046e6:	4620      	mov	r0, r4
100046e8:	bdf8      	pop	{r3, r4, r5, r6, r7, pc}
100046ea:	bf00      	nop

100046ec <tu_edpt_release>:
100046ec:	b570      	push	{r4, r5, r6, lr}
100046ee:	460c      	mov	r4, r1
100046f0:	4605      	mov	r5, r0
100046f2:	f04f 31ff 	mov.w	r1, #4294967295	@ 0xffffffff
100046f6:	4620      	mov	r0, r4
100046f8:	f000 fd3e 	bl	10005178 <__mutex_enter_timeout_ms_veneer>
100046fc:	782b      	ldrb	r3, [r5, #0]
100046fe:	f3c3 0680 	ubfx	r6, r3, #2, #1
10004702:	075b      	lsls	r3, r3, #29
10004704:	d508      	bpl.n	10004718 <tu_edpt_release+0x2c>
10004706:	782b      	ldrb	r3, [r5, #0]
10004708:	f013 0301 	ands.w	r3, r3, #1
1000470c:	bf11      	iteee	ne
1000470e:	2600      	movne	r6, #0
10004710:	782a      	ldrbeq	r2, [r5, #0]
10004712:	f363 0282 	bfieq	r2, r3, #2, #1
10004716:	702a      	strbeq	r2, [r5, #0]
10004718:	4620      	mov	r0, r4
1000471a:	f000 fd35 	bl	10005188 <__mutex_exit_veneer>
1000471e:	4630      	mov	r0, r6
10004720:	bd70      	pop	{r4, r5, r6, pc}
10004722:	bf00      	nop

10004724 <tu_edpt_validate>:
10004724:	78c3      	ldrb	r3, [r0, #3]
10004726:	8882      	ldrh	r2, [r0, #4]
10004728:	f003 0003 	and.w	r0, r3, #3
1000472c:	2802      	cmp	r0, #2
1000472e:	f3c2 020a 	ubfx	r2, r2, #0, #11
10004732:	d015      	beq.n	10004760 <tu_edpt_validate+0x3c>
10004734:	2803      	cmp	r0, #3
10004736:	d00a      	beq.n	1000474e <tu_edpt_validate+0x2a>
10004738:	2801      	cmp	r0, #1
1000473a:	d11c      	bne.n	10004776 <tu_edpt_validate+0x52>
1000473c:	2902      	cmp	r1, #2
1000473e:	f240 33ff 	movw	r3, #1023	@ 0x3ff
10004742:	bf08      	it	eq
10004744:	f44f 6380 	moveq.w	r3, #1024	@ 0x400
10004748:	4293      	cmp	r3, r2
1000474a:	d30d      	bcc.n	10004768 <tu_edpt_validate+0x44>
1000474c:	4770      	bx	lr
1000474e:	2902      	cmp	r1, #2
10004750:	bf14      	ite	ne
10004752:	2340      	movne	r3, #64	@ 0x40
10004754:	f44f 6380 	moveq.w	r3, #1024	@ 0x400
10004758:	4293      	cmp	r3, r2
1000475a:	d305      	bcc.n	10004768 <tu_edpt_validate+0x44>
1000475c:	2001      	movs	r0, #1
1000475e:	4770      	bx	lr
10004760:	2902      	cmp	r1, #2
10004762:	d00a      	beq.n	1000477a <tu_edpt_validate+0x56>
10004764:	2a40      	cmp	r2, #64	@ 0x40
10004766:	d9f9      	bls.n	1000475c <tu_edpt_validate+0x38>
10004768:	f04f 23e0 	mov.w	r3, #3758153728	@ 0xe000e000
1000476c:	f8d3 3df0 	ldr.w	r3, [r3, #3568]	@ 0xdf0
10004770:	07db      	lsls	r3, r3, #31
10004772:	d500      	bpl.n	10004776 <tu_edpt_validate+0x52>
10004774:	be00      	bkpt	0x0000
10004776:	2000      	movs	r0, #0
10004778:	4770      	bx	lr
1000477a:	f5b2 7f00 	cmp.w	r2, #512	@ 0x200
1000477e:	d0ed      	beq.n	1000475c <tu_edpt_validate+0x38>
10004780:	e7f2      	b.n	10004768 <tu_edpt_validate+0x44>
10004782:	bf00      	nop

10004784 <tu_edpt_bind_driver>:
10004784:	440a      	add	r2, r1
10004786:	4291      	cmp	r1, r2
10004788:	d226      	bcs.n	100047d8 <tu_edpt_bind_driver+0x54>
1000478a:	f891 c001 	ldrb.w	ip, [r1, #1]
1000478e:	f1bc 0f05 	cmp.w	ip, #5
10004792:	d005      	beq.n	100047a0 <tu_edpt_bind_driver+0x1c>
10004794:	f891 c000 	ldrb.w	ip, [r1]
10004798:	4461      	add	r1, ip
1000479a:	428a      	cmp	r2, r1
1000479c:	d8f5      	bhi.n	1000478a <tu_edpt_bind_driver+0x6>
1000479e:	4770      	bx	lr
100047a0:	b500      	push	{lr}
100047a2:	f891 c002 	ldrb.w	ip, [r1, #2]
100047a6:	f00c 0e7f 	and.w	lr, ip, #127	@ 0x7f
100047aa:	eb00 0e4e 	add.w	lr, r0, lr, lsl #1
100047ae:	ea4f 1cdc 	mov.w	ip, ip, lsr #7
100047b2:	f80e 300c 	strb.w	r3, [lr, ip]
100047b6:	f891 c000 	ldrb.w	ip, [r1]
100047ba:	4461      	add	r1, ip
100047bc:	428a      	cmp	r2, r1
100047be:	d909      	bls.n	100047d4 <tu_edpt_bind_driver+0x50>
100047c0:	f891 c001 	ldrb.w	ip, [r1, #1]
100047c4:	f1bc 0f05 	cmp.w	ip, #5
100047c8:	d0eb      	beq.n	100047a2 <tu_edpt_bind_driver+0x1e>
100047ca:	f891 c000 	ldrb.w	ip, [r1]
100047ce:	4461      	add	r1, ip
100047d0:	428a      	cmp	r2, r1
100047d2:	d8f5      	bhi.n	100047c0 <tu_edpt_bind_driver+0x3c>
100047d4:	f85d fb04 	ldr.w	pc, [sp], #4
100047d8:	4770      	bx	lr
100047da:	bf00      	nop

100047dc <tu_fifo_config>:
100047dc:	e92d 41f0 	stmdb	sp!, {r4, r5, r6, r7, r8, lr}
100047e0:	f5b2 4f00 	cmp.w	r2, #32768	@ 0x8000
100047e4:	f89d 8018 	ldrb.w	r8, [sp, #24]
100047e8:	d824      	bhi.n	10004834 <tu_fifo_config+0x58>
100047ea:	4604      	mov	r4, r0
100047ec:	68c0      	ldr	r0, [r0, #12]
100047ee:	4617      	mov	r7, r2
100047f0:	460e      	mov	r6, r1
100047f2:	461d      	mov	r5, r3
100047f4:	b118      	cbz	r0, 100047fe <tu_fifo_config+0x22>
100047f6:	f04f 31ff 	mov.w	r1, #4294967295	@ 0xffffffff
100047fa:	f000 fcbd 	bl	10005178 <__mutex_enter_timeout_ms_veneer>
100047fe:	6920      	ldr	r0, [r4, #16]
10004800:	b118      	cbz	r0, 1000480a <tu_fifo_config+0x2e>
10004802:	f04f 31ff 	mov.w	r1, #4294967295	@ 0xffffffff
10004806:	f000 fcb7 	bl	10005178 <__mutex_enter_timeout_ms_veneer>
1000480a:	2200      	movs	r2, #0
1000480c:	f3c5 030e 	ubfx	r3, r5, #0, #15
10004810:	68e0      	ldr	r0, [r4, #12]
10004812:	ea43 33c8 	orr.w	r3, r3, r8, lsl #15
10004816:	8162      	strh	r2, [r4, #10]
10004818:	6026      	str	r6, [r4, #0]
1000481a:	80a7      	strh	r7, [r4, #4]
1000481c:	80e3      	strh	r3, [r4, #6]
1000481e:	8122      	strh	r2, [r4, #8]
10004820:	b108      	cbz	r0, 10004826 <tu_fifo_config+0x4a>
10004822:	f000 fcb1 	bl	10005188 <__mutex_exit_veneer>
10004826:	6920      	ldr	r0, [r4, #16]
10004828:	b108      	cbz	r0, 1000482e <tu_fifo_config+0x52>
1000482a:	f000 fcad 	bl	10005188 <__mutex_exit_veneer>
1000482e:	2001      	movs	r0, #1
10004830:	e8bd 81f0 	ldmia.w	sp!, {r4, r5, r6, r7, r8, pc}
10004834:	2000      	movs	r0, #0
10004836:	e8bd 81f0 	ldmia.w	sp!, {r4, r5, r6, r7, r8, pc}
1000483a:	bf00      	nop

1000483c <tu_fifo_count>:
1000483c:	8903      	ldrh	r3, [r0, #8]
1000483e:	8942      	ldrh	r2, [r0, #10]
10004840:	b29b      	uxth	r3, r3
10004842:	b292      	uxth	r2, r2
10004844:	8880      	ldrh	r0, [r0, #4]
10004846:	4293      	cmp	r3, r2
10004848:	bf36      	itet	cc
1000484a:	ebc2 0240 	rsbcc	r2, r2, r0, lsl #1
1000484e:	1a9b      	subcs	r3, r3, r2
10004850:	189b      	addcc	r3, r3, r2
10004852:	b29b      	uxth	r3, r3
10004854:	4298      	cmp	r0, r3
10004856:	bf28      	it	cs
10004858:	4618      	movcs	r0, r3
1000485a:	4770      	bx	lr

1000485c <tu_fifo_empty>:
1000485c:	8902      	ldrh	r2, [r0, #8]
1000485e:	8943      	ldrh	r3, [r0, #10]
10004860:	b290      	uxth	r0, r2
10004862:	b29b      	uxth	r3, r3
10004864:	1ac0      	subs	r0, r0, r3
10004866:	fab0 f080 	clz	r0, r0
1000486a:	0940      	lsrs	r0, r0, #5
1000486c:	4770      	bx	lr
1000486e:	bf00      	nop

10004870 <tu_fifo_remaining>:
10004870:	8903      	ldrh	r3, [r0, #8]
10004872:	8942      	ldrh	r2, [r0, #10]
10004874:	b29b      	uxth	r3, r3
10004876:	8880      	ldrh	r0, [r0, #4]
10004878:	b292      	uxth	r2, r2
1000487a:	4293      	cmp	r3, r2
1000487c:	bf36      	itet	cc
1000487e:	ebc2 0240 	rsbcc	r2, r2, r0, lsl #1
10004882:	1a9b      	subcs	r3, r3, r2
10004884:	189b      	addcc	r3, r3, r2
10004886:	b29b      	uxth	r3, r3
10004888:	4298      	cmp	r0, r3
1000488a:	bf86      	itte	hi
1000488c:	1ac0      	subhi	r0, r0, r3
1000488e:	b280      	uxthhi	r0, r0
10004890:	2000      	movls	r0, #0
10004892:	4770      	bx	lr

10004894 <tu_fifo_read>:
10004894:	b538      	push	{r3, r4, r5, lr}
10004896:	4604      	mov	r4, r0
10004898:	6900      	ldr	r0, [r0, #16]
1000489a:	460d      	mov	r5, r1
1000489c:	b118      	cbz	r0, 100048a6 <tu_fifo_read+0x12>
1000489e:	f04f 31ff 	mov.w	r1, #4294967295	@ 0xffffffff
100048a2:	f000 fc69 	bl	10005178 <__mutex_enter_timeout_ms_veneer>
100048a6:	8921      	ldrh	r1, [r4, #8]
100048a8:	8963      	ldrh	r3, [r4, #10]
100048aa:	b289      	uxth	r1, r1
100048ac:	b29b      	uxth	r3, r3
100048ae:	88a2      	ldrh	r2, [r4, #4]
100048b0:	4299      	cmp	r1, r3
100048b2:	bf36      	itet	cc
100048b4:	ebc3 0042 	rsbcc	r0, r3, r2, lsl #1
100048b8:	1ac8      	subcs	r0, r1, r3
100048ba:	1840      	addcc	r0, r0, r1
100048bc:	b280      	uxth	r0, r0
100048be:	b350      	cbz	r0, 10004916 <tu_fifo_read+0x82>
100048c0:	4282      	cmp	r2, r0
100048c2:	d209      	bcs.n	100048d8 <tu_fifo_read+0x44>
100048c4:	4291      	cmp	r1, r2
100048c6:	bf2c      	ite	cs
100048c8:	1a89      	subcs	r1, r1, r2
100048ca:	1889      	addcc	r1, r1, r2
100048cc:	b28b      	uxth	r3, r1
100048ce:	429a      	cmp	r2, r3
100048d0:	8163      	strh	r3, [r4, #10]
100048d2:	d803      	bhi.n	100048dc <tu_fifo_read+0x48>
100048d4:	1a9b      	subs	r3, r3, r2
100048d6:	b29b      	uxth	r3, r3
100048d8:	429a      	cmp	r2, r3
100048da:	d9fb      	bls.n	100048d4 <tu_fifo_read+0x40>
100048dc:	88e2      	ldrh	r2, [r4, #6]
100048de:	6821      	ldr	r1, [r4, #0]
100048e0:	f3c2 020e 	ubfx	r2, r2, #0, #15
100048e4:	fb02 1103 	mla	r1, r2, r3, r1
100048e8:	4628      	mov	r0, r5
100048ea:	f000 fb4b 	bl	10004f84 <memcpy>
100048ee:	8961      	ldrh	r1, [r4, #10]
100048f0:	2501      	movs	r5, #1
100048f2:	b289      	uxth	r1, r1
100048f4:	1c4b      	adds	r3, r1, #1
100048f6:	b29b      	uxth	r3, r3
100048f8:	4299      	cmp	r1, r3
100048fa:	88a2      	ldrh	r2, [r4, #4]
100048fc:	d90e      	bls.n	1000491c <tu_fifo_read+0x88>
100048fe:	2300      	movs	r3, #0
10004900:	fa02 f105 	lsl.w	r1, r2, r5
10004904:	1a5b      	subs	r3, r3, r1
10004906:	b29b      	uxth	r3, r3
10004908:	6920      	ldr	r0, [r4, #16]
1000490a:	8163      	strh	r3, [r4, #10]
1000490c:	b108      	cbz	r0, 10004912 <tu_fifo_read+0x7e>
1000490e:	f000 fc3b 	bl	10005188 <__mutex_exit_veneer>
10004912:	4628      	mov	r0, r5
10004914:	bd38      	pop	{r3, r4, r5, pc}
10004916:	4605      	mov	r5, r0
10004918:	8963      	ldrh	r3, [r4, #10]
1000491a:	b29b      	uxth	r3, r3
1000491c:	ebb3 0f42 	cmp.w	r3, r2, lsl #1
10004920:	ea4f 0142 	mov.w	r1, r2, lsl #1
10004924:	dbf0      	blt.n	10004908 <tu_fifo_read+0x74>
10004926:	e7ed      	b.n	10004904 <tu_fifo_read+0x70>

10004928 <tu_fifo_read_n>:
10004928:	e92d 47f0 	stmdb	sp!, {r4, r5, r6, r7, r8, r9, sl, lr}
1000492c:	4606      	mov	r6, r0
1000492e:	6900      	ldr	r0, [r0, #16]
10004930:	4688      	mov	r8, r1
10004932:	4691      	mov	r9, r2
10004934:	b118      	cbz	r0, 1000493e <tu_fifo_read_n+0x16>
10004936:	f04f 31ff 	mov.w	r1, #4294967295	@ 0xffffffff
1000493a:	f000 fc1d 	bl	10005178 <__mutex_enter_timeout_ms_veneer>
1000493e:	8933      	ldrh	r3, [r6, #8]
10004940:	8974      	ldrh	r4, [r6, #10]
10004942:	b29b      	uxth	r3, r3
10004944:	b2a4      	uxth	r4, r4
10004946:	88b5      	ldrh	r5, [r6, #4]
10004948:	42a3      	cmp	r3, r4
1000494a:	bf36      	itet	cc
1000494c:	ebc4 0745 	rsbcc	r7, r4, r5, lsl #1
10004950:	1b1f      	subcs	r7, r3, r4
10004952:	18ff      	addcc	r7, r7, r3
10004954:	b2bf      	uxth	r7, r7
10004956:	2f00      	cmp	r7, #0
10004958:	d04a      	beq.n	100049f0 <tu_fifo_read_n+0xc8>
1000495a:	42bd      	cmp	r5, r7
1000495c:	d340      	bcc.n	100049e0 <tu_fifo_read_n+0xb8>
1000495e:	45b9      	cmp	r9, r7
10004960:	bf28      	it	cs
10004962:	46b9      	movcs	r9, r7
10004964:	42a5      	cmp	r5, r4
10004966:	fa1f f789 	uxth.w	r7, r9
1000496a:	d803      	bhi.n	10004974 <tu_fifo_read_n+0x4c>
1000496c:	1b64      	subs	r4, r4, r5
1000496e:	b2a4      	uxth	r4, r4
10004970:	42a5      	cmp	r5, r4
10004972:	d9fb      	bls.n	1000496c <tu_fifo_read_n+0x44>
10004974:	f8b6 a006 	ldrh.w	sl, [r6, #6]
10004978:	1b2b      	subs	r3, r5, r4
1000497a:	6831      	ldr	r1, [r6, #0]
1000497c:	b29b      	uxth	r3, r3
1000497e:	f3ca 020e 	ubfx	r2, sl, #0, #15
10004982:	429f      	cmp	r7, r3
10004984:	4692      	mov	sl, r2
10004986:	fb02 1104 	mla	r1, r2, r4, r1
1000498a:	d923      	bls.n	100049d4 <tu_fifo_read_n+0xac>
1000498c:	fb13 f302 	smulbb	r3, r3, r2
10004990:	fa1f f983 	uxth.w	r9, r3
10004994:	464a      	mov	r2, r9
10004996:	4640      	mov	r0, r8
10004998:	1b7d      	subs	r5, r7, r5
1000499a:	f000 faf3 	bl	10004f84 <memcpy>
1000499e:	1962      	adds	r2, r4, r5
100049a0:	fb12 f20a 	smulbb	r2, r2, sl
100049a4:	6831      	ldr	r1, [r6, #0]
100049a6:	eb08 0009 	add.w	r0, r8, r9
100049aa:	b292      	uxth	r2, r2
100049ac:	f000 faea 	bl	10004f84 <memcpy>
100049b0:	8972      	ldrh	r2, [r6, #10]
100049b2:	88b5      	ldrh	r5, [r6, #4]
100049b4:	b292      	uxth	r2, r2
100049b6:	19d3      	adds	r3, r2, r7
100049b8:	b29b      	uxth	r3, r3
100049ba:	429a      	cmp	r2, r3
100049bc:	d91a      	bls.n	100049f4 <tu_fifo_read_n+0xcc>
100049be:	006a      	lsls	r2, r5, #1
100049c0:	1a9b      	subs	r3, r3, r2
100049c2:	b29b      	uxth	r3, r3
100049c4:	6930      	ldr	r0, [r6, #16]
100049c6:	8173      	strh	r3, [r6, #10]
100049c8:	b108      	cbz	r0, 100049ce <tu_fifo_read_n+0xa6>
100049ca:	f000 fbdd 	bl	10005188 <__mutex_exit_veneer>
100049ce:	4638      	mov	r0, r7
100049d0:	e8bd 87f0 	ldmia.w	sp!, {r4, r5, r6, r7, r8, r9, sl, pc}
100049d4:	4640      	mov	r0, r8
100049d6:	fb07 f202 	mul.w	r2, r7, r2
100049da:	f000 fad3 	bl	10004f84 <memcpy>
100049de:	e7e7      	b.n	100049b0 <tu_fifo_read_n+0x88>
100049e0:	42ab      	cmp	r3, r5
100049e2:	bf2c      	ite	cs
100049e4:	1b5b      	subcs	r3, r3, r5
100049e6:	195b      	addcc	r3, r3, r5
100049e8:	b29c      	uxth	r4, r3
100049ea:	462f      	mov	r7, r5
100049ec:	8174      	strh	r4, [r6, #10]
100049ee:	e7b6      	b.n	1000495e <tu_fifo_read_n+0x36>
100049f0:	8973      	ldrh	r3, [r6, #10]
100049f2:	b29b      	uxth	r3, r3
100049f4:	ebb3 0f45 	cmp.w	r3, r5, lsl #1
100049f8:	ea4f 0245 	mov.w	r2, r5, lsl #1
100049fc:	dbe2      	blt.n	100049c4 <tu_fifo_read_n+0x9c>
100049fe:	e7df      	b.n	100049c0 <tu_fifo_read_n+0x98>

10004a00 <tu_fifo_write>:
10004a00:	b5f8      	push	{r3, r4, r5, r6, r7, lr}
10004a02:	4604      	mov	r4, r0
10004a04:	68c0      	ldr	r0, [r0, #12]
10004a06:	460e      	mov	r6, r1
10004a08:	b118      	cbz	r0, 10004a12 <tu_fifo_write+0x12>
10004a0a:	f04f 31ff 	mov.w	r1, #4294967295	@ 0xffffffff
10004a0e:	f000 fbb3 	bl	10005178 <__mutex_enter_timeout_ms_veneer>
10004a12:	8925      	ldrh	r5, [r4, #8]
10004a14:	8923      	ldrh	r3, [r4, #8]
10004a16:	8961      	ldrh	r1, [r4, #10]
10004a18:	b29b      	uxth	r3, r3
10004a1a:	b289      	uxth	r1, r1
10004a1c:	88a2      	ldrh	r2, [r4, #4]
10004a1e:	428b      	cmp	r3, r1
10004a20:	bf36      	itet	cc
10004a22:	ebc1 0142 	rsbcc	r1, r1, r2, lsl #1
10004a26:	1a5b      	subcs	r3, r3, r1
10004a28:	185b      	addcc	r3, r3, r1
10004a2a:	b29b      	uxth	r3, r3
10004a2c:	429a      	cmp	r2, r3
10004a2e:	b2ad      	uxth	r5, r5
10004a30:	d808      	bhi.n	10004a44 <tu_fifo_write+0x44>
10004a32:	79e7      	ldrb	r7, [r4, #7]
10004a34:	09ff      	lsrs	r7, r7, #7
10004a36:	d105      	bne.n	10004a44 <tu_fifo_write+0x44>
10004a38:	68e0      	ldr	r0, [r4, #12]
10004a3a:	b108      	cbz	r0, 10004a40 <tu_fifo_write+0x40>
10004a3c:	f000 fba4 	bl	10005188 <__mutex_exit_veneer>
10004a40:	4638      	mov	r0, r7
10004a42:	bdf8      	pop	{r3, r4, r5, r6, r7, pc}
10004a44:	4295      	cmp	r5, r2
10004a46:	bf28      	it	cs
10004a48:	462b      	movcs	r3, r5
10004a4a:	d318      	bcc.n	10004a7e <tu_fifo_write+0x7e>
10004a4c:	1a9b      	subs	r3, r3, r2
10004a4e:	b29b      	uxth	r3, r3
10004a50:	4293      	cmp	r3, r2
10004a52:	d2fb      	bcs.n	10004a4c <tu_fifo_write+0x4c>
10004a54:	88e2      	ldrh	r2, [r4, #6]
10004a56:	6820      	ldr	r0, [r4, #0]
10004a58:	f3c2 020e 	ubfx	r2, r2, #0, #15
10004a5c:	fb02 0003 	mla	r0, r2, r3, r0
10004a60:	4631      	mov	r1, r6
10004a62:	f000 fa8f 	bl	10004f84 <memcpy>
10004a66:	1c6b      	adds	r3, r5, #1
10004a68:	b29b      	uxth	r3, r3
10004a6a:	429d      	cmp	r5, r3
10004a6c:	88a2      	ldrh	r2, [r4, #4]
10004a6e:	d912      	bls.n	10004a96 <tu_fifo_write+0x96>
10004a70:	2300      	movs	r3, #0
10004a72:	0051      	lsls	r1, r2, #1
10004a74:	1a5b      	subs	r3, r3, r1
10004a76:	b29b      	uxth	r3, r3
10004a78:	2701      	movs	r7, #1
10004a7a:	8123      	strh	r3, [r4, #8]
10004a7c:	e7dc      	b.n	10004a38 <tu_fifo_write+0x38>
10004a7e:	88e2      	ldrh	r2, [r4, #6]
10004a80:	6820      	ldr	r0, [r4, #0]
10004a82:	f3c2 020e 	ubfx	r2, r2, #0, #15
10004a86:	fb05 0002 	mla	r0, r5, r2, r0
10004a8a:	4631      	mov	r1, r6
10004a8c:	f000 fa7a 	bl	10004f84 <memcpy>
10004a90:	3501      	adds	r5, #1
10004a92:	88a2      	ldrh	r2, [r4, #4]
10004a94:	b2ab      	uxth	r3, r5
10004a96:	ebb3 0f42 	cmp.w	r3, r2, lsl #1
10004a9a:	ea4f 0142 	mov.w	r1, r2, lsl #1
10004a9e:	dbeb      	blt.n	10004a78 <tu_fifo_write+0x78>
10004aa0:	e7e8      	b.n	10004a74 <tu_fifo_write+0x74>
10004aa2:	bf00      	nop

10004aa4 <tu_fifo_write_n>:
10004aa4:	e92d 4ff0 	stmdb	sp!, {r4, r5, r6, r7, r8, r9, sl, fp, lr}
10004aa8:	4617      	mov	r7, r2
10004aaa:	b083      	sub	sp, #12
10004aac:	2a00      	cmp	r2, #0
10004aae:	d075      	beq.n	10004b9c <tu_fifo_write_n+0xf8>
10004ab0:	4606      	mov	r6, r0
10004ab2:	68c0      	ldr	r0, [r0, #12]
10004ab4:	4689      	mov	r9, r1
10004ab6:	b118      	cbz	r0, 10004ac0 <tu_fifo_write_n+0x1c>
10004ab8:	f04f 31ff 	mov.w	r1, #4294967295	@ 0xffffffff
10004abc:	f000 fb5c 	bl	10005178 <__mutex_enter_timeout_ms_veneer>
10004ac0:	79f3      	ldrb	r3, [r6, #7]
10004ac2:	f8b6 8008 	ldrh.w	r8, [r6, #8]
10004ac6:	8972      	ldrh	r2, [r6, #10]
10004ac8:	09db      	lsrs	r3, r3, #7
10004aca:	88b5      	ldrh	r5, [r6, #4]
10004acc:	fa1f f888 	uxth.w	r8, r8
10004ad0:	b292      	uxth	r2, r2
10004ad2:	d13c      	bne.n	10004b4e <tu_fifo_write_n+0xaa>
10004ad4:	4590      	cmp	r8, r2
10004ad6:	bf36      	itet	cc
10004ad8:	ebc2 0245 	rsbcc	r2, r2, r5, lsl #1
10004adc:	eba8 0202 	subcs.w	r2, r8, r2
10004ae0:	4442      	addcc	r2, r8
10004ae2:	b292      	uxth	r2, r2
10004ae4:	42aa      	cmp	r2, r5
10004ae6:	d25e      	bcs.n	10004ba6 <tu_fifo_write_n+0x102>
10004ae8:	1aaa      	subs	r2, r5, r2
10004aea:	b292      	uxth	r2, r2
10004aec:	42ba      	cmp	r2, r7
10004aee:	bf28      	it	cs
10004af0:	463a      	movcs	r2, r7
10004af2:	f8b6 b006 	ldrh.w	fp, [r6, #6]
10004af6:	b297      	uxth	r7, r2
10004af8:	1b7b      	subs	r3, r7, r5
10004afa:	eb08 0a07 	add.w	sl, r8, r7
10004afe:	f3cb 0b0e 	ubfx	fp, fp, #0, #15
10004b02:	b29b      	uxth	r3, r3
10004b04:	fa1f fa8a 	uxth.w	sl, sl
10004b08:	45a8      	cmp	r8, r5
10004b0a:	4644      	mov	r4, r8
10004b0c:	d303      	bcc.n	10004b16 <tu_fifo_write_n+0x72>
10004b0e:	1b64      	subs	r4, r4, r5
10004b10:	b2a4      	uxth	r4, r4
10004b12:	42ac      	cmp	r4, r5
10004b14:	d2fb      	bcs.n	10004b0e <tu_fifo_write_n+0x6a>
10004b16:	1b2d      	subs	r5, r5, r4
10004b18:	6830      	ldr	r0, [r6, #0]
10004b1a:	b2ad      	uxth	r5, r5
10004b1c:	42bd      	cmp	r5, r7
10004b1e:	fb0b 0004 	mla	r0, fp, r4, r0
10004b22:	d357      	bcc.n	10004bd4 <tu_fifo_write_n+0x130>
10004b24:	4649      	mov	r1, r9
10004b26:	fb0b f207 	mul.w	r2, fp, r7
10004b2a:	f000 fa2b 	bl	10004f84 <memcpy>
10004b2e:	88b2      	ldrh	r2, [r6, #4]
10004b30:	45d0      	cmp	r8, sl
10004b32:	ea4f 0342 	mov.w	r3, r2, lsl #1
10004b36:	d802      	bhi.n	10004b3e <tu_fifo_write_n+0x9a>
10004b38:	ebba 0f42 	cmp.w	sl, r2, lsl #1
10004b3c:	db03      	blt.n	10004b46 <tu_fifo_write_n+0xa2>
10004b3e:	ebaa 0303 	sub.w	r3, sl, r3
10004b42:	fa1f fa83 	uxth.w	sl, r3
10004b46:	463d      	mov	r5, r7
10004b48:	f8a6 a008 	strh.w	sl, [r6, #8]
10004b4c:	e02c      	b.n	10004ba8 <tu_fifo_write_n+0x104>
10004b4e:	f8b6 b006 	ldrh.w	fp, [r6, #6]
10004b52:	42af      	cmp	r7, r5
10004b54:	f3cb 0b0e 	ubfx	fp, fp, #0, #15
10004b58:	d22f      	bcs.n	10004bba <tu_fifo_write_n+0x116>
10004b5a:	4590      	cmp	r8, r2
10004b5c:	bf36      	itet	cc
10004b5e:	ebc2 0145 	rsbcc	r1, r2, r5, lsl #1
10004b62:	eba8 0102 	subcs.w	r1, r8, r2
10004b66:	4441      	addcc	r1, r8
10004b68:	b289      	uxth	r1, r1
10004b6a:	0068      	lsls	r0, r5, #1
10004b6c:	4439      	add	r1, r7
10004b6e:	1b7b      	subs	r3, r7, r5
10004b70:	4281      	cmp	r1, r0
10004b72:	b29b      	uxth	r3, r3
10004b74:	db0d      	blt.n	10004b92 <tu_fifo_write_n+0xee>
10004b76:	eb02 0a05 	add.w	sl, r2, r5
10004b7a:	fa1f fa8a 	uxth.w	sl, sl
10004b7e:	ebaa 0807 	sub.w	r8, sl, r7
10004b82:	fa1f f888 	uxth.w	r8, r8
10004b86:	4542      	cmp	r2, r8
10004b88:	d937      	bls.n	10004bfa <tu_fifo_write_n+0x156>
10004b8a:	eba8 0000 	sub.w	r0, r8, r0
10004b8e:	fa1f f880 	uxth.w	r8, r0
10004b92:	eb07 0a08 	add.w	sl, r7, r8
10004b96:	fa1f fa8a 	uxth.w	sl, sl
10004b9a:	e7b5      	b.n	10004b08 <tu_fifo_write_n+0x64>
10004b9c:	4615      	mov	r5, r2
10004b9e:	4628      	mov	r0, r5
10004ba0:	b003      	add	sp, #12
10004ba2:	e8bd 8ff0 	ldmia.w	sp!, {r4, r5, r6, r7, r8, r9, sl, fp, pc}
10004ba6:	2500      	movs	r5, #0
10004ba8:	68f0      	ldr	r0, [r6, #12]
10004baa:	2800      	cmp	r0, #0
10004bac:	d0f7      	beq.n	10004b9e <tu_fifo_write_n+0xfa>
10004bae:	f000 faeb 	bl	10005188 <__mutex_exit_veneer>
10004bb2:	4628      	mov	r0, r5
10004bb4:	b003      	add	sp, #12
10004bb6:	e8bd 8ff0 	ldmia.w	sp!, {r4, r5, r6, r7, r8, r9, sl, fp, pc}
10004bba:	2d00      	cmp	r5, #0
10004bbc:	d0f4      	beq.n	10004ba8 <tu_fifo_write_n+0x104>
10004bbe:	1b7f      	subs	r7, r7, r5
10004bc0:	eb02 0a05 	add.w	sl, r2, r5
10004bc4:	fb0b 9907 	mla	r9, fp, r7, r9
10004bc8:	4690      	mov	r8, r2
10004bca:	462f      	mov	r7, r5
10004bcc:	2300      	movs	r3, #0
10004bce:	fa1f fa8a 	uxth.w	sl, sl
10004bd2:	e799      	b.n	10004b08 <tu_fifo_write_n+0x64>
10004bd4:	fb15 f50b 	smulbb	r5, r5, fp
10004bd8:	b2ad      	uxth	r5, r5
10004bda:	462a      	mov	r2, r5
10004bdc:	4649      	mov	r1, r9
10004bde:	9301      	str	r3, [sp, #4]
10004be0:	f000 f9d0 	bl	10004f84 <memcpy>
10004be4:	9b01      	ldr	r3, [sp, #4]
10004be6:	6830      	ldr	r0, [r6, #0]
10004be8:	18e2      	adds	r2, r4, r3
10004bea:	fb12 f20b 	smulbb	r2, r2, fp
10004bee:	eb09 0105 	add.w	r1, r9, r5
10004bf2:	b292      	uxth	r2, r2
10004bf4:	f000 f9c6 	bl	10004f84 <memcpy>
10004bf8:	e799      	b.n	10004b2e <tu_fifo_write_n+0x8a>
10004bfa:	4540      	cmp	r0, r8
10004bfc:	dc84      	bgt.n	10004b08 <tu_fifo_write_n+0x64>
10004bfe:	e7c4      	b.n	10004b8a <tu_fifo_write_n+0xe6>

10004c00 <tu_fifo_clear>:
10004c00:	b510      	push	{r4, lr}
10004c02:	4604      	mov	r4, r0
10004c04:	68c0      	ldr	r0, [r0, #12]
10004c06:	b118      	cbz	r0, 10004c10 <tu_fifo_clear+0x10>
10004c08:	f04f 31ff 	mov.w	r1, #4294967295	@ 0xffffffff
10004c0c:	f000 fab4 	bl	10005178 <__mutex_enter_timeout_ms_veneer>
10004c10:	6920      	ldr	r0, [r4, #16]
10004c12:	b118      	cbz	r0, 10004c1c <tu_fifo_clear+0x1c>
10004c14:	f04f 31ff 	mov.w	r1, #4294967295	@ 0xffffffff
10004c18:	f000 faae 	bl	10005178 <__mutex_enter_timeout_ms_veneer>
10004c1c:	2300      	movs	r3, #0
10004c1e:	68e0      	ldr	r0, [r4, #12]
10004c20:	8163      	strh	r3, [r4, #10]
10004c22:	8123      	strh	r3, [r4, #8]
10004c24:	b108      	cbz	r0, 10004c2a <tu_fifo_clear+0x2a>
10004c26:	f000 faaf 	bl	10005188 <__mutex_exit_veneer>
10004c2a:	6920      	ldr	r0, [r4, #16]
10004c2c:	b108      	cbz	r0, 10004c32 <tu_fifo_clear+0x32>
10004c2e:	f000 faab 	bl	10005188 <__mutex_exit_veneer>
10004c32:	2001      	movs	r0, #1
10004c34:	bd10      	pop	{r4, pc}
10004c36:	bf00      	nop

10004c38 <tu_fifo_set_overwritable>:
10004c38:	b538      	push	{r3, r4, r5, lr}
10004c3a:	4604      	mov	r4, r0
10004c3c:	68c0      	ldr	r0, [r0, #12]
10004c3e:	460d      	mov	r5, r1
10004c40:	b118      	cbz	r0, 10004c4a <tu_fifo_set_overwritable+0x12>
10004c42:	f04f 31ff 	mov.w	r1, #4294967295	@ 0xffffffff
10004c46:	f000 fa97 	bl	10005178 <__mutex_enter_timeout_ms_veneer>
10004c4a:	6920      	ldr	r0, [r4, #16]
10004c4c:	b118      	cbz	r0, 10004c56 <tu_fifo_set_overwritable+0x1e>
10004c4e:	f04f 31ff 	mov.w	r1, #4294967295	@ 0xffffffff
10004c52:	f000 fa91 	bl	10005178 <__mutex_enter_timeout_ms_veneer>
10004c56:	79e3      	ldrb	r3, [r4, #7]
10004c58:	68e0      	ldr	r0, [r4, #12]
10004c5a:	f365 13c7 	bfi	r3, r5, #7, #1
10004c5e:	71e3      	strb	r3, [r4, #7]
10004c60:	b108      	cbz	r0, 10004c66 <tu_fifo_set_overwritable+0x2e>
10004c62:	f000 fa91 	bl	10005188 <__mutex_exit_veneer>
10004c66:	6920      	ldr	r0, [r4, #16]
10004c68:	b108      	cbz	r0, 10004c6e <tu_fifo_set_overwritable+0x36>
10004c6a:	f000 fa8d 	bl	10005188 <__mutex_exit_veneer>
10004c6e:	2001      	movs	r0, #1
10004c70:	bd38      	pop	{r3, r4, r5, pc}
10004c72:	bf00      	nop

10004c74 <_retrieve_unique_id_on_boot>:
10004c74:	b500      	push	{lr}
10004c76:	f245 3047 	movw	r0, #21319	@ 0x5347
10004c7a:	b08b      	sub	sp, #44	@ 0x2c
10004c7c:	f7fd ff88 	bl	10002b90 <rom_func_lookup>
10004c80:	2201      	movs	r2, #1
10004c82:	4603      	mov	r3, r0
10004c84:	2109      	movs	r1, #9
10004c86:	a801      	add	r0, sp, #4
10004c88:	4798      	blx	r3
10004c8a:	e9dd 3203 	ldrd	r3, r2, [sp, #12]
10004c8e:	4904      	ldr	r1, [pc, #16]	@ (10004ca0 <_retrieve_unique_id_on_boot+0x2c>)
10004c90:	ba12      	rev	r2, r2
10004c92:	ba1b      	rev	r3, r3
10004c94:	e9c1 2300 	strd	r2, r3, [r1]
10004c98:	b00b      	add	sp, #44	@ 0x2c
10004c9a:	f85d fb04 	ldr.w	pc, [sp], #4
10004c9e:	bf00      	nop
10004ca0:	20002344 	.word	0x20002344

10004ca4 <atexit>:
10004ca4:	2300      	movs	r3, #0
10004ca6:	4601      	mov	r1, r0
10004ca8:	461a      	mov	r2, r3
10004caa:	4618      	mov	r0, r3
10004cac:	f000 ba0e 	b.w	100050cc <__register_exitproc>

10004cb0 <memset>:
10004cb0:	0783      	lsls	r3, r0, #30
10004cb2:	b530      	push	{r4, r5, lr}
10004cb4:	d046      	beq.n	10004d44 <memset+0x94>
10004cb6:	1884      	adds	r4, r0, r2
10004cb8:	4684      	mov	ip, r0
10004cba:	e004      	b.n	10004cc6 <memset+0x16>
10004cbc:	f803 1b01 	strb.w	r1, [r3], #1
10004cc0:	079d      	lsls	r5, r3, #30
10004cc2:	d004      	beq.n	10004cce <memset+0x1e>
10004cc4:	469c      	mov	ip, r3
10004cc6:	45a4      	cmp	ip, r4
10004cc8:	4663      	mov	r3, ip
10004cca:	d1f7      	bne.n	10004cbc <memset+0xc>
10004ccc:	bd30      	pop	{r4, r5, pc}
10004cce:	3a01      	subs	r2, #1
10004cd0:	4402      	add	r2, r0
10004cd2:	eba2 020c 	sub.w	r2, r2, ip
10004cd6:	2a03      	cmp	r2, #3
10004cd8:	d929      	bls.n	10004d2e <memset+0x7e>
10004cda:	b2cc      	uxtb	r4, r1
10004cdc:	2a0f      	cmp	r2, #15
10004cde:	eb04 2404 	add.w	r4, r4, r4, lsl #8
10004ce2:	eb04 4404 	add.w	r4, r4, r4, lsl #16
10004ce6:	d92f      	bls.n	10004d48 <memset+0x98>
10004ce8:	f1a2 0c10 	sub.w	ip, r2, #16
10004cec:	f103 0510 	add.w	r5, r3, #16
10004cf0:	f02c 0c0f 	bic.w	ip, ip, #15
10004cf4:	44ac      	add	ip, r5
10004cf6:	e9c3 4400 	strd	r4, r4, [r3]
10004cfa:	e9c3 4402 	strd	r4, r4, [r3, #8]
10004cfe:	3310      	adds	r3, #16
10004d00:	4563      	cmp	r3, ip
10004d02:	d1f8      	bne.n	10004cf6 <memset+0x46>
10004d04:	f012 0f0c 	tst.w	r2, #12
10004d08:	f002 0e0f 	and.w	lr, r2, #15
10004d0c:	d018      	beq.n	10004d40 <memset+0x90>
10004d0e:	f02e 0c03 	bic.w	ip, lr, #3
10004d12:	f1ae 0504 	sub.w	r5, lr, #4
10004d16:	461a      	mov	r2, r3
10004d18:	449c      	add	ip, r3
10004d1a:	f842 4b04 	str.w	r4, [r2], #4
10004d1e:	4562      	cmp	r2, ip
10004d20:	d1fb      	bne.n	10004d1a <memset+0x6a>
10004d22:	f025 0403 	bic.w	r4, r5, #3
10004d26:	3304      	adds	r3, #4
10004d28:	f00e 0203 	and.w	r2, lr, #3
10004d2c:	4423      	add	r3, r4
10004d2e:	2a00      	cmp	r2, #0
10004d30:	d0cc      	beq.n	10004ccc <memset+0x1c>
10004d32:	b2c9      	uxtb	r1, r1
10004d34:	441a      	add	r2, r3
10004d36:	f803 1b01 	strb.w	r1, [r3], #1
10004d3a:	4293      	cmp	r3, r2
10004d3c:	d1fb      	bne.n	10004d36 <memset+0x86>
10004d3e:	bd30      	pop	{r4, r5, pc}
10004d40:	4672      	mov	r2, lr
10004d42:	e7f4      	b.n	10004d2e <memset+0x7e>
10004d44:	4603      	mov	r3, r0
10004d46:	e7c6      	b.n	10004cd6 <memset+0x26>
10004d48:	4696      	mov	lr, r2
10004d4a:	e7e0      	b.n	10004d0e <memset+0x5e>

10004d4c <strlcpy>:
10004d4c:	460b      	mov	r3, r1
10004d4e:	b932      	cbnz	r2, 10004d5e <strlcpy+0x12>
10004d50:	f813 2b01 	ldrb.w	r2, [r3], #1
10004d54:	2a00      	cmp	r2, #0
10004d56:	d1fb      	bne.n	10004d50 <strlcpy+0x4>
10004d58:	1a58      	subs	r0, r3, r1
10004d5a:	3801      	subs	r0, #1
10004d5c:	4770      	bx	lr
10004d5e:	3a01      	subs	r2, #1
10004d60:	d018      	beq.n	10004d94 <strlcpy+0x48>
10004d62:	b410      	push	{r4}
10004d64:	e001      	b.n	10004d6a <strlcpy+0x1e>
10004d66:	3a01      	subs	r2, #1
10004d68:	d00a      	beq.n	10004d80 <strlcpy+0x34>
10004d6a:	f813 4b01 	ldrb.w	r4, [r3], #1
10004d6e:	f800 4b01 	strb.w	r4, [r0], #1
10004d72:	2c00      	cmp	r4, #0
10004d74:	d1f7      	bne.n	10004d66 <strlcpy+0x1a>
10004d76:	1a58      	subs	r0, r3, r1
10004d78:	f85d 4b04 	ldr.w	r4, [sp], #4
10004d7c:	3801      	subs	r0, #1
10004d7e:	4770      	bx	lr
10004d80:	7002      	strb	r2, [r0, #0]
10004d82:	f813 2b01 	ldrb.w	r2, [r3], #1
10004d86:	2a00      	cmp	r2, #0
10004d88:	d1fb      	bne.n	10004d82 <strlcpy+0x36>
10004d8a:	1a58      	subs	r0, r3, r1
10004d8c:	f85d 4b04 	ldr.w	r4, [sp], #4
10004d90:	3801      	subs	r0, #1
10004d92:	4770      	bx	lr
10004d94:	7002      	strb	r2, [r0, #0]
10004d96:	e7db      	b.n	10004d50 <strlcpy+0x4>

10004d98 <__libc_fini_array>:
10004d98:	b538      	push	{r3, r4, r5, lr}
10004d9a:	4d07      	ldr	r5, [pc, #28]	@ (10004db8 <__libc_fini_array+0x20>)
10004d9c:	4c07      	ldr	r4, [pc, #28]	@ (10004dbc <__libc_fini_array+0x24>)
10004d9e:	1b2c      	subs	r4, r5, r4
10004da0:	10a4      	asrs	r4, r4, #2
10004da2:	d005      	beq.n	10004db0 <__libc_fini_array+0x18>
10004da4:	3c01      	subs	r4, #1
10004da6:	f855 3d04 	ldr.w	r3, [r5, #-4]!
10004daa:	4798      	blx	r3
10004dac:	2c00      	cmp	r4, #0
10004dae:	d1f9      	bne.n	10004da4 <__libc_fini_array+0xc>
10004db0:	e8bd 4038 	ldmia.w	sp!, {r3, r4, r5, lr}
10004db4:	f000 b9d6 	b.w	10005164 <_fini>
10004db8:	10005204 	.word	0x10005204
10004dbc:	10005204 	.word	0x10005204

10004dc0 <__retarget_lock_acquire_recursive>:
10004dc0:	4770      	bx	lr
10004dc2:	bf00      	nop

10004dc4 <__retarget_lock_release_recursive>:
10004dc4:	4770      	bx	lr
10004dc6:	bf00      	nop

10004dc8 <strcmp>:
10004dc8:	ea80 0c01 	eor.w	ip, r0, r1
10004dcc:	f01c 0f03 	tst.w	ip, #3
10004dd0:	d137      	bne.n	10004e42 <strcmp+0x7a>
10004dd2:	f010 0c03 	ands.w	ip, r0, #3
10004dd6:	f020 0003 	bic.w	r0, r0, #3
10004dda:	f021 0103 	bic.w	r1, r1, #3
10004dde:	f850 2b04 	ldr.w	r2, [r0], #4
10004de2:	bf08      	it	eq
10004de4:	f851 3b04 	ldreq.w	r3, [r1], #4
10004de8:	d00e      	beq.n	10004e08 <strcmp+0x40>
10004dea:	f08c 0c03 	eor.w	ip, ip, #3
10004dee:	f06f 437f 	mvn.w	r3, #4278190080	@ 0xff000000
10004df2:	ea4f 0ccc 	mov.w	ip, ip, lsl #3
10004df6:	fa23 fc0c 	lsr.w	ip, r3, ip
10004dfa:	f851 3b04 	ldr.w	r3, [r1], #4
10004dfe:	ea42 020c 	orr.w	r2, r2, ip
10004e02:	ea43 030c 	orr.w	r3, r3, ip
10004e06:	bf00      	nop
10004e08:	f1a2 3c01 	sub.w	ip, r2, #16843009	@ 0x1010101
10004e0c:	429a      	cmp	r2, r3
10004e0e:	bf01      	itttt	eq
10004e10:	ea2c 0c02 	biceq.w	ip, ip, r2
10004e14:	f01c 3f80 	tsteq.w	ip, #2155905152	@ 0x80808080
10004e18:	f850 2b04 	ldreq.w	r2, [r0], #4
10004e1c:	f851 3b04 	ldreq.w	r3, [r1], #4
10004e20:	d0f2      	beq.n	10004e08 <strcmp+0x40>
10004e22:	ea4f 6002 	mov.w	r0, r2, lsl #24
10004e26:	ea4f 2212 	mov.w	r2, r2, lsr #8
10004e2a:	2801      	cmp	r0, #1
10004e2c:	bf28      	it	cs
10004e2e:	ebb0 6f03 	cmpcs.w	r0, r3, lsl #24
10004e32:	bf08      	it	eq
10004e34:	0a1b      	lsreq	r3, r3, #8
10004e36:	d0f4      	beq.n	10004e22 <strcmp+0x5a>
10004e38:	f003 03ff 	and.w	r3, r3, #255	@ 0xff
10004e3c:	0e00      	lsrs	r0, r0, #24
10004e3e:	1ac0      	subs	r0, r0, r3
10004e40:	4770      	bx	lr
10004e42:	f010 0f03 	tst.w	r0, #3
10004e46:	d00a      	beq.n	10004e5e <strcmp+0x96>
10004e48:	f810 2b01 	ldrb.w	r2, [r0], #1
10004e4c:	f811 3b01 	ldrb.w	r3, [r1], #1
10004e50:	2a01      	cmp	r2, #1
10004e52:	bf28      	it	cs
10004e54:	429a      	cmpcs	r2, r3
10004e56:	d0f4      	beq.n	10004e42 <strcmp+0x7a>
10004e58:	eba2 0003 	sub.w	r0, r2, r3
10004e5c:	4770      	bx	lr
10004e5e:	f84d 5d04 	str.w	r5, [sp, #-4]!
10004e62:	f850 2b04 	ldr.w	r2, [r0], #4
10004e66:	f001 0503 	and.w	r5, r1, #3
10004e6a:	f021 0103 	bic.w	r1, r1, #3
10004e6e:	f851 3b04 	ldr.w	r3, [r1], #4
10004e72:	2d02      	cmp	r5, #2
10004e74:	d026      	beq.n	10004ec4 <strcmp+0xfc>
10004e76:	d84d      	bhi.n	10004f14 <strcmp+0x14c>
10004e78:	f022 457f 	bic.w	r5, r2, #4278190080	@ 0xff000000
10004e7c:	ebb5 2f13 	cmp.w	r5, r3, lsr #8
10004e80:	f1a2 3c01 	sub.w	ip, r2, #16843009	@ 0x1010101
10004e84:	ea2c 0c02 	bic.w	ip, ip, r2
10004e88:	d10d      	bne.n	10004ea6 <strcmp+0xde>
10004e8a:	f01c 3c80 	ands.w	ip, ip, #2155905152	@ 0x80808080
10004e8e:	bf08      	it	eq
10004e90:	f851 3b04 	ldreq.w	r3, [r1], #4
10004e94:	d10a      	bne.n	10004eac <strcmp+0xe4>
10004e96:	ea85 0502 	eor.w	r5, r5, r2
10004e9a:	ebb5 6f03 	cmp.w	r5, r3, lsl #24
10004e9e:	d10c      	bne.n	10004eba <strcmp+0xf2>
10004ea0:	f850 2b04 	ldr.w	r2, [r0], #4
10004ea4:	e7e8      	b.n	10004e78 <strcmp+0xb0>
10004ea6:	ea4f 2313 	mov.w	r3, r3, lsr #8
10004eaa:	e05b      	b.n	10004f64 <strcmp+0x19c>
10004eac:	f03c 4c7f 	bics.w	ip, ip, #4278190080	@ 0xff000000
10004eb0:	d154      	bne.n	10004f5c <strcmp+0x194>
10004eb2:	780b      	ldrb	r3, [r1, #0]
10004eb4:	ea4f 6512 	mov.w	r5, r2, lsr #24
10004eb8:	e054      	b.n	10004f64 <strcmp+0x19c>
10004eba:	ea4f 6512 	mov.w	r5, r2, lsr #24
10004ebe:	f003 03ff 	and.w	r3, r3, #255	@ 0xff
10004ec2:	e04f      	b.n	10004f64 <strcmp+0x19c>
10004ec4:	ea4f 4502 	mov.w	r5, r2, lsl #16
10004ec8:	f1a2 3c01 	sub.w	ip, r2, #16843009	@ 0x1010101
10004ecc:	ea4f 4515 	mov.w	r5, r5, lsr #16
10004ed0:	ea2c 0c02 	bic.w	ip, ip, r2
10004ed4:	ebb5 4f13 	cmp.w	r5, r3, lsr #16
10004ed8:	d118      	bne.n	10004f0c <strcmp+0x144>
10004eda:	f01c 3c80 	ands.w	ip, ip, #2155905152	@ 0x80808080
10004ede:	bf08      	it	eq
10004ee0:	f851 3b04 	ldreq.w	r3, [r1], #4
10004ee4:	d107      	bne.n	10004ef6 <strcmp+0x12e>
10004ee6:	ea85 0502 	eor.w	r5, r5, r2
10004eea:	ebb5 4f03 	cmp.w	r5, r3, lsl #16
10004eee:	d109      	bne.n	10004f04 <strcmp+0x13c>
10004ef0:	f850 2b04 	ldr.w	r2, [r0], #4
10004ef4:	e7e6      	b.n	10004ec4 <strcmp+0xfc>
10004ef6:	ea5f 4c0c 	movs.w	ip, ip, lsl #16
10004efa:	d12f      	bne.n	10004f5c <strcmp+0x194>
10004efc:	880b      	ldrh	r3, [r1, #0]
10004efe:	ea4f 4512 	mov.w	r5, r2, lsr #16
10004f02:	e02f      	b.n	10004f64 <strcmp+0x19c>
10004f04:	ea4f 4303 	mov.w	r3, r3, lsl #16
10004f08:	ea4f 4512 	mov.w	r5, r2, lsr #16
10004f0c:	ea4f 4313 	mov.w	r3, r3, lsr #16
10004f10:	e028      	b.n	10004f64 <strcmp+0x19c>
10004f12:	bf00      	nop
10004f14:	f002 05ff 	and.w	r5, r2, #255	@ 0xff
10004f18:	ebb5 6f13 	cmp.w	r5, r3, lsr #24
10004f1c:	f1a2 3c01 	sub.w	ip, r2, #16843009	@ 0x1010101
10004f20:	ea2c 0c02 	bic.w	ip, ip, r2
10004f24:	d10d      	bne.n	10004f42 <strcmp+0x17a>
10004f26:	f01c 3c80 	ands.w	ip, ip, #2155905152	@ 0x80808080
10004f2a:	bf08      	it	eq
10004f2c:	f851 3b04 	ldreq.w	r3, [r1], #4
10004f30:	d10a      	bne.n	10004f48 <strcmp+0x180>
10004f32:	ea85 0502 	eor.w	r5, r5, r2
10004f36:	ebb5 2f03 	cmp.w	r5, r3, lsl #8
10004f3a:	d10a      	bne.n	10004f52 <strcmp+0x18a>
10004f3c:	f850 2b04 	ldr.w	r2, [r0], #4
10004f40:	e7e8      	b.n	10004f14 <strcmp+0x14c>
10004f42:	ea4f 6313 	mov.w	r3, r3, lsr #24
10004f46:	e00d      	b.n	10004f64 <strcmp+0x19c>
10004f48:	f012 0fff 	tst.w	r2, #255	@ 0xff
10004f4c:	d006      	beq.n	10004f5c <strcmp+0x194>
10004f4e:	f851 3b04 	ldr.w	r3, [r1], #4
10004f52:	ea4f 2512 	mov.w	r5, r2, lsr #8
10004f56:	f023 437f 	bic.w	r3, r3, #4278190080	@ 0xff000000
10004f5a:	e003      	b.n	10004f64 <strcmp+0x19c>
10004f5c:	f04f 0000 	mov.w	r0, #0
10004f60:	bc20      	pop	{r5}
10004f62:	4770      	bx	lr
10004f64:	f005 02ff 	and.w	r2, r5, #255	@ 0xff
10004f68:	f003 00ff 	and.w	r0, r3, #255	@ 0xff
10004f6c:	2801      	cmp	r0, #1
10004f6e:	bf28      	it	cs
10004f70:	4290      	cmpcs	r0, r2
10004f72:	bf04      	itt	eq
10004f74:	0a2d      	lsreq	r5, r5, #8
10004f76:	0a1b      	lsreq	r3, r3, #8
10004f78:	d0f4      	beq.n	10004f64 <strcmp+0x19c>
10004f7a:	eba2 0000 	sub.w	r0, r2, r0
10004f7e:	bc20      	pop	{r5}
10004f80:	4770      	bx	lr
10004f82:	bf00      	nop

10004f84 <memcpy>:
10004f84:	4684      	mov	ip, r0
10004f86:	ea41 0300 	orr.w	r3, r1, r0
10004f8a:	f013 0303 	ands.w	r3, r3, #3
10004f8e:	d149      	bne.n	10005024 <memcpy+0xa0>
10004f90:	3a40      	subs	r2, #64	@ 0x40
10004f92:	d323      	bcc.n	10004fdc <memcpy+0x58>
10004f94:	680b      	ldr	r3, [r1, #0]
10004f96:	6003      	str	r3, [r0, #0]
10004f98:	684b      	ldr	r3, [r1, #4]
10004f9a:	6043      	str	r3, [r0, #4]
10004f9c:	688b      	ldr	r3, [r1, #8]
10004f9e:	6083      	str	r3, [r0, #8]
10004fa0:	68cb      	ldr	r3, [r1, #12]
10004fa2:	60c3      	str	r3, [r0, #12]
10004fa4:	690b      	ldr	r3, [r1, #16]
10004fa6:	6103      	str	r3, [r0, #16]
10004fa8:	694b      	ldr	r3, [r1, #20]
10004faa:	6143      	str	r3, [r0, #20]
10004fac:	698b      	ldr	r3, [r1, #24]
10004fae:	6183      	str	r3, [r0, #24]
10004fb0:	69cb      	ldr	r3, [r1, #28]
10004fb2:	61c3      	str	r3, [r0, #28]
10004fb4:	6a0b      	ldr	r3, [r1, #32]
10004fb6:	6203      	str	r3, [r0, #32]
10004fb8:	6a4b      	ldr	r3, [r1, #36]	@ 0x24
10004fba:	6243      	str	r3, [r0, #36]	@ 0x24
10004fbc:	6a8b      	ldr	r3, [r1, #40]	@ 0x28
10004fbe:	6283      	str	r3, [r0, #40]	@ 0x28
10004fc0:	6acb      	ldr	r3, [r1, #44]	@ 0x2c
10004fc2:	62c3      	str	r3, [r0, #44]	@ 0x2c
10004fc4:	6b0b      	ldr	r3, [r1, #48]	@ 0x30
10004fc6:	6303      	str	r3, [r0, #48]	@ 0x30
10004fc8:	6b4b      	ldr	r3, [r1, #52]	@ 0x34
10004fca:	6343      	str	r3, [r0, #52]	@ 0x34
10004fcc:	6b8b      	ldr	r3, [r1, #56]	@ 0x38
10004fce:	6383      	str	r3, [r0, #56]	@ 0x38
10004fd0:	6bcb      	ldr	r3, [r1, #60]	@ 0x3c
10004fd2:	63c3      	str	r3, [r0, #60]	@ 0x3c
10004fd4:	3040      	adds	r0, #64	@ 0x40
10004fd6:	3140      	adds	r1, #64	@ 0x40
10004fd8:	3a40      	subs	r2, #64	@ 0x40
10004fda:	d2db      	bcs.n	10004f94 <memcpy+0x10>
10004fdc:	3230      	adds	r2, #48	@ 0x30
10004fde:	d30b      	bcc.n	10004ff8 <memcpy+0x74>
10004fe0:	680b      	ldr	r3, [r1, #0]
10004fe2:	6003      	str	r3, [r0, #0]
10004fe4:	684b      	ldr	r3, [r1, #4]
10004fe6:	6043      	str	r3, [r0, #4]
10004fe8:	688b      	ldr	r3, [r1, #8]
10004fea:	6083      	str	r3, [r0, #8]
10004fec:	68cb      	ldr	r3, [r1, #12]
10004fee:	60c3      	str	r3, [r0, #12]
10004ff0:	3010      	adds	r0, #16
10004ff2:	3110      	adds	r1, #16
10004ff4:	3a10      	subs	r2, #16
10004ff6:	d2f3      	bcs.n	10004fe0 <memcpy+0x5c>
10004ff8:	320c      	adds	r2, #12
10004ffa:	d305      	bcc.n	10005008 <memcpy+0x84>
10004ffc:	f851 3b04 	ldr.w	r3, [r1], #4
10005000:	f840 3b04 	str.w	r3, [r0], #4
10005004:	3a04      	subs	r2, #4
10005006:	d2f9      	bcs.n	10004ffc <memcpy+0x78>
10005008:	3204      	adds	r2, #4
1000500a:	d008      	beq.n	1000501e <memcpy+0x9a>
1000500c:	07d2      	lsls	r2, r2, #31
1000500e:	bf1c      	itt	ne
10005010:	f811 3b01 	ldrbne.w	r3, [r1], #1
10005014:	f800 3b01 	strbne.w	r3, [r0], #1
10005018:	d301      	bcc.n	1000501e <memcpy+0x9a>
1000501a:	880b      	ldrh	r3, [r1, #0]
1000501c:	8003      	strh	r3, [r0, #0]
1000501e:	4660      	mov	r0, ip
10005020:	4770      	bx	lr
10005022:	bf00      	nop
10005024:	2a08      	cmp	r2, #8
10005026:	d313      	bcc.n	10005050 <memcpy+0xcc>
10005028:	078b      	lsls	r3, r1, #30
1000502a:	d0b1      	beq.n	10004f90 <memcpy+0xc>
1000502c:	f010 0303 	ands.w	r3, r0, #3
10005030:	d0ae      	beq.n	10004f90 <memcpy+0xc>
10005032:	f1c3 0304 	rsb	r3, r3, #4
10005036:	1ad2      	subs	r2, r2, r3
10005038:	07db      	lsls	r3, r3, #31
1000503a:	bf1c      	itt	ne
1000503c:	f811 3b01 	ldrbne.w	r3, [r1], #1
10005040:	f800 3b01 	strbne.w	r3, [r0], #1
10005044:	d3a4      	bcc.n	10004f90 <memcpy+0xc>
10005046:	f831 3b02 	ldrh.w	r3, [r1], #2
1000504a:	f820 3b02 	strh.w	r3, [r0], #2
1000504e:	e79f      	b.n	10004f90 <memcpy+0xc>
10005050:	3a04      	subs	r2, #4
10005052:	d3d9      	bcc.n	10005008 <memcpy+0x84>
10005054:	3a01      	subs	r2, #1
10005056:	f811 3b01 	ldrb.w	r3, [r1], #1
1000505a:	f800 3b01 	strb.w	r3, [r0], #1
1000505e:	d2f9      	bcs.n	10005054 <memcpy+0xd0>
10005060:	780b      	ldrb	r3, [r1, #0]
10005062:	7003      	strb	r3, [r0, #0]
10005064:	784b      	ldrb	r3, [r1, #1]
10005066:	7043      	strb	r3, [r0, #1]
10005068:	788b      	ldrb	r3, [r1, #2]
1000506a:	7083      	strb	r3, [r0, #2]
1000506c:	4660      	mov	r0, ip
1000506e:	4770      	bx	lr

10005070 <strlen>:
10005070:	f020 0103 	bic.w	r1, r0, #3
10005074:	f010 0003 	ands.w	r0, r0, #3
10005078:	f1c0 0000 	rsb	r0, r0, #0
1000507c:	f851 3b04 	ldr.w	r3, [r1], #4
10005080:	f100 0c04 	add.w	ip, r0, #4
10005084:	ea4f 0ccc 	mov.w	ip, ip, lsl #3
10005088:	f06f 0200 	mvn.w	r2, #0
1000508c:	bf1c      	itt	ne
1000508e:	fa22 f20c 	lsrne.w	r2, r2, ip
10005092:	4313      	orrne	r3, r2
10005094:	f04f 0c01 	mov.w	ip, #1
10005098:	ea4c 2c0c 	orr.w	ip, ip, ip, lsl #8
1000509c:	ea4c 4c0c 	orr.w	ip, ip, ip, lsl #16
100050a0:	eba3 020c 	sub.w	r2, r3, ip
100050a4:	ea22 0203 	bic.w	r2, r2, r3
100050a8:	ea12 12cc 	ands.w	r2, r2, ip, lsl #7
100050ac:	bf04      	itt	eq
100050ae:	f851 3b04 	ldreq.w	r3, [r1], #4
100050b2:	3004      	addeq	r0, #4
100050b4:	d0f4      	beq.n	100050a0 <strlen+0x30>
100050b6:	f1c2 0100 	rsb	r1, r2, #0
100050ba:	ea02 0201 	and.w	r2, r2, r1
100050be:	fab2 f282 	clz	r2, r2
100050c2:	f1c2 021f 	rsb	r2, r2, #31
100050c6:	eb00 00d2 	add.w	r0, r0, r2, lsr #3
100050ca:	4770      	bx	lr

100050cc <__register_exitproc>:
100050cc:	e92d 43f8 	stmdb	sp!, {r3, r4, r5, r6, r7, r8, r9, lr}
100050d0:	4d1c      	ldr	r5, [pc, #112]	@ (10005144 <__register_exitproc+0x78>)
100050d2:	4606      	mov	r6, r0
100050d4:	4698      	mov	r8, r3
100050d6:	460f      	mov	r7, r1
100050d8:	6828      	ldr	r0, [r5, #0]
100050da:	4691      	mov	r9, r2
100050dc:	f7ff fe70 	bl	10004dc0 <__retarget_lock_acquire_recursive>
100050e0:	4b19      	ldr	r3, [pc, #100]	@ (10005148 <__register_exitproc+0x7c>)
100050e2:	681c      	ldr	r4, [r3, #0]
100050e4:	b32c      	cbz	r4, 10005132 <__register_exitproc+0x66>
100050e6:	6828      	ldr	r0, [r5, #0]
100050e8:	6865      	ldr	r5, [r4, #4]
100050ea:	2d1f      	cmp	r5, #31
100050ec:	dc24      	bgt.n	10005138 <__register_exitproc+0x6c>
100050ee:	b94e      	cbnz	r6, 10005104 <__register_exitproc+0x38>
100050f0:	1c6b      	adds	r3, r5, #1
100050f2:	3502      	adds	r5, #2
100050f4:	6063      	str	r3, [r4, #4]
100050f6:	f844 7025 	str.w	r7, [r4, r5, lsl #2]
100050fa:	f7ff fe63 	bl	10004dc4 <__retarget_lock_release_recursive>
100050fe:	2000      	movs	r0, #0
10005100:	e8bd 83f8 	ldmia.w	sp!, {r3, r4, r5, r6, r7, r8, r9, pc}
10005104:	eb04 0185 	add.w	r1, r4, r5, lsl #2
10005108:	2301      	movs	r3, #1
1000510a:	2e02      	cmp	r6, #2
1000510c:	f8c1 9088 	str.w	r9, [r1, #136]	@ 0x88
10005110:	fa03 f305 	lsl.w	r3, r3, r5
10005114:	f8d4 2188 	ldr.w	r2, [r4, #392]	@ 0x188
10005118:	ea42 0203 	orr.w	r2, r2, r3
1000511c:	f8c4 2188 	str.w	r2, [r4, #392]	@ 0x188
10005120:	f8c1 8108 	str.w	r8, [r1, #264]	@ 0x108
10005124:	d1e4      	bne.n	100050f0 <__register_exitproc+0x24>
10005126:	f8d4 218c 	ldr.w	r2, [r4, #396]	@ 0x18c
1000512a:	431a      	orrs	r2, r3
1000512c:	f8c4 218c 	str.w	r2, [r4, #396]	@ 0x18c
10005130:	e7de      	b.n	100050f0 <__register_exitproc+0x24>
10005132:	4c06      	ldr	r4, [pc, #24]	@ (1000514c <__register_exitproc+0x80>)
10005134:	601c      	str	r4, [r3, #0]
10005136:	e7d6      	b.n	100050e6 <__register_exitproc+0x1a>
10005138:	f7ff fe44 	bl	10004dc4 <__retarget_lock_release_recursive>
1000513c:	f04f 30ff 	mov.w	r0, #4294967295	@ 0xffffffff
10005140:	e7de      	b.n	10005100 <__register_exitproc+0x34>
10005142:	bf00      	nop
10005144:	200010cc 	.word	0x200010cc
10005148:	20001678 	.word	0x20001678
1000514c:	2000167c 	.word	0x2000167c

10005150 <register_fini>:
10005150:	4b02      	ldr	r3, [pc, #8]	@ (1000515c <register_fini+0xc>)
10005152:	b113      	cbz	r3, 1000515a <register_fini+0xa>
10005154:	4802      	ldr	r0, [pc, #8]	@ (10005160 <register_fini+0x10>)
10005156:	f7ff bda5 	b.w	10004ca4 <atexit>
1000515a:	4770      	bx	lr
1000515c:	00000000 	.word	0x00000000
10005160:	10004d99 	.word	0x10004d99

10005164 <_fini>:
10005164:	b5f8      	push	{r3, r4, r5, r6, r7, lr}
10005166:	bf00      	nop

10005168 <__flash_range_program_veneer>:
10005168:	f85f f000 	ldr.w	pc, [pc]	@ 1000516c <__flash_range_program_veneer+0x4>
1000516c:	20000405 	.word	0x20000405

10005170 <__e15_is_critical_frame_period_veneer>:
10005170:	f85f f000 	ldr.w	pc, [pc]	@ 10005174 <__e15_is_critical_frame_period_veneer+0x4>
10005174:	20000ccd 	.word	0x20000ccd

10005178 <__mutex_enter_timeout_ms_veneer>:
10005178:	f85f f000 	ldr.w	pc, [pc]	@ 1000517c <__mutex_enter_timeout_ms_veneer+0x4>
1000517c:	200001e5 	.word	0x200001e5

10005180 <__hw_endpoint_start_next_buffer_veneer>:
10005180:	f85f f000 	ldr.w	pc, [pc]	@ 10005184 <__hw_endpoint_start_next_buffer_veneer+0x4>
10005184:	20000d45 	.word	0x20000d45

10005188 <__mutex_exit_veneer>:
10005188:	f85f f000 	ldr.w	pc, [pc]	@ 1000518c <__mutex_exit_veneer+0x4>
1000518c:	2000021d 	.word	0x2000021d

10005190 <__flash_range_erase_veneer>:
10005190:	f85f f000 	ldr.w	pc, [pc]	@ 10005194 <__flash_range_erase_veneer+0x4>
10005194:	20000359 	.word	0x20000359

10005198 <___hw_endpoint_buffer_control_update32_veneer>:
10005198:	f85f f000 	ldr.w	pc, [pc]	@ 1000519c <___hw_endpoint_buffer_control_update32_veneer+0x4>
1000519c:	20000d01 	.word	0x20000d01

100051a0 <__mutex_try_enter_block_until_veneer>:
100051a0:	f85f f000 	ldr.w	pc, [pc]	@ 100051a4 <__mutex_try_enter_block_until_veneer+0x4>
100051a4:	2000017d 	.word	0x2000017d

100051a8 <__reset_non_control_endpoints_veneer>:
100051a8:	f85f f000 	ldr.w	pc, [pc]	@ 100051ac <__reset_non_control_endpoints_veneer+0x4>
100051ac:	200004e1 	.word	0x200004e1

100051b0 <__e15_is_bulkin_ep_veneer>:
100051b0:	f85f f000 	ldr.w	pc, [pc]	@ 100051b4 <__e15_is_bulkin_ep_veneer+0x4>
100051b4:	20000ca5 	.word	0x20000ca5

100051b8 <__pre_init_runtime_init_bootrom_reset>:
100051b8:	10002cc5                                .,..

100051bc <__pre_init_runtime_init_early_resets>:
100051bc:	10002c39                                9,..

100051c0 <__pre_init_runtime_init_usb_power_down>:
100051c0:	10002c6d                                m,..

100051c4 <__pre_init_runtime_init_clocks>:
100051c4:	10002d59                                Y-..

100051c8 <__pre_init_runtime_init_post_clock_resets>:
100051c8:	10002ca5                                .,..

100051cc <__pre_init_runtime_init_boot_locks_reset>:
100051cc:	10002bbd                                .+..

100051d0 <__pre_init_runtime_init_spin_locks_reset>:
100051d0:	10002ced                                .,..

100051d4 <__pre_init_runtime_init_bootrom_locking_enable>:
100051d4:	10002ba9                                .+..

100051d8 <__pre_init_runtime_init_mutex>:
100051d8:	10001f49                                I...

100051dc <__pre_init_runtime_init_install_ram_vector_table>:
100051dc:	10002cf1                                .,..

100051e0 <__pre_init_runtime_init_default_alarm_pool>:
100051e0:	100022f9                                ."..

100051e4 <__pre_init_first_per_core_initializer>:
100051e4:	10002c09                                .,..

100051e8 <__pre_init_runtime_init_per_core_bootrom_reset>:
100051e8:	10002cd9                                .,..

100051ec <__pre_init_runtime_init_per_core_enable_coprocessors>:
100051ec:	10002c89                                .,..

100051f0 <__pre_init_spinlock_set_extexclall>:
100051f0:	100019a1                                ....

100051f4 <__pre_init_runtime_init_per_core_irq_priorities>:
100051f4:	100019c9                                ....

100051f8 <__init_array_start>:
100051f8:	10005151 	.word	0x10005151
100051fc:	10004c75 	.word	0x10004c75

10005200 <__frame_dummy_init_array_entry>:
10005200:	100001e9                                ....

Disassembly of section .data:

20000110 <mutex_enter_block_until>:
20000110:	f04f 4150 	mov.w	r1, #3489660928	@ 0xd0000000
20000114:	e92d 41f0 	stmdb	sp!, {r4, r5, r6, r7, r8, lr}
20000118:	2700      	movs	r7, #0
2000011a:	4604      	mov	r4, r0
2000011c:	4616      	mov	r6, r2
2000011e:	461d      	mov	r5, r3
20000120:	f8d1 8000 	ldr.w	r8, [r1]
20000124:	e008      	b.n	20000138 <mutex_enter_block_until+0x28>
20000126:	e8c1 7f8f 	stlb	r7, [r1]
2000012a:	f38c 8810 	msr	PRIMASK, ip
2000012e:	4630      	mov	r0, r6
20000130:	4629      	mov	r1, r5
20000132:	f000 ff65 	bl	20001000 <__best_effort_wfe_or_timeout_veneer>
20000136:	b9e8      	cbnz	r0, 20000174 <mutex_enter_block_until+0x64>
20000138:	6821      	ldr	r1, [r4, #0]
2000013a:	f3ef 8c10 	mrs	ip, PRIMASK
2000013e:	b672      	cpsid	i
20000140:	e8d1 2fcf 	ldaexb	r2, [r1]
20000144:	2301      	movs	r3, #1
20000146:	2a00      	cmp	r2, #0
20000148:	d1fa      	bne.n	20000140 <mutex_enter_block_until+0x30>
2000014a:	e8c1 3f42 	strexb	r2, r3, [r1]
2000014e:	2a00      	cmp	r2, #0
20000150:	d1f6      	bne.n	20000140 <mutex_enter_block_until+0x30>
20000152:	f3bf 8f5f 	dmb	sy
20000156:	f994 3004 	ldrsb.w	r3, [r4, #4]
2000015a:	6821      	ldr	r1, [r4, #0]
2000015c:	2b00      	cmp	r3, #0
2000015e:	dae2      	bge.n	20000126 <mutex_enter_block_until+0x16>
20000160:	2300      	movs	r3, #0
20000162:	f884 8004 	strb.w	r8, [r4, #4]
20000166:	e8c1 3f8f 	stlb	r3, [r1]
2000016a:	f38c 8810 	msr	PRIMASK, ip
2000016e:	2001      	movs	r0, #1
20000170:	e8bd 81f0 	ldmia.w	sp!, {r4, r5, r6, r7, r8, pc}
20000174:	2000      	movs	r0, #0
20000176:	e8bd 81f0 	ldmia.w	sp!, {r4, r5, r6, r7, r8, pc}
2000017a:	bf00      	nop

2000017c <mutex_try_enter_block_until>:
2000017c:	b530      	push	{r4, r5, lr}
2000017e:	6804      	ldr	r4, [r0, #0]
20000180:	f3ef 8c10 	mrs	ip, PRIMASK
20000184:	b672      	cpsid	i
20000186:	e8d4 efcf 	ldaexb	lr, [r4]
2000018a:	2501      	movs	r5, #1
2000018c:	f1be 0f00 	cmp.w	lr, #0
20000190:	d1f9      	bne.n	20000186 <mutex_try_enter_block_until+0xa>
20000192:	e8c4 5f4e 	strexb	lr, r5, [r4]
20000196:	f1be 0f00 	cmp.w	lr, #0
2000019a:	d1f4      	bne.n	20000186 <mutex_try_enter_block_until+0xa>
2000019c:	f3bf 8f5f 	dmb	sy
200001a0:	f990 4004 	ldrsb.w	r4, [r0, #4]
200001a4:	6805      	ldr	r5, [r0, #0]
200001a6:	2c00      	cmp	r4, #0
200001a8:	db10      	blt.n	200001cc <mutex_try_enter_block_until+0x50>
200001aa:	2100      	movs	r1, #0
200001ac:	e8c5 1f8f 	stlb	r1, [r5]
200001b0:	f38c 8810 	msr	PRIMASK, ip
200001b4:	f04f 4550 	mov.w	r5, #3489660928	@ 0xd0000000
200001b8:	f995 5000 	ldrsb.w	r5, [r5]
200001bc:	42a5      	cmp	r5, r4
200001be:	d101      	bne.n	200001c4 <mutex_try_enter_block_until+0x48>
200001c0:	4608      	mov	r0, r1
200001c2:	bd30      	pop	{r4, r5, pc}
200001c4:	e8bd 4030 	ldmia.w	sp!, {r4, r5, lr}
200001c8:	f7ff bfa2 	b.w	20000110 <mutex_enter_block_until>
200001cc:	f04f 4250 	mov.w	r2, #3489660928	@ 0xd0000000
200001d0:	6812      	ldr	r2, [r2, #0]
200001d2:	2300      	movs	r3, #0
200001d4:	7102      	strb	r2, [r0, #4]
200001d6:	e8c5 3f8f 	stlb	r3, [r5]
200001da:	f38c 8810 	msr	PRIMASK, ip
200001de:	2001      	movs	r0, #1
200001e0:	bd30      	pop	{r4, r5, pc}
200001e2:	bf00      	nop

200001e4 <mutex_enter_timeout_ms>:
200001e4:	b570      	push	{r4, r5, r6, lr}
200001e6:	4605      	mov	r5, r0
200001e8:	460c      	mov	r4, r1
200001ea:	f000 ff15 	bl	20001018 <__time_us_64_veneer>
200001ee:	4602      	mov	r2, r0
200001f0:	460b      	mov	r3, r1
200001f2:	f44f 707a 	mov.w	r0, #1000	@ 0x3e8
200001f6:	f04f 3eff 	mov.w	lr, #4294967295	@ 0xffffffff
200001fa:	f06f 4c00 	mvn.w	ip, #2147483648	@ 0x80000000
200001fe:	fbe4 2300 	umlal	r2, r3, r4, r0
20000202:	4596      	cmp	lr, r2
20000204:	eb7c 0103 	sbcs.w	r1, ip, r3
20000208:	bf38      	it	cc
2000020a:	4672      	movcc	r2, lr
2000020c:	4628      	mov	r0, r5
2000020e:	e8bd 4070 	ldmia.w	sp!, {r4, r5, r6, lr}
20000212:	bf38      	it	cc
20000214:	4663      	movcc	r3, ip
20000216:	f7ff bf7b 	b.w	20000110 <mutex_enter_block_until>
2000021a:	bf00      	nop

2000021c <mutex_exit>:
2000021c:	6803      	ldr	r3, [r0, #0]
2000021e:	f3ef 8210 	mrs	r2, PRIMASK
20000222:	b672      	cpsid	i
20000224:	e8d3 cfcf 	ldaexb	ip, [r3]
20000228:	2101      	movs	r1, #1
2000022a:	f1bc 0f00 	cmp.w	ip, #0
2000022e:	d1f9      	bne.n	20000224 <mutex_exit+0x8>
20000230:	e8c3 1f4c 	strexb	ip, r1, [r3]
20000234:	f1bc 0f00 	cmp.w	ip, #0
20000238:	d1f4      	bne.n	20000224 <mutex_exit+0x8>
2000023a:	f3bf 8f5f 	dmb	sy
2000023e:	f04f 0cff 	mov.w	ip, #255	@ 0xff
20000242:	2300      	movs	r3, #0
20000244:	6801      	ldr	r1, [r0, #0]
20000246:	f880 c004 	strb.w	ip, [r0, #4]
2000024a:	e8c1 3f8f 	stlb	r3, [r1]
2000024e:	f382 8810 	msr	PRIMASK, r2
20000252:	bf40      	sev
20000254:	4770      	bx	lr
20000256:	bf00      	nop

20000258 <flash_init_boot2_copyout>:
20000258:	b410      	push	{r4}
2000025a:	4c0a      	ldr	r4, [pc, #40]	@ (20000284 <flash_init_boot2_copyout+0x2c>)
2000025c:	7823      	ldrb	r3, [r4, #0]
2000025e:	b96b      	cbnz	r3, 2000027c <flash_init_boot2_copyout+0x24>
20000260:	4b09      	ldr	r3, [pc, #36]	@ (20000288 <flash_init_boot2_copyout+0x30>)
20000262:	f1c3 4180 	rsb	r1, r3, #1073741824	@ 0x40000000
20000266:	f503 7080 	add.w	r0, r3, #256	@ 0x100
2000026a:	f501 2160 	add.w	r1, r1, #917504	@ 0xe0000
2000026e:	58ca      	ldr	r2, [r1, r3]
20000270:	f843 2f04 	str.w	r2, [r3, #4]!
20000274:	4283      	cmp	r3, r0
20000276:	d1fa      	bne.n	2000026e <flash_init_boot2_copyout+0x16>
20000278:	2301      	movs	r3, #1
2000027a:	7023      	strb	r3, [r4, #0]
2000027c:	f85d 4b04 	ldr.w	r4, [sp], #4
20000280:	4770      	bx	lr
20000282:	bf00      	nop
20000284:	200025df 	.word	0x200025df
20000288:	20001c9c 	.word	0x20001c9c

2000028c <flash_enable_xip_via_boot2>:
2000028c:	4b00      	ldr	r3, [pc, #0]	@ (20000290 <flash_enable_xip_via_boot2+0x4>)
2000028e:	4718      	bx	r3
20000290:	20001ca1 	.word	0x20001ca1

20000294 <flash_rp2350_save_qmi_cs1>:
20000294:	4b03      	ldr	r3, [pc, #12]	@ (200002a4 <flash_rp2350_save_qmi_cs1+0x10>)
20000296:	6a1a      	ldr	r2, [r3, #32]
20000298:	6002      	str	r2, [r0, #0]
2000029a:	6a9a      	ldr	r2, [r3, #40]	@ 0x28
2000029c:	6042      	str	r2, [r0, #4]
2000029e:	6a5b      	ldr	r3, [r3, #36]	@ 0x24
200002a0:	6083      	str	r3, [r0, #8]
200002a2:	4770      	bx	lr
200002a4:	400d0000 	.word	0x400d0000

200002a8 <flash_devinfo_ptr>:
200002a8:	b508      	push	{r3, lr}
200002aa:	2300      	movs	r3, #0
200002ac:	2140      	movs	r1, #64	@ 0x40
200002ae:	8adb      	ldrh	r3, [r3, #22]
200002b0:	f244 4046 	movw	r0, #17478	@ 0x4446
200002b4:	4798      	blx	r3
200002b6:	6800      	ldr	r0, [r0, #0]
200002b8:	bd08      	pop	{r3, pc}
200002ba:	bf00      	nop

200002bc <flash_save_hardware_state>:
200002bc:	b510      	push	{r4, lr}
200002be:	4604      	mov	r4, r0
200002c0:	f000 f906 	bl	200004d0 <xip_cache_clean_all>
200002c4:	4b08      	ldr	r3, [pc, #32]	@ (200002e8 <flash_save_hardware_state+0x2c>)
200002c6:	4620      	mov	r0, r4
200002c8:	685a      	ldr	r2, [r3, #4]
200002ca:	60e2      	str	r2, [r4, #12]
200002cc:	689a      	ldr	r2, [r3, #8]
200002ce:	6122      	str	r2, [r4, #16]
200002d0:	68da      	ldr	r2, [r3, #12]
200002d2:	6162      	str	r2, [r4, #20]
200002d4:	691a      	ldr	r2, [r3, #16]
200002d6:	61a2      	str	r2, [r4, #24]
200002d8:	695a      	ldr	r2, [r3, #20]
200002da:	61e2      	str	r2, [r4, #28]
200002dc:	699b      	ldr	r3, [r3, #24]
200002de:	6223      	str	r3, [r4, #32]
200002e0:	e8bd 4010 	ldmia.w	sp!, {r4, lr}
200002e4:	f7ff bfd6 	b.w	20000294 <flash_rp2350_save_qmi_cs1>
200002e8:	40040000 	.word	0x40040000

200002ec <flash_devinfo_get_cs_size>:
200002ec:	b510      	push	{r4, lr}
200002ee:	4604      	mov	r4, r0
200002f0:	f7ff ffda 	bl	200002a8 <flash_devinfo_ptr>
200002f4:	b11c      	cbz	r4, 200002fe <flash_devinfo_get_cs_size+0x12>
200002f6:	8800      	ldrh	r0, [r0, #0]
200002f8:	f3c0 3003 	ubfx	r0, r0, #12, #4
200002fc:	bd10      	pop	{r4, pc}
200002fe:	200a      	movs	r0, #10
20000300:	bd10      	pop	{r4, pc}
20000302:	bf00      	nop

20000304 <flash_rp2350_restore_qmi_cs1>:
20000304:	b510      	push	{r4, lr}
20000306:	4604      	mov	r4, r0
20000308:	2001      	movs	r0, #1
2000030a:	f7ff ffef 	bl	200002ec <flash_devinfo_get_cs_size>
2000030e:	b938      	cbnz	r0, 20000320 <flash_rp2350_restore_qmi_cs1+0x1c>
20000310:	6822      	ldr	r2, [r4, #0]
20000312:	4b07      	ldr	r3, [pc, #28]	@ (20000330 <flash_rp2350_restore_qmi_cs1+0x2c>)
20000314:	621a      	str	r2, [r3, #32]
20000316:	6862      	ldr	r2, [r4, #4]
20000318:	629a      	str	r2, [r3, #40]	@ 0x28
2000031a:	68a2      	ldr	r2, [r4, #8]
2000031c:	625a      	str	r2, [r3, #36]	@ 0x24
2000031e:	bd10      	pop	{r4, pc}
20000320:	f44f 5180 	mov.w	r1, #4096	@ 0x1000
20000324:	f24a 0202 	movw	r2, #40962	@ 0xa002
20000328:	4b01      	ldr	r3, [pc, #4]	@ (20000330 <flash_rp2350_restore_qmi_cs1+0x2c>)
2000032a:	62d9      	str	r1, [r3, #44]	@ 0x2c
2000032c:	631a      	str	r2, [r3, #48]	@ 0x30
2000032e:	bd10      	pop	{r4, pc}
20000330:	400d0000 	.word	0x400d0000

20000334 <flash_restore_hardware_state>:
20000334:	68c1      	ldr	r1, [r0, #12]
20000336:	4a07      	ldr	r2, [pc, #28]	@ (20000354 <flash_restore_hardware_state+0x20>)
20000338:	6051      	str	r1, [r2, #4]
2000033a:	6901      	ldr	r1, [r0, #16]
2000033c:	6091      	str	r1, [r2, #8]
2000033e:	6941      	ldr	r1, [r0, #20]
20000340:	60d1      	str	r1, [r2, #12]
20000342:	6981      	ldr	r1, [r0, #24]
20000344:	6111      	str	r1, [r2, #16]
20000346:	69c1      	ldr	r1, [r0, #28]
20000348:	6151      	str	r1, [r2, #20]
2000034a:	6a03      	ldr	r3, [r0, #32]
2000034c:	6193      	str	r3, [r2, #24]
2000034e:	f7ff bfd9 	b.w	20000304 <flash_rp2350_restore_qmi_cs1>
20000352:	bf00      	nop
20000354:	40040000 	.word	0x40040000

20000358 <flash_range_erase>:
20000358:	e92d 43f0 	stmdb	sp!, {r4, r5, r6, r7, r8, r9, lr}
2000035c:	1843      	adds	r3, r0, r1
2000035e:	f5b3 0f80 	cmp.w	r3, #4194304	@ 0x400000
20000362:	4604      	mov	r4, r0
20000364:	460d      	mov	r5, r1
20000366:	b08b      	sub	sp, #44	@ 0x2c
20000368:	d849      	bhi.n	200003fe <flash_range_erase+0xa6>
2000036a:	2300      	movs	r3, #0
2000036c:	8adb      	ldrh	r3, [r3, #22]
2000036e:	2200      	movs	r2, #0
20000370:	e842 f200 	tt	r2, r2
20000374:	0256      	lsls	r6, r2, #9
20000376:	bf54      	ite	pl
20000378:	2110      	movpl	r1, #16
2000037a:	2104      	movmi	r1, #4
2000037c:	f244 6049 	movw	r0, #17993	@ 0x4649
20000380:	4798      	blx	r3
20000382:	2300      	movs	r3, #0
20000384:	4681      	mov	r9, r0
20000386:	8adb      	ldrh	r3, [r3, #22]
20000388:	2200      	movs	r2, #0
2000038a:	e842 f200 	tt	r2, r2
2000038e:	0250      	lsls	r0, r2, #9
20000390:	bf54      	ite	pl
20000392:	2110      	movpl	r1, #16
20000394:	2104      	movmi	r1, #4
20000396:	f645 0045 	movw	r0, #22597	@ 0x5845
2000039a:	4798      	blx	r3
2000039c:	2300      	movs	r3, #0
2000039e:	4680      	mov	r8, r0
200003a0:	8adb      	ldrh	r3, [r3, #22]
200003a2:	2200      	movs	r2, #0
200003a4:	e842 f200 	tt	r2, r2
200003a8:	0251      	lsls	r1, r2, #9
200003aa:	bf54      	ite	pl
200003ac:	2110      	movpl	r1, #16
200003ae:	2104      	movmi	r1, #4
200003b0:	f244 5052 	movw	r0, #17746	@ 0x4552
200003b4:	4798      	blx	r3
200003b6:	2300      	movs	r3, #0
200003b8:	4607      	mov	r7, r0
200003ba:	8adb      	ldrh	r3, [r3, #22]
200003bc:	2200      	movs	r2, #0
200003be:	e842 f200 	tt	r2, r2
200003c2:	0252      	lsls	r2, r2, #9
200003c4:	bf54      	ite	pl
200003c6:	2110      	movpl	r1, #16
200003c8:	2104      	movmi	r1, #4
200003ca:	f244 3046 	movw	r0, #17222	@ 0x4346
200003ce:	4798      	blx	r3
200003d0:	4606      	mov	r6, r0
200003d2:	f7ff ff41 	bl	20000258 <flash_init_boot2_copyout>
200003d6:	a801      	add	r0, sp, #4
200003d8:	f7ff ff70 	bl	200002bc <flash_save_hardware_state>
200003dc:	47c8      	blx	r9
200003de:	47c0      	blx	r8
200003e0:	23d8      	movs	r3, #216	@ 0xd8
200003e2:	f44f 3280 	mov.w	r2, #65536	@ 0x10000
200003e6:	4629      	mov	r1, r5
200003e8:	4620      	mov	r0, r4
200003ea:	47b8      	blx	r7
200003ec:	47b0      	blx	r6
200003ee:	f7ff ff4d 	bl	2000028c <flash_enable_xip_via_boot2>
200003f2:	a801      	add	r0, sp, #4
200003f4:	f7ff ff9e 	bl	20000334 <flash_restore_hardware_state>
200003f8:	b00b      	add	sp, #44	@ 0x2c
200003fa:	e8bd 83f0 	ldmia.w	sp!, {r4, r5, r6, r7, r8, r9, pc}
200003fe:	f000 fe03 	bl	20001008 <__hard_assertion_failure_veneer>
20000402:	e7b2      	b.n	2000036a <flash_range_erase+0x12>

20000404 <flash_range_program>:
20000404:	e92d 47f0 	stmdb	sp!, {r4, r5, r6, r7, r8, r9, sl, lr}
20000408:	1883      	adds	r3, r0, r2
2000040a:	f5b3 0f80 	cmp.w	r3, #4194304	@ 0x400000
2000040e:	4604      	mov	r4, r0
20000410:	4615      	mov	r5, r2
20000412:	4688      	mov	r8, r1
20000414:	b08a      	sub	sp, #40	@ 0x28
20000416:	d847      	bhi.n	200004a8 <flash_range_program+0xa4>
20000418:	2300      	movs	r3, #0
2000041a:	8adb      	ldrh	r3, [r3, #22]
2000041c:	2200      	movs	r2, #0
2000041e:	e842 f200 	tt	r2, r2
20000422:	0256      	lsls	r6, r2, #9
20000424:	bf54      	ite	pl
20000426:	2110      	movpl	r1, #16
20000428:	2104      	movmi	r1, #4
2000042a:	f244 6049 	movw	r0, #17993	@ 0x4649
2000042e:	4798      	blx	r3
20000430:	2300      	movs	r3, #0
20000432:	4682      	mov	sl, r0
20000434:	8adb      	ldrh	r3, [r3, #22]
20000436:	2200      	movs	r2, #0
20000438:	e842 f200 	tt	r2, r2
2000043c:	0250      	lsls	r0, r2, #9
2000043e:	bf54      	ite	pl
20000440:	2110      	movpl	r1, #16
20000442:	2104      	movmi	r1, #4
20000444:	f645 0045 	movw	r0, #22597	@ 0x5845
20000448:	4798      	blx	r3
2000044a:	2300      	movs	r3, #0
2000044c:	4681      	mov	r9, r0
2000044e:	8adb      	ldrh	r3, [r3, #22]
20000450:	2200      	movs	r2, #0
20000452:	e842 f200 	tt	r2, r2
20000456:	0251      	lsls	r1, r2, #9
20000458:	bf54      	ite	pl
2000045a:	2110      	movpl	r1, #16
2000045c:	2104      	movmi	r1, #4
2000045e:	f245 0052 	movw	r0, #20562	@ 0x5052
20000462:	4798      	blx	r3
20000464:	2300      	movs	r3, #0
20000466:	4607      	mov	r7, r0
20000468:	8adb      	ldrh	r3, [r3, #22]
2000046a:	2200      	movs	r2, #0
2000046c:	e842 f200 	tt	r2, r2
20000470:	0252      	lsls	r2, r2, #9
20000472:	bf54      	ite	pl
20000474:	2110      	movpl	r1, #16
20000476:	2104      	movmi	r1, #4
20000478:	f244 3046 	movw	r0, #17222	@ 0x4346
2000047c:	4798      	blx	r3
2000047e:	4606      	mov	r6, r0
20000480:	f7ff feea 	bl	20000258 <flash_init_boot2_copyout>
20000484:	a801      	add	r0, sp, #4
20000486:	f7ff ff19 	bl	200002bc <flash_save_hardware_state>
2000048a:	47d0      	blx	sl
2000048c:	47c8      	blx	r9
2000048e:	462a      	mov	r2, r5
20000490:	4641      	mov	r1, r8
20000492:	4620      	mov	r0, r4
20000494:	47b8      	blx	r7
20000496:	47b0      	blx	r6
20000498:	f7ff fef8 	bl	2000028c <flash_enable_xip_via_boot2>
2000049c:	a801      	add	r0, sp, #4
2000049e:	f7ff ff49 	bl	20000334 <flash_restore_hardware_state>
200004a2:	b00a      	add	sp, #40	@ 0x28
200004a4:	e8bd 87f0 	ldmia.w	sp!, {r4, r5, r6, r7, r8, r9, sl, pc}
200004a8:	f000 fdae 	bl	20001008 <__hard_assertion_failure_veneer>
200004ac:	e7b4      	b.n	20000418 <flash_range_program+0x14>
200004ae:	bf00      	nop

200004b0 <xip_cache_maintain>:
200004b0:	4401      	add	r1, r0
200004b2:	4288      	cmp	r0, r1
200004b4:	d206      	bcs.n	200004c4 <xip_cache_maintain+0x14>
200004b6:	2300      	movs	r3, #0
200004b8:	f102 52c0 	add.w	r2, r2, #402653184	@ 0x18000000
200004bc:	5413      	strb	r3, [r2, r0]
200004be:	3008      	adds	r0, #8
200004c0:	4281      	cmp	r1, r0
200004c2:	d8fb      	bhi.n	200004bc <xip_cache_maintain+0xc>
200004c4:	f3bf 8f4f 	dsb	sy
200004c8:	f3bf 8f6f 	isb	sy
200004cc:	4770      	bx	lr
200004ce:	bf00      	nop

200004d0 <xip_cache_clean_all>:
200004d0:	2201      	movs	r2, #1
200004d2:	f44f 4180 	mov.w	r1, #16384	@ 0x4000
200004d6:	4801      	ldr	r0, [pc, #4]	@ (200004dc <xip_cache_clean_all+0xc>)
200004d8:	f7ff bfea 	b.w	200004b0 <xip_cache_maintain>
200004dc:	03ffc000 	.word	0x03ffc000

200004e0 <reset_non_control_endpoints>:
200004e0:	2100      	movs	r1, #0
200004e2:	b508      	push	{r3, lr}
200004e4:	4b13      	ldr	r3, [pc, #76]	@ (20000534 <reset_non_control_endpoints+0x54>)
200004e6:	f44f 7270 	mov.w	r2, #960	@ 0x3c0
200004ea:	6099      	str	r1, [r3, #8]
200004ec:	4812      	ldr	r0, [pc, #72]	@ (20000538 <reset_non_control_endpoints+0x58>)
200004ee:	60d9      	str	r1, [r3, #12]
200004f0:	6119      	str	r1, [r3, #16]
200004f2:	6159      	str	r1, [r3, #20]
200004f4:	6199      	str	r1, [r3, #24]
200004f6:	61d9      	str	r1, [r3, #28]
200004f8:	6219      	str	r1, [r3, #32]
200004fa:	6259      	str	r1, [r3, #36]	@ 0x24
200004fc:	6299      	str	r1, [r3, #40]	@ 0x28
200004fe:	62d9      	str	r1, [r3, #44]	@ 0x2c
20000500:	6319      	str	r1, [r3, #48]	@ 0x30
20000502:	6359      	str	r1, [r3, #52]	@ 0x34
20000504:	6399      	str	r1, [r3, #56]	@ 0x38
20000506:	63d9      	str	r1, [r3, #60]	@ 0x3c
20000508:	6419      	str	r1, [r3, #64]	@ 0x40
2000050a:	6459      	str	r1, [r3, #68]	@ 0x44
2000050c:	6499      	str	r1, [r3, #72]	@ 0x48
2000050e:	64d9      	str	r1, [r3, #76]	@ 0x4c
20000510:	6519      	str	r1, [r3, #80]	@ 0x50
20000512:	6559      	str	r1, [r3, #84]	@ 0x54
20000514:	6599      	str	r1, [r3, #88]	@ 0x58
20000516:	65d9      	str	r1, [r3, #92]	@ 0x5c
20000518:	6619      	str	r1, [r3, #96]	@ 0x60
2000051a:	6659      	str	r1, [r3, #100]	@ 0x64
2000051c:	6699      	str	r1, [r3, #104]	@ 0x68
2000051e:	66d9      	str	r1, [r3, #108]	@ 0x6c
20000520:	6719      	str	r1, [r3, #112]	@ 0x70
20000522:	6759      	str	r1, [r3, #116]	@ 0x74
20000524:	6799      	str	r1, [r3, #120]	@ 0x78
20000526:	67d9      	str	r1, [r3, #124]	@ 0x7c
20000528:	f000 fd7e 	bl	20001028 <__memset_veneer>
2000052c:	4b03      	ldr	r3, [pc, #12]	@ (2000053c <reset_non_control_endpoints+0x5c>)
2000052e:	4a04      	ldr	r2, [pc, #16]	@ (20000540 <reset_non_control_endpoints+0x60>)
20000530:	601a      	str	r2, [r3, #0]
20000532:	bd08      	pop	{r3, pc}
20000534:	50100000 	.word	0x50100000
20000538:	20001e38 	.word	0x20001e38
2000053c:	20002200 	.word	0x20002200
20000540:	50100180 	.word	0x50100180

20000544 <hw_handle_buff_status>:
20000544:	e92d 4ff0 	stmdb	sp!, {r4, r5, r6, r7, r8, r9, sl, fp, lr}
20000548:	4b1f      	ldr	r3, [pc, #124]	@ (200005c8 <hw_handle_buff_status+0x84>)
2000054a:	b085      	sub	sp, #20
2000054c:	f8d3 a058 	ldr.w	sl, [r3, #88]	@ 0x58
20000550:	f1ba 0f00 	cmp.w	sl, #0
20000554:	d022      	beq.n	2000059c <hw_handle_buff_status+0x58>
20000556:	2400      	movs	r4, #0
20000558:	2501      	movs	r5, #1
2000055a:	f44f 69e0 	mov.w	r9, #1792	@ 0x700
2000055e:	f8df 8070 	ldr.w	r8, [pc, #112]	@ 200005d0 <hw_handle_buff_status+0x8c>
20000562:	4f1a      	ldr	r7, [pc, #104]	@ (200005cc <hw_handle_buff_status+0x88>)
20000564:	e001      	b.n	2000056a <hw_handle_buff_status+0x26>
20000566:	2c20      	cmp	r4, #32
20000568:	d018      	beq.n	2000059c <hw_handle_buff_status+0x58>
2000056a:	ea0a 0205 	and.w	r2, sl, r5
2000056e:	1c61      	adds	r1, r4, #1
20000570:	4623      	mov	r3, r4
20000572:	46ab      	mov	fp, r5
20000574:	b2cc      	uxtb	r4, r1
20000576:	006d      	lsls	r5, r5, #1
20000578:	2a00      	cmp	r2, #0
2000057a:	d0f4      	beq.n	20000566 <hw_handle_buff_status+0x22>
2000057c:	f004 0201 	and.w	r2, r4, #1
20000580:	f003 06fe 	and.w	r6, r3, #254	@ 0xfe
20000584:	4416      	add	r6, r2
20000586:	eb07 1646 	add.w	r6, r7, r6, lsl #5
2000058a:	4630      	mov	r0, r6
2000058c:	f8c8 b058 	str.w	fp, [r8, #88]	@ 0x58
20000590:	f000 fc0a 	bl	20000da8 <hw_endpoint_xfer_continue>
20000594:	b928      	cbnz	r0, 200005a2 <hw_handle_buff_status+0x5e>
20000596:	ea3a 0a0b 	bics.w	sl, sl, fp
2000059a:	d1e4      	bne.n	20000566 <hw_handle_buff_status+0x22>
2000059c:	b005      	add	sp, #20
2000059e:	e8bd 8ff0 	ldmia.w	sp!, {r4, r5, r6, r7, r8, r9, sl, fp, pc}
200005a2:	2300      	movs	r3, #0
200005a4:	f88d 3009 	strb.w	r3, [sp, #9]
200005a8:	78b3      	ldrb	r3, [r6, #2]
200005aa:	a801      	add	r0, sp, #4
200005ac:	f88d 3008 	strb.w	r3, [sp, #8]
200005b0:	8af3      	ldrh	r3, [r6, #22]
200005b2:	2101      	movs	r1, #1
200005b4:	f8ad 9004 	strh.w	r9, [sp, #4]
200005b8:	9303      	str	r3, [sp, #12]
200005ba:	f000 fc13 	bl	20000de4 <dcd_event_handler>
200005be:	4630      	mov	r0, r6
200005c0:	f000 fb98 	bl	20000cf4 <hw_endpoint_reset_transfer>
200005c4:	e7e7      	b.n	20000596 <hw_handle_buff_status+0x52>
200005c6:	bf00      	nop
200005c8:	50110000 	.word	0x50110000
200005cc:	20001df8 	.word	0x20001df8
200005d0:	50113000 	.word	0x50113000

200005d4 <dcd_rp2040_irq>:
200005d4:	b5f0      	push	{r4, r5, r6, r7, lr}
200005d6:	4bbb      	ldr	r3, [pc, #748]	@ (200008c4 <dcd_rp2040_irq+0x2f0>)
200005d8:	b085      	sub	sp, #20
200005da:	f8d3 5098 	ldr.w	r5, [r3, #152]	@ 0x98
200005de:	f415 3600 	ands.w	r6, r5, #131072	@ 0x20000
200005e2:	d074      	beq.n	200006ce <dcd_rp2040_irq+0xfa>
200005e4:	4bb8      	ldr	r3, [pc, #736]	@ (200008c8 <dcd_rp2040_irq+0x2f4>)
200005e6:	4cb9      	ldr	r4, [pc, #740]	@ (200008cc <dcd_rp2040_irq+0x2f8>)
200005e8:	6a99      	ldr	r1, [r3, #40]	@ 0x28
200005ea:	f894 303b 	ldrb.w	r3, [r4, #59]	@ 0x3b
200005ee:	4ab8      	ldr	r2, [pc, #736]	@ (200008d0 <dcd_rp2040_irq+0x2fc>)
200005f0:	2b02      	cmp	r3, #2
200005f2:	6011      	str	r1, [r2, #0]
200005f4:	f000 80d4 	beq.w	200007a0 <dcd_rp2040_irq+0x1cc>
200005f8:	2600      	movs	r6, #0
200005fa:	f894 307b 	ldrb.w	r3, [r4, #123]	@ 0x7b
200005fe:	2b02      	cmp	r3, #2
20000600:	f000 813b 	beq.w	2000087a <dcd_rp2040_irq+0x2a6>
20000604:	f894 30bb 	ldrb.w	r3, [r4, #187]	@ 0xbb
20000608:	2b02      	cmp	r3, #2
2000060a:	f000 817d 	beq.w	20000908 <dcd_rp2040_irq+0x334>
2000060e:	f894 30fb 	ldrb.w	r3, [r4, #251]	@ 0xfb
20000612:	2b02      	cmp	r3, #2
20000614:	f000 816c 	beq.w	200008f0 <dcd_rp2040_irq+0x31c>
20000618:	f894 313b 	ldrb.w	r3, [r4, #315]	@ 0x13b
2000061c:	2b02      	cmp	r3, #2
2000061e:	f000 8144 	beq.w	200008aa <dcd_rp2040_irq+0x2d6>
20000622:	f894 317b 	ldrb.w	r3, [r4, #379]	@ 0x17b
20000626:	2b02      	cmp	r3, #2
20000628:	f000 8133 	beq.w	20000892 <dcd_rp2040_irq+0x2be>
2000062c:	f894 31bb 	ldrb.w	r3, [r4, #443]	@ 0x1bb
20000630:	2b02      	cmp	r3, #2
20000632:	f000 81b6 	beq.w	200009a2 <dcd_rp2040_irq+0x3ce>
20000636:	f894 31fb 	ldrb.w	r3, [r4, #507]	@ 0x1fb
2000063a:	2b02      	cmp	r3, #2
2000063c:	f000 81a6 	beq.w	2000098c <dcd_rp2040_irq+0x3b8>
20000640:	f894 323b 	ldrb.w	r3, [r4, #571]	@ 0x23b
20000644:	2b02      	cmp	r3, #2
20000646:	f000 8196 	beq.w	20000976 <dcd_rp2040_irq+0x3a2>
2000064a:	f894 327b 	ldrb.w	r3, [r4, #635]	@ 0x27b
2000064e:	2b02      	cmp	r3, #2
20000650:	f000 8186 	beq.w	20000960 <dcd_rp2040_irq+0x38c>
20000654:	f894 32bb 	ldrb.w	r3, [r4, #699]	@ 0x2bb
20000658:	2b02      	cmp	r3, #2
2000065a:	f000 8176 	beq.w	2000094a <dcd_rp2040_irq+0x376>
2000065e:	f894 32fb 	ldrb.w	r3, [r4, #763]	@ 0x2fb
20000662:	2b02      	cmp	r3, #2
20000664:	f000 8166 	beq.w	20000934 <dcd_rp2040_irq+0x360>
20000668:	f894 333b 	ldrb.w	r3, [r4, #827]	@ 0x33b
2000066c:	2b02      	cmp	r3, #2
2000066e:	f000 8156 	beq.w	2000091e <dcd_rp2040_irq+0x34a>
20000672:	f894 337b 	ldrb.w	r3, [r4, #891]	@ 0x37b
20000676:	2b02      	cmp	r3, #2
20000678:	f000 80a4 	beq.w	200007c4 <dcd_rp2040_irq+0x1f0>
2000067c:	f894 33bb 	ldrb.w	r3, [r4, #955]	@ 0x3bb
20000680:	2b02      	cmp	r3, #2
20000682:	f000 8199 	beq.w	200009b8 <dcd_rp2040_irq+0x3e4>
20000686:	f894 33fb 	ldrb.w	r3, [r4, #1019]	@ 0x3fb
2000068a:	2b02      	cmp	r3, #2
2000068c:	f000 80b4 	beq.w	200007f8 <dcd_rp2040_irq+0x224>
20000690:	b93e      	cbnz	r6, 200006a2 <dcd_rp2040_irq+0xce>
20000692:	4b90      	ldr	r3, [pc, #576]	@ (200008d4 <dcd_rp2040_irq+0x300>)
20000694:	781b      	ldrb	r3, [r3, #0]
20000696:	b923      	cbnz	r3, 200006a2 <dcd_rp2040_irq+0xce>
20000698:	f44f 3200 	mov.w	r2, #131072	@ 0x20000
2000069c:	4b8e      	ldr	r3, [pc, #568]	@ (200008d8 <dcd_rp2040_irq+0x304>)
2000069e:	f8c3 2090 	str.w	r2, [r3, #144]	@ 0x90
200006a2:	f44f 7240 	mov.w	r2, #768	@ 0x300
200006a6:	4b87      	ldr	r3, [pc, #540]	@ (200008c4 <dcd_rp2040_irq+0x2f0>)
200006a8:	2101      	movs	r1, #1
200006aa:	6c9b      	ldr	r3, [r3, #72]	@ 0x48
200006ac:	a801      	add	r0, sp, #4
200006ae:	f3c3 030a 	ubfx	r3, r3, #0, #11
200006b2:	f8ad 2004 	strh.w	r2, [sp, #4]
200006b6:	9302      	str	r3, [sp, #8]
200006b8:	f000 fb94 	bl	20000de4 <dcd_event_handler>
200006bc:	06ea      	lsls	r2, r5, #27
200006be:	f44f 3600 	mov.w	r6, #131072	@ 0x20000
200006c2:	4c86      	ldr	r4, [pc, #536]	@ (200008dc <dcd_rp2040_irq+0x308>)
200006c4:	d507      	bpl.n	200006d6 <dcd_rp2040_irq+0x102>
200006c6:	f7ff ff3d 	bl	20000544 <hw_handle_buff_status>
200006ca:	4626      	mov	r6, r4
200006cc:	e003      	b.n	200006d6 <dcd_rp2040_irq+0x102>
200006ce:	06ea      	lsls	r2, r5, #27
200006d0:	f04f 0410 	mov.w	r4, #16
200006d4:	d4f7      	bmi.n	200006c6 <dcd_rp2040_irq+0xf2>
200006d6:	03eb      	lsls	r3, r5, #15
200006d8:	d522      	bpl.n	20000720 <dcd_rp2040_irq+0x14c>
200006da:	4c7c      	ldr	r4, [pc, #496]	@ (200008cc <dcd_rp2040_irq+0x2f8>)
200006dc:	f446 3680 	orr.w	r6, r6, #65536	@ 0x10000
200006e0:	7ea3      	ldrb	r3, [r4, #26]
200006e2:	2b00      	cmp	r3, #0
200006e4:	f040 8099 	bne.w	2000081a <dcd_rp2040_irq+0x246>
200006e8:	2301      	movs	r3, #1
200006ea:	f894 203a 	ldrb.w	r2, [r4, #58]	@ 0x3a
200006ee:	70e3      	strb	r3, [r4, #3]
200006f0:	2a00      	cmp	r2, #0
200006f2:	f040 80ad 	bne.w	20000850 <dcd_rp2040_irq+0x27c>
200006f6:	2301      	movs	r3, #1
200006f8:	f44f 61c0 	mov.w	r1, #1536	@ 0x600
200006fc:	4a78      	ldr	r2, [pc, #480]	@ (200008e0 <dcd_rp2040_irq+0x30c>)
200006fe:	f884 3023 	strb.w	r3, [r4, #35]	@ 0x23
20000702:	f8ad 1004 	strh.w	r1, [sp, #4]
20000706:	e892 0003 	ldmia.w	r2, {r0, r1}
2000070a:	aa04      	add	r2, sp, #16
2000070c:	e902 0003 	stmdb	r2, {r0, r1}
20000710:	4619      	mov	r1, r3
20000712:	a801      	add	r0, sp, #4
20000714:	f000 fb66 	bl	20000de4 <dcd_event_handler>
20000718:	f44f 3200 	mov.w	r2, #131072	@ 0x20000
2000071c:	4b6e      	ldr	r3, [pc, #440]	@ (200008d8 <dcd_rp2040_irq+0x304>)
2000071e:	651a      	str	r2, [r3, #80]	@ 0x50
20000720:	04e9      	lsls	r1, r5, #19
20000722:	d408      	bmi.n	20000736 <dcd_rp2040_irq+0x162>
20000724:	046a      	lsls	r2, r5, #17
20000726:	d41d      	bmi.n	20000764 <dcd_rp2040_irq+0x190>
20000728:	042b      	lsls	r3, r5, #16
2000072a:	d42a      	bmi.n	20000782 <dcd_rp2040_irq+0x1ae>
2000072c:	42ae      	cmp	r6, r5
2000072e:	f040 81c5 	bne.w	20000abc <dcd_rp2040_irq+0x4e8>
20000732:	b005      	add	sp, #20
20000734:	bdf0      	pop	{r4, r5, r6, r7, pc}
20000736:	2400      	movs	r4, #0
20000738:	4b62      	ldr	r3, [pc, #392]	@ (200008c4 <dcd_rp2040_irq+0x2f0>)
2000073a:	f446 5680 	orr.w	r6, r6, #4096	@ 0x1000
2000073e:	601c      	str	r4, [r3, #0]
20000740:	f7ff fece 	bl	200004e0 <reset_non_control_endpoints>
20000744:	f44f 7380 	mov.w	r3, #256	@ 0x100
20000748:	2101      	movs	r1, #1
2000074a:	a801      	add	r0, sp, #4
2000074c:	f8ad 3004 	strh.w	r3, [sp, #4]
20000750:	f88d 4008 	strb.w	r4, [sp, #8]
20000754:	f000 fb46 	bl	20000de4 <dcd_event_handler>
20000758:	f44f 2200 	mov.w	r2, #524288	@ 0x80000
2000075c:	4b5e      	ldr	r3, [pc, #376]	@ (200008d8 <dcd_rp2040_irq+0x304>)
2000075e:	651a      	str	r2, [r3, #80]	@ 0x50
20000760:	046a      	lsls	r2, r5, #17
20000762:	d5e1      	bpl.n	20000728 <dcd_rp2040_irq+0x154>
20000764:	f44f 6380 	mov.w	r3, #1024	@ 0x400
20000768:	2101      	movs	r1, #1
2000076a:	a801      	add	r0, sp, #4
2000076c:	f8ad 3004 	strh.w	r3, [sp, #4]
20000770:	f000 fb38 	bl	20000de4 <dcd_event_handler>
20000774:	2210      	movs	r2, #16
20000776:	4b58      	ldr	r3, [pc, #352]	@ (200008d8 <dcd_rp2040_irq+0x304>)
20000778:	f446 4680 	orr.w	r6, r6, #16384	@ 0x4000
2000077c:	651a      	str	r2, [r3, #80]	@ 0x50
2000077e:	042b      	lsls	r3, r5, #16
20000780:	d5d4      	bpl.n	2000072c <dcd_rp2040_irq+0x158>
20000782:	f44f 63a0 	mov.w	r3, #1280	@ 0x500
20000786:	2101      	movs	r1, #1
20000788:	a801      	add	r0, sp, #4
2000078a:	f8ad 3004 	strh.w	r3, [sp, #4]
2000078e:	f000 fb29 	bl	20000de4 <dcd_event_handler>
20000792:	f44f 6200 	mov.w	r2, #2048	@ 0x800
20000796:	4b50      	ldr	r3, [pc, #320]	@ (200008d8 <dcd_rp2040_irq+0x304>)
20000798:	f446 4600 	orr.w	r6, r6, #32768	@ 0x8000
2000079c:	651a      	str	r2, [r3, #80]	@ 0x50
2000079e:	e7c5      	b.n	2000072c <dcd_rp2040_irq+0x158>
200007a0:	f894 603a 	ldrb.w	r6, [r4, #58]	@ 0x3a
200007a4:	2e00      	cmp	r6, #0
200007a6:	f43f af28 	beq.w	200005fa <dcd_rp2040_irq+0x26>
200007aa:	f894 303c 	ldrb.w	r3, [r4, #60]	@ 0x3c
200007ae:	2b00      	cmp	r3, #0
200007b0:	f43f af23 	beq.w	200005fa <dcd_rp2040_irq+0x26>
200007b4:	2300      	movs	r3, #0
200007b6:	f104 0020 	add.w	r0, r4, #32
200007ba:	f884 303c 	strb.w	r3, [r4, #60]	@ 0x3c
200007be:	f000 fac1 	bl	20000d44 <hw_endpoint_start_next_buffer>
200007c2:	e71a      	b.n	200005fa <dcd_rp2040_irq+0x26>
200007c4:	f894 737a 	ldrb.w	r7, [r4, #890]	@ 0x37a
200007c8:	2f00      	cmp	r7, #0
200007ca:	f43f af57 	beq.w	2000067c <dcd_rp2040_irq+0xa8>
200007ce:	f894 337c 	ldrb.w	r3, [r4, #892]	@ 0x37c
200007d2:	2b00      	cmp	r3, #0
200007d4:	f040 8164 	bne.w	20000aa0 <dcd_rp2040_irq+0x4cc>
200007d8:	f894 33bb 	ldrb.w	r3, [r4, #955]	@ 0x3bb
200007dc:	2b02      	cmp	r3, #2
200007de:	f040 80f4 	bne.w	200009ca <dcd_rp2040_irq+0x3f6>
200007e2:	f894 33ba 	ldrb.w	r3, [r4, #954]	@ 0x3ba
200007e6:	2b00      	cmp	r3, #0
200007e8:	f040 80eb 	bne.w	200009c2 <dcd_rp2040_irq+0x3ee>
200007ec:	f894 33fb 	ldrb.w	r3, [r4, #1019]	@ 0x3fb
200007f0:	2b02      	cmp	r3, #2
200007f2:	f47f af56 	bne.w	200006a2 <dcd_rp2040_irq+0xce>
200007f6:	463e      	mov	r6, r7
200007f8:	f894 33fa 	ldrb.w	r3, [r4, #1018]	@ 0x3fa
200007fc:	2b00      	cmp	r3, #0
200007fe:	f43f af47 	beq.w	20000690 <dcd_rp2040_irq+0xbc>
20000802:	f894 33fc 	ldrb.w	r3, [r4, #1020]	@ 0x3fc
20000806:	2b00      	cmp	r3, #0
20000808:	f43f af4b 	beq.w	200006a2 <dcd_rp2040_irq+0xce>
2000080c:	2300      	movs	r3, #0
2000080e:	4835      	ldr	r0, [pc, #212]	@ (200008e4 <dcd_rp2040_irq+0x310>)
20000810:	f884 33fc 	strb.w	r3, [r4, #1020]	@ 0x3fc
20000814:	f000 fa96 	bl	20000d44 <hw_endpoint_start_next_buffer>
20000818:	e743      	b.n	200006a2 <dcd_rp2040_irq+0xce>
2000081a:	2102      	movs	r1, #2
2000081c:	4b32      	ldr	r3, [pc, #200]	@ (200008e8 <dcd_rp2040_irq+0x314>)
2000081e:	4a29      	ldr	r2, [pc, #164]	@ (200008c4 <dcd_rp2040_irq+0x2f0>)
20000820:	6619      	str	r1, [r3, #96]	@ 0x60
20000822:	6e53      	ldr	r3, [r2, #100]	@ 0x64
20000824:	079f      	lsls	r7, r3, #30
20000826:	d5fc      	bpl.n	20000822 <dcd_rp2040_irq+0x24e>
20000828:	f44f 5240 	mov.w	r2, #12288	@ 0x3000
2000082c:	2100      	movs	r1, #0
2000082e:	4827      	ldr	r0, [pc, #156]	@ (200008cc <dcd_rp2040_irq+0x2f8>)
20000830:	f000 fa66 	bl	20000d00 <_hw_endpoint_buffer_control_update32>
20000834:	4825      	ldr	r0, [pc, #148]	@ (200008cc <dcd_rp2040_irq+0x2f8>)
20000836:	f000 fa5d 	bl	20000cf4 <hw_endpoint_reset_transfer>
2000083a:	2202      	movs	r2, #2
2000083c:	4b26      	ldr	r3, [pc, #152]	@ (200008d8 <dcd_rp2040_irq+0x304>)
2000083e:	665a      	str	r2, [r3, #100]	@ 0x64
20000840:	661a      	str	r2, [r3, #96]	@ 0x60
20000842:	2301      	movs	r3, #1
20000844:	f894 203a 	ldrb.w	r2, [r4, #58]	@ 0x3a
20000848:	70e3      	strb	r3, [r4, #3]
2000084a:	2a00      	cmp	r2, #0
2000084c:	f43f af53 	beq.w	200006f6 <dcd_rp2040_irq+0x122>
20000850:	4a25      	ldr	r2, [pc, #148]	@ (200008e8 <dcd_rp2040_irq+0x314>)
20000852:	6613      	str	r3, [r2, #96]	@ 0x60
20000854:	f5a2 5200 	sub.w	r2, r2, #8192	@ 0x2000
20000858:	6e53      	ldr	r3, [r2, #100]	@ 0x64
2000085a:	07d8      	lsls	r0, r3, #31
2000085c:	d5fc      	bpl.n	20000858 <dcd_rp2040_irq+0x284>
2000085e:	f44f 5240 	mov.w	r2, #12288	@ 0x3000
20000862:	2100      	movs	r1, #0
20000864:	4821      	ldr	r0, [pc, #132]	@ (200008ec <dcd_rp2040_irq+0x318>)
20000866:	f000 fa4b 	bl	20000d00 <_hw_endpoint_buffer_control_update32>
2000086a:	4820      	ldr	r0, [pc, #128]	@ (200008ec <dcd_rp2040_irq+0x318>)
2000086c:	f000 fa42 	bl	20000cf4 <hw_endpoint_reset_transfer>
20000870:	2201      	movs	r2, #1
20000872:	4b19      	ldr	r3, [pc, #100]	@ (200008d8 <dcd_rp2040_irq+0x304>)
20000874:	665a      	str	r2, [r3, #100]	@ 0x64
20000876:	661a      	str	r2, [r3, #96]	@ 0x60
20000878:	e73d      	b.n	200006f6 <dcd_rp2040_irq+0x122>
2000087a:	f894 707a 	ldrb.w	r7, [r4, #122]	@ 0x7a
2000087e:	2f00      	cmp	r7, #0
20000880:	f43f aec0 	beq.w	20000604 <dcd_rp2040_irq+0x30>
20000884:	f894 307c 	ldrb.w	r3, [r4, #124]	@ 0x7c
20000888:	2b00      	cmp	r3, #0
2000088a:	f040 8101 	bne.w	20000a90 <dcd_rp2040_irq+0x4bc>
2000088e:	463e      	mov	r6, r7
20000890:	e6b8      	b.n	20000604 <dcd_rp2040_irq+0x30>
20000892:	f894 717a 	ldrb.w	r7, [r4, #378]	@ 0x17a
20000896:	2f00      	cmp	r7, #0
20000898:	f43f aec8 	beq.w	2000062c <dcd_rp2040_irq+0x58>
2000089c:	f894 317c 	ldrb.w	r3, [r4, #380]	@ 0x17c
200008a0:	2b00      	cmp	r3, #0
200008a2:	f040 80ed 	bne.w	20000a80 <dcd_rp2040_irq+0x4ac>
200008a6:	463e      	mov	r6, r7
200008a8:	e6c0      	b.n	2000062c <dcd_rp2040_irq+0x58>
200008aa:	f894 713a 	ldrb.w	r7, [r4, #314]	@ 0x13a
200008ae:	2f00      	cmp	r7, #0
200008b0:	f43f aeb7 	beq.w	20000622 <dcd_rp2040_irq+0x4e>
200008b4:	f894 313c 	ldrb.w	r3, [r4, #316]	@ 0x13c
200008b8:	2b00      	cmp	r3, #0
200008ba:	f040 80d9 	bne.w	20000a70 <dcd_rp2040_irq+0x49c>
200008be:	463e      	mov	r6, r7
200008c0:	e6af      	b.n	20000622 <dcd_rp2040_irq+0x4e>
200008c2:	bf00      	nop
200008c4:	50110000 	.word	0x50110000
200008c8:	400b0000 	.word	0x400b0000
200008cc:	20001df8 	.word	0x20001df8
200008d0:	20001ddc 	.word	0x20001ddc
200008d4:	200025dd 	.word	0x200025dd
200008d8:	50113000 	.word	0x50113000
200008dc:	00020010 	.word	0x00020010
200008e0:	50100000 	.word	0x50100000
200008e4:	200021d8 	.word	0x200021d8
200008e8:	50112000 	.word	0x50112000
200008ec:	20001e18 	.word	0x20001e18
200008f0:	f894 70fa 	ldrb.w	r7, [r4, #250]	@ 0xfa
200008f4:	2f00      	cmp	r7, #0
200008f6:	f43f ae8f 	beq.w	20000618 <dcd_rp2040_irq+0x44>
200008fa:	f894 30fc 	ldrb.w	r3, [r4, #252]	@ 0xfc
200008fe:	2b00      	cmp	r3, #0
20000900:	f040 808e 	bne.w	20000a20 <dcd_rp2040_irq+0x44c>
20000904:	463e      	mov	r6, r7
20000906:	e687      	b.n	20000618 <dcd_rp2040_irq+0x44>
20000908:	f894 70ba 	ldrb.w	r7, [r4, #186]	@ 0xba
2000090c:	2f00      	cmp	r7, #0
2000090e:	f43f ae7e 	beq.w	2000060e <dcd_rp2040_irq+0x3a>
20000912:	f894 30bc 	ldrb.w	r3, [r4, #188]	@ 0xbc
20000916:	2b00      	cmp	r3, #0
20000918:	d17a      	bne.n	20000a10 <dcd_rp2040_irq+0x43c>
2000091a:	463e      	mov	r6, r7
2000091c:	e677      	b.n	2000060e <dcd_rp2040_irq+0x3a>
2000091e:	f894 733a 	ldrb.w	r7, [r4, #826]	@ 0x33a
20000922:	2f00      	cmp	r7, #0
20000924:	f43f aea5 	beq.w	20000672 <dcd_rp2040_irq+0x9e>
20000928:	f894 333c 	ldrb.w	r3, [r4, #828]	@ 0x33c
2000092c:	2b00      	cmp	r3, #0
2000092e:	d157      	bne.n	200009e0 <dcd_rp2040_irq+0x40c>
20000930:	463e      	mov	r6, r7
20000932:	e69e      	b.n	20000672 <dcd_rp2040_irq+0x9e>
20000934:	f894 72fa 	ldrb.w	r7, [r4, #762]	@ 0x2fa
20000938:	2f00      	cmp	r7, #0
2000093a:	f43f ae95 	beq.w	20000668 <dcd_rp2040_irq+0x94>
2000093e:	f894 32fc 	ldrb.w	r3, [r4, #764]	@ 0x2fc
20000942:	2b00      	cmp	r3, #0
20000944:	d15c      	bne.n	20000a00 <dcd_rp2040_irq+0x42c>
20000946:	463e      	mov	r6, r7
20000948:	e68e      	b.n	20000668 <dcd_rp2040_irq+0x94>
2000094a:	f894 72ba 	ldrb.w	r7, [r4, #698]	@ 0x2ba
2000094e:	2f00      	cmp	r7, #0
20000950:	f43f ae85 	beq.w	2000065e <dcd_rp2040_irq+0x8a>
20000954:	f894 32bc 	ldrb.w	r3, [r4, #700]	@ 0x2bc
20000958:	2b00      	cmp	r3, #0
2000095a:	d149      	bne.n	200009f0 <dcd_rp2040_irq+0x41c>
2000095c:	463e      	mov	r6, r7
2000095e:	e67e      	b.n	2000065e <dcd_rp2040_irq+0x8a>
20000960:	f894 727a 	ldrb.w	r7, [r4, #634]	@ 0x27a
20000964:	2f00      	cmp	r7, #0
20000966:	f43f ae75 	beq.w	20000654 <dcd_rp2040_irq+0x80>
2000096a:	f894 327c 	ldrb.w	r3, [r4, #636]	@ 0x27c
2000096e:	2b00      	cmp	r3, #0
20000970:	d176      	bne.n	20000a60 <dcd_rp2040_irq+0x48c>
20000972:	463e      	mov	r6, r7
20000974:	e66e      	b.n	20000654 <dcd_rp2040_irq+0x80>
20000976:	f894 723a 	ldrb.w	r7, [r4, #570]	@ 0x23a
2000097a:	2f00      	cmp	r7, #0
2000097c:	f43f ae65 	beq.w	2000064a <dcd_rp2040_irq+0x76>
20000980:	f894 323c 	ldrb.w	r3, [r4, #572]	@ 0x23c
20000984:	2b00      	cmp	r3, #0
20000986:	d163      	bne.n	20000a50 <dcd_rp2040_irq+0x47c>
20000988:	463e      	mov	r6, r7
2000098a:	e65e      	b.n	2000064a <dcd_rp2040_irq+0x76>
2000098c:	f894 71fa 	ldrb.w	r7, [r4, #506]	@ 0x1fa
20000990:	2f00      	cmp	r7, #0
20000992:	f43f ae55 	beq.w	20000640 <dcd_rp2040_irq+0x6c>
20000996:	f894 31fc 	ldrb.w	r3, [r4, #508]	@ 0x1fc
2000099a:	2b00      	cmp	r3, #0
2000099c:	d150      	bne.n	20000a40 <dcd_rp2040_irq+0x46c>
2000099e:	463e      	mov	r6, r7
200009a0:	e64e      	b.n	20000640 <dcd_rp2040_irq+0x6c>
200009a2:	f894 71ba 	ldrb.w	r7, [r4, #442]	@ 0x1ba
200009a6:	2f00      	cmp	r7, #0
200009a8:	f43f ae45 	beq.w	20000636 <dcd_rp2040_irq+0x62>
200009ac:	f894 31bc 	ldrb.w	r3, [r4, #444]	@ 0x1bc
200009b0:	2b00      	cmp	r3, #0
200009b2:	d13d      	bne.n	20000a30 <dcd_rp2040_irq+0x45c>
200009b4:	463e      	mov	r6, r7
200009b6:	e63e      	b.n	20000636 <dcd_rp2040_irq+0x62>
200009b8:	f894 33ba 	ldrb.w	r3, [r4, #954]	@ 0x3ba
200009bc:	2b00      	cmp	r3, #0
200009be:	f43f ae62 	beq.w	20000686 <dcd_rp2040_irq+0xb2>
200009c2:	f894 33bc 	ldrb.w	r3, [r4, #956]	@ 0x3bc
200009c6:	2b00      	cmp	r3, #0
200009c8:	d171      	bne.n	20000aae <dcd_rp2040_irq+0x4da>
200009ca:	f894 33fb 	ldrb.w	r3, [r4, #1019]	@ 0x3fb
200009ce:	2b02      	cmp	r3, #2
200009d0:	f47f ae67 	bne.w	200006a2 <dcd_rp2040_irq+0xce>
200009d4:	f894 33fa 	ldrb.w	r3, [r4, #1018]	@ 0x3fa
200009d8:	2b00      	cmp	r3, #0
200009da:	f43f ae62 	beq.w	200006a2 <dcd_rp2040_irq+0xce>
200009de:	e710      	b.n	20000802 <dcd_rp2040_irq+0x22e>
200009e0:	2300      	movs	r3, #0
200009e2:	4839      	ldr	r0, [pc, #228]	@ (20000ac8 <dcd_rp2040_irq+0x4f4>)
200009e4:	f884 333c 	strb.w	r3, [r4, #828]	@ 0x33c
200009e8:	463e      	mov	r6, r7
200009ea:	f000 f9ab 	bl	20000d44 <hw_endpoint_start_next_buffer>
200009ee:	e640      	b.n	20000672 <dcd_rp2040_irq+0x9e>
200009f0:	2300      	movs	r3, #0
200009f2:	4836      	ldr	r0, [pc, #216]	@ (20000acc <dcd_rp2040_irq+0x4f8>)
200009f4:	f884 32bc 	strb.w	r3, [r4, #700]	@ 0x2bc
200009f8:	463e      	mov	r6, r7
200009fa:	f000 f9a3 	bl	20000d44 <hw_endpoint_start_next_buffer>
200009fe:	e62e      	b.n	2000065e <dcd_rp2040_irq+0x8a>
20000a00:	2300      	movs	r3, #0
20000a02:	4833      	ldr	r0, [pc, #204]	@ (20000ad0 <dcd_rp2040_irq+0x4fc>)
20000a04:	f884 32fc 	strb.w	r3, [r4, #764]	@ 0x2fc
20000a08:	463e      	mov	r6, r7
20000a0a:	f000 f99b 	bl	20000d44 <hw_endpoint_start_next_buffer>
20000a0e:	e62b      	b.n	20000668 <dcd_rp2040_irq+0x94>
20000a10:	2300      	movs	r3, #0
20000a12:	4830      	ldr	r0, [pc, #192]	@ (20000ad4 <dcd_rp2040_irq+0x500>)
20000a14:	f884 30bc 	strb.w	r3, [r4, #188]	@ 0xbc
20000a18:	463e      	mov	r6, r7
20000a1a:	f000 f993 	bl	20000d44 <hw_endpoint_start_next_buffer>
20000a1e:	e5f6      	b.n	2000060e <dcd_rp2040_irq+0x3a>
20000a20:	2300      	movs	r3, #0
20000a22:	482d      	ldr	r0, [pc, #180]	@ (20000ad8 <dcd_rp2040_irq+0x504>)
20000a24:	f884 30fc 	strb.w	r3, [r4, #252]	@ 0xfc
20000a28:	463e      	mov	r6, r7
20000a2a:	f000 f98b 	bl	20000d44 <hw_endpoint_start_next_buffer>
20000a2e:	e5f3      	b.n	20000618 <dcd_rp2040_irq+0x44>
20000a30:	2300      	movs	r3, #0
20000a32:	482a      	ldr	r0, [pc, #168]	@ (20000adc <dcd_rp2040_irq+0x508>)
20000a34:	f884 31bc 	strb.w	r3, [r4, #444]	@ 0x1bc
20000a38:	463e      	mov	r6, r7
20000a3a:	f000 f983 	bl	20000d44 <hw_endpoint_start_next_buffer>
20000a3e:	e5fa      	b.n	20000636 <dcd_rp2040_irq+0x62>
20000a40:	2300      	movs	r3, #0
20000a42:	4827      	ldr	r0, [pc, #156]	@ (20000ae0 <dcd_rp2040_irq+0x50c>)
20000a44:	f884 31fc 	strb.w	r3, [r4, #508]	@ 0x1fc
20000a48:	463e      	mov	r6, r7
20000a4a:	f000 f97b 	bl	20000d44 <hw_endpoint_start_next_buffer>
20000a4e:	e5f7      	b.n	20000640 <dcd_rp2040_irq+0x6c>
20000a50:	2300      	movs	r3, #0
20000a52:	4824      	ldr	r0, [pc, #144]	@ (20000ae4 <dcd_rp2040_irq+0x510>)
20000a54:	f884 323c 	strb.w	r3, [r4, #572]	@ 0x23c
20000a58:	463e      	mov	r6, r7
20000a5a:	f000 f973 	bl	20000d44 <hw_endpoint_start_next_buffer>
20000a5e:	e5f4      	b.n	2000064a <dcd_rp2040_irq+0x76>
20000a60:	2300      	movs	r3, #0
20000a62:	4821      	ldr	r0, [pc, #132]	@ (20000ae8 <dcd_rp2040_irq+0x514>)
20000a64:	f884 327c 	strb.w	r3, [r4, #636]	@ 0x27c
20000a68:	463e      	mov	r6, r7
20000a6a:	f000 f96b 	bl	20000d44 <hw_endpoint_start_next_buffer>
20000a6e:	e5f1      	b.n	20000654 <dcd_rp2040_irq+0x80>
20000a70:	2300      	movs	r3, #0
20000a72:	481e      	ldr	r0, [pc, #120]	@ (20000aec <dcd_rp2040_irq+0x518>)
20000a74:	f884 313c 	strb.w	r3, [r4, #316]	@ 0x13c
20000a78:	463e      	mov	r6, r7
20000a7a:	f000 f963 	bl	20000d44 <hw_endpoint_start_next_buffer>
20000a7e:	e5d0      	b.n	20000622 <dcd_rp2040_irq+0x4e>
20000a80:	2300      	movs	r3, #0
20000a82:	481b      	ldr	r0, [pc, #108]	@ (20000af0 <dcd_rp2040_irq+0x51c>)
20000a84:	f884 317c 	strb.w	r3, [r4, #380]	@ 0x17c
20000a88:	463e      	mov	r6, r7
20000a8a:	f000 f95b 	bl	20000d44 <hw_endpoint_start_next_buffer>
20000a8e:	e5cd      	b.n	2000062c <dcd_rp2040_irq+0x58>
20000a90:	2300      	movs	r3, #0
20000a92:	4818      	ldr	r0, [pc, #96]	@ (20000af4 <dcd_rp2040_irq+0x520>)
20000a94:	f884 307c 	strb.w	r3, [r4, #124]	@ 0x7c
20000a98:	463e      	mov	r6, r7
20000a9a:	f000 f953 	bl	20000d44 <hw_endpoint_start_next_buffer>
20000a9e:	e5b1      	b.n	20000604 <dcd_rp2040_irq+0x30>
20000aa0:	2300      	movs	r3, #0
20000aa2:	4815      	ldr	r0, [pc, #84]	@ (20000af8 <dcd_rp2040_irq+0x524>)
20000aa4:	f884 337c 	strb.w	r3, [r4, #892]	@ 0x37c
20000aa8:	f000 f94c 	bl	20000d44 <hw_endpoint_start_next_buffer>
20000aac:	e694      	b.n	200007d8 <dcd_rp2040_irq+0x204>
20000aae:	2300      	movs	r3, #0
20000ab0:	4812      	ldr	r0, [pc, #72]	@ (20000afc <dcd_rp2040_irq+0x528>)
20000ab2:	f884 33bc 	strb.w	r3, [r4, #956]	@ 0x3bc
20000ab6:	f000 f945 	bl	20000d44 <hw_endpoint_start_next_buffer>
20000aba:	e786      	b.n	200009ca <dcd_rp2040_irq+0x3f6>
20000abc:	4810      	ldr	r0, [pc, #64]	@ (20000b00 <dcd_rp2040_irq+0x52c>)
20000abe:	ea86 0105 	eor.w	r1, r6, r5
20000ac2:	f000 faad 	bl	20001020 <__panic_veneer>
20000ac6:	bf00      	nop
20000ac8:	20002118 	.word	0x20002118
20000acc:	20002098 	.word	0x20002098
20000ad0:	200020d8 	.word	0x200020d8
20000ad4:	20001e98 	.word	0x20001e98
20000ad8:	20001ed8 	.word	0x20001ed8
20000adc:	20001f98 	.word	0x20001f98
20000ae0:	20001fd8 	.word	0x20001fd8
20000ae4:	20002018 	.word	0x20002018
20000ae8:	20002058 	.word	0x20002058
20000aec:	20001f18 	.word	0x20001f18
20000af0:	20001f58 	.word	0x20001f58
20000af4:	20001e58 	.word	0x20001e58
20000af8:	20002158 	.word	0x20002158
20000afc:	20002198 	.word	0x20002198
20000b00:	1000533c 	.word	0x1000533c

20000b04 <prepare_ep_buffer>:
20000b04:	e92d 47f0 	stmdb	sp!, {r4, r5, r6, r7, r8, r9, sl, lr}
20000b08:	8a84      	ldrh	r4, [r0, #20]
20000b0a:	8b05      	ldrh	r5, [r0, #24]
20000b0c:	78c2      	ldrb	r2, [r0, #3]
20000b0e:	42a5      	cmp	r5, r4
20000b10:	bf28      	it	cs
20000b12:	4625      	movcs	r5, r4
20000b14:	1e17      	subs	r7, r2, #0
20000b16:	bf18      	it	ne
20000b18:	2701      	movne	r7, #1
20000b1a:	1b64      	subs	r4, r4, r5
20000b1c:	7846      	ldrb	r6, [r0, #1]
20000b1e:	f082 0201 	eor.w	r2, r2, #1
20000b22:	b2a4      	uxth	r4, r4
20000b24:	4603      	mov	r3, r0
20000b26:	70c2      	strb	r2, [r0, #3]
20000b28:	8284      	strh	r4, [r0, #20]
20000b2a:	f445 6080 	orr.w	r0, r5, #1024	@ 0x400
20000b2e:	ea40 3047 	orr.w	r0, r0, r7, lsl #13
20000b32:	bba6      	cbnz	r6, 20000b9e <prepare_ep_buffer+0x9a>
20000b34:	e9d3 2603 	ldrd	r2, r6, [r3, #12]
20000b38:	1e6f      	subs	r7, r5, #1
20000b3a:	eb02 1e81 	add.w	lr, r2, r1, lsl #6
20000b3e:	b355      	cbz	r5, 20000b96 <prepare_ep_buffer+0x92>
20000b40:	2f05      	cmp	r7, #5
20000b42:	bf98      	it	ls
20000b44:	1c72      	addls	r2, r6, #1
20000b46:	d931      	bls.n	20000bac <prepare_ep_buffer+0xa8>
20000b48:	eb02 1c81 	add.w	ip, r2, r1, lsl #6
20000b4c:	1c72      	adds	r2, r6, #1
20000b4e:	ebac 0402 	sub.w	r4, ip, r2
20000b52:	2c02      	cmp	r4, #2
20000b54:	d92a      	bls.n	20000bac <prepare_ep_buffer+0xa8>
20000b56:	4632      	mov	r2, r6
20000b58:	ea4f 0995 	mov.w	r9, r5, lsr #2
20000b5c:	ea4f 0a89 	mov.w	sl, r9, lsl #2
20000b60:	eb06 0889 	add.w	r8, r6, r9, lsl #2
20000b64:	f852 4b04 	ldr.w	r4, [r2], #4
20000b68:	4542      	cmp	r2, r8
20000b6a:	f84c 4b04 	str.w	r4, [ip], #4
20000b6e:	d1f9      	bne.n	20000b64 <prepare_ep_buffer+0x60>
20000b70:	4555      	cmp	r5, sl
20000b72:	eba7 070a 	sub.w	r7, r7, sl
20000b76:	eb0e 040a 	add.w	r4, lr, sl
20000b7a:	d00a      	beq.n	20000b92 <prepare_ep_buffer+0x8e>
20000b7c:	f816 6029 	ldrb.w	r6, [r6, r9, lsl #2]
20000b80:	f80e 6029 	strb.w	r6, [lr, r9, lsl #2]
20000b84:	b12f      	cbz	r7, 20000b92 <prepare_ep_buffer+0x8e>
20000b86:	7856      	ldrb	r6, [r2, #1]
20000b88:	2f01      	cmp	r7, #1
20000b8a:	7066      	strb	r6, [r4, #1]
20000b8c:	d001      	beq.n	20000b92 <prepare_ep_buffer+0x8e>
20000b8e:	7892      	ldrb	r2, [r2, #2]
20000b90:	70a2      	strb	r2, [r4, #2]
20000b92:	691e      	ldr	r6, [r3, #16]
20000b94:	8a9c      	ldrh	r4, [r3, #20]
20000b96:	442e      	add	r6, r5
20000b98:	611e      	str	r6, [r3, #16]
20000b9a:	f440 4000 	orr.w	r0, r0, #32768	@ 0x8000
20000b9e:	b90c      	cbnz	r4, 20000ba4 <prepare_ep_buffer+0xa0>
20000ba0:	f440 4080 	orr.w	r0, r0, #16384	@ 0x4000
20000ba4:	b101      	cbz	r1, 20000ba8 <prepare_ep_buffer+0xa4>
20000ba6:	0400      	lsls	r0, r0, #16
20000ba8:	e8bd 87f0 	ldmia.w	sp!, {r4, r5, r6, r7, r8, r9, sl, pc}
20000bac:	f10e 3eff 	add.w	lr, lr, #4294967295	@ 0xffffffff
20000bb0:	442e      	add	r6, r5
20000bb2:	e000      	b.n	20000bb6 <prepare_ep_buffer+0xb2>
20000bb4:	3201      	adds	r2, #1
20000bb6:	f812 4c01 	ldrb.w	r4, [r2, #-1]
20000bba:	42b2      	cmp	r2, r6
20000bbc:	f80e 4f01 	strb.w	r4, [lr, #1]!
20000bc0:	d1f8      	bne.n	20000bb4 <prepare_ep_buffer+0xb0>
20000bc2:	e7e6      	b.n	20000b92 <prepare_ep_buffer+0x8e>

20000bc4 <sync_ep_buffer>:
20000bc4:	6883      	ldr	r3, [r0, #8]
20000bc6:	4602      	mov	r2, r0
20000bc8:	6818      	ldr	r0, [r3, #0]
20000bca:	b101      	cbz	r1, 20000bce <sync_ep_buffer+0xa>
20000bcc:	0c00      	lsrs	r0, r0, #16
20000bce:	7853      	ldrb	r3, [r2, #1]
20000bd0:	f3c0 0009 	ubfx	r0, r0, #0, #10
20000bd4:	2b00      	cmp	r3, #0
20000bd6:	d03c      	beq.n	20000c52 <sync_ep_buffer+0x8e>
20000bd8:	e92d 41f0 	stmdb	sp!, {r4, r5, r6, r7, r8, lr}
20000bdc:	e9d2 3403 	ldrd	r3, r4, [r2, #12]
20000be0:	1e46      	subs	r6, r0, #1
20000be2:	eb03 1e81 	add.w	lr, r3, r1, lsl #6
20000be6:	b340      	cbz	r0, 20000c3a <sync_ep_buffer+0x76>
20000be8:	2e05      	cmp	r6, #5
20000bea:	d93b      	bls.n	20000c64 <sync_ep_buffer+0xa0>
20000bec:	0189      	lsls	r1, r1, #6
20000bee:	1c4d      	adds	r5, r1, #1
20000bf0:	441d      	add	r5, r3
20000bf2:	1b65      	subs	r5, r4, r5
20000bf4:	2d02      	cmp	r5, #2
20000bf6:	d935      	bls.n	20000c64 <sync_ep_buffer+0xa0>
20000bf8:	4673      	mov	r3, lr
20000bfa:	4621      	mov	r1, r4
20000bfc:	f400 777f 	and.w	r7, r0, #1020	@ 0x3fc
20000c00:	ea4f 0890 	mov.w	r8, r0, lsr #2
20000c04:	18fd      	adds	r5, r7, r3
20000c06:	f853 cb04 	ldr.w	ip, [r3], #4
20000c0a:	42ab      	cmp	r3, r5
20000c0c:	f841 cb04 	str.w	ip, [r1], #4
20000c10:	d1f9      	bne.n	20000c06 <sync_ep_buffer+0x42>
20000c12:	42b8      	cmp	r0, r7
20000c14:	eba6 0607 	sub.w	r6, r6, r7
20000c18:	eb04 0307 	add.w	r3, r4, r7
20000c1c:	eb0e 0107 	add.w	r1, lr, r7
20000c20:	d00a      	beq.n	20000c38 <sync_ep_buffer+0x74>
20000c22:	f81e 5028 	ldrb.w	r5, [lr, r8, lsl #2]
20000c26:	f804 5028 	strb.w	r5, [r4, r8, lsl #2]
20000c2a:	b12e      	cbz	r6, 20000c38 <sync_ep_buffer+0x74>
20000c2c:	784c      	ldrb	r4, [r1, #1]
20000c2e:	2e01      	cmp	r6, #1
20000c30:	705c      	strb	r4, [r3, #1]
20000c32:	d001      	beq.n	20000c38 <sync_ep_buffer+0x74>
20000c34:	7889      	ldrb	r1, [r1, #2]
20000c36:	7099      	strb	r1, [r3, #2]
20000c38:	6914      	ldr	r4, [r2, #16]
20000c3a:	8ad3      	ldrh	r3, [r2, #22]
20000c3c:	4404      	add	r4, r0
20000c3e:	4403      	add	r3, r0
20000c40:	82d3      	strh	r3, [r2, #22]
20000c42:	8b13      	ldrh	r3, [r2, #24]
20000c44:	6114      	str	r4, [r2, #16]
20000c46:	4283      	cmp	r3, r0
20000c48:	bf84      	itt	hi
20000c4a:	2300      	movhi	r3, #0
20000c4c:	8293      	strhhi	r3, [r2, #20]
20000c4e:	e8bd 81f0 	ldmia.w	sp!, {r4, r5, r6, r7, r8, pc}
20000c52:	8ad3      	ldrh	r3, [r2, #22]
20000c54:	4403      	add	r3, r0
20000c56:	82d3      	strh	r3, [r2, #22]
20000c58:	8b13      	ldrh	r3, [r2, #24]
20000c5a:	4283      	cmp	r3, r0
20000c5c:	bf84      	itt	hi
20000c5e:	2300      	movhi	r3, #0
20000c60:	8293      	strhhi	r3, [r2, #20]
20000c62:	4770      	bx	lr
20000c64:	3c01      	subs	r4, #1
20000c66:	eb0e 0100 	add.w	r1, lr, r0
20000c6a:	f81e 3b01 	ldrb.w	r3, [lr], #1
20000c6e:	4571      	cmp	r1, lr
20000c70:	f804 3f01 	strb.w	r3, [r4, #1]!
20000c74:	d1f9      	bne.n	20000c6a <sync_ep_buffer+0xa6>
20000c76:	e7df      	b.n	20000c38 <sync_ep_buffer+0x74>

20000c78 <_hw_endpoint_xfer_sync>:
20000c78:	b510      	push	{r4, lr}
20000c7a:	4604      	mov	r4, r0
20000c7c:	6883      	ldr	r3, [r0, #8]
20000c7e:	2100      	movs	r1, #0
20000c80:	681b      	ldr	r3, [r3, #0]
20000c82:	f7ff ff9f 	bl	20000bc4 <sync_ep_buffer>
20000c86:	6863      	ldr	r3, [r4, #4]
20000c88:	681b      	ldr	r3, [r3, #0]
20000c8a:	005b      	lsls	r3, r3, #1
20000c8c:	d502      	bpl.n	20000c94 <_hw_endpoint_xfer_sync+0x1c>
20000c8e:	8b23      	ldrh	r3, [r4, #24]
20000c90:	4283      	cmp	r3, r0
20000c92:	d000      	beq.n	20000c96 <_hw_endpoint_xfer_sync+0x1e>
20000c94:	bd10      	pop	{r4, pc}
20000c96:	4620      	mov	r0, r4
20000c98:	e8bd 4010 	ldmia.w	sp!, {r4, lr}
20000c9c:	2101      	movs	r1, #1
20000c9e:	f7ff bf91 	b.w	20000bc4 <sync_ep_buffer>
20000ca2:	bf00      	nop

20000ca4 <e15_is_bulkin_ep>:
20000ca4:	4b08      	ldr	r3, [pc, #32]	@ (20000cc8 <e15_is_bulkin_ep+0x24>)
20000ca6:	6c1b      	ldr	r3, [r3, #64]	@ 0x40
20000ca8:	f013 0302 	ands.w	r3, r3, #2
20000cac:	d102      	bne.n	20000cb4 <e15_is_bulkin_ep+0x10>
20000cae:	7882      	ldrb	r2, [r0, #2]
20000cb0:	09d2      	lsrs	r2, r2, #7
20000cb2:	d101      	bne.n	20000cb8 <e15_is_bulkin_ep+0x14>
20000cb4:	2000      	movs	r0, #0
20000cb6:	4770      	bx	lr
20000cb8:	7ec0      	ldrb	r0, [r0, #27]
20000cba:	f1a0 0002 	sub.w	r0, r0, #2
20000cbe:	fab0 f080 	clz	r0, r0
20000cc2:	0940      	lsrs	r0, r0, #5
20000cc4:	4770      	bx	lr
20000cc6:	bf00      	nop
20000cc8:	50110000 	.word	0x50110000

20000ccc <e15_is_critical_frame_period>:
20000ccc:	b508      	push	{r3, lr}
20000cce:	f7ff ffe9 	bl	20000ca4 <e15_is_bulkin_ep>
20000cd2:	b150      	cbz	r0, 20000cea <e15_is_critical_frame_period+0x1e>
20000cd4:	4a05      	ldr	r2, [pc, #20]	@ (20000cec <e15_is_critical_frame_period+0x20>)
20000cd6:	4b06      	ldr	r3, [pc, #24]	@ (20000cf0 <e15_is_critical_frame_period+0x24>)
20000cd8:	6a90      	ldr	r0, [r2, #40]	@ 0x28
20000cda:	681b      	ldr	r3, [r3, #0]
20000cdc:	f5a0 7048 	sub.w	r0, r0, #800	@ 0x320
20000ce0:	1ac0      	subs	r0, r0, r3
20000ce2:	28c6      	cmp	r0, #198	@ 0xc6
20000ce4:	bf8c      	ite	hi
20000ce6:	2000      	movhi	r0, #0
20000ce8:	2001      	movls	r0, #1
20000cea:	bd08      	pop	{r3, pc}
20000cec:	400b0000 	.word	0x400b0000
20000cf0:	20001ddc 	.word	0x20001ddc

20000cf4 <hw_endpoint_reset_transfer>:
20000cf4:	2300      	movs	r3, #0
20000cf6:	e9c0 3304 	strd	r3, r3, [r0, #16]
20000cfa:	7683      	strb	r3, [r0, #26]
20000cfc:	4770      	bx	lr
20000cfe:	bf00      	nop

20000d00 <_hw_endpoint_buffer_control_update32>:
20000d00:	b510      	push	{r4, lr}
20000d02:	6883      	ldr	r3, [r0, #8]
20000d04:	b109      	cbz	r1, 20000d0a <_hw_endpoint_buffer_control_update32+0xa>
20000d06:	681c      	ldr	r4, [r3, #0]
20000d08:	4021      	ands	r1, r4
20000d0a:	b182      	cbz	r2, 20000d2e <_hw_endpoint_buffer_control_update32+0x2e>
20000d0c:	4311      	orrs	r1, r2
20000d0e:	0552      	lsls	r2, r2, #21
20000d10:	d50d      	bpl.n	20000d2e <_hw_endpoint_buffer_control_update32+0x2e>
20000d12:	681a      	ldr	r2, [r3, #0]
20000d14:	0554      	lsls	r4, r2, #21
20000d16:	d40c      	bmi.n	20000d32 <_hw_endpoint_buffer_control_update32+0x32>
20000d18:	4a08      	ldr	r2, [pc, #32]	@ (20000d3c <_hw_endpoint_buffer_control_update32+0x3c>)
20000d1a:	f421 6480 	bic.w	r4, r1, #1024	@ 0x400
20000d1e:	601c      	str	r4, [r3, #0]
20000d20:	6c12      	ldr	r2, [r2, #64]	@ 0x40
20000d22:	0792      	lsls	r2, r2, #30
20000d24:	d403      	bmi.n	20000d2e <_hw_endpoint_buffer_control_update32+0x2e>
20000d26:	230c      	movs	r3, #12
20000d28:	3b03      	subs	r3, #3
20000d2a:	d2fd      	bcs.n	20000d28 <_hw_endpoint_buffer_control_update32+0x28>
20000d2c:	6883      	ldr	r3, [r0, #8]
20000d2e:	6019      	str	r1, [r3, #0]
20000d30:	bd10      	pop	{r4, pc}
20000d32:	7881      	ldrb	r1, [r0, #2]
20000d34:	4802      	ldr	r0, [pc, #8]	@ (20000d40 <_hw_endpoint_buffer_control_update32+0x40>)
20000d36:	f000 f973 	bl	20001020 <__panic_veneer>
20000d3a:	bf00      	nop
20000d3c:	50110000 	.word	0x50110000
20000d40:	10005350 	.word	0x10005350

20000d44 <hw_endpoint_start_next_buffer>:
20000d44:	b530      	push	{r4, r5, lr}
20000d46:	6843      	ldr	r3, [r0, #4]
20000d48:	2100      	movs	r1, #0
20000d4a:	b083      	sub	sp, #12
20000d4c:	4604      	mov	r4, r0
20000d4e:	681d      	ldr	r5, [r3, #0]
20000d50:	f7ff fed8 	bl	20000b04 <prepare_ep_buffer>
20000d54:	4b13      	ldr	r3, [pc, #76]	@ (20000da4 <hw_endpoint_start_next_buffer+0x60>)
20000d56:	f440 5280 	orr.w	r2, r0, #4096	@ 0x1000
20000d5a:	6c19      	ldr	r1, [r3, #64]	@ 0x40
20000d5c:	78a3      	ldrb	r3, [r4, #2]
20000d5e:	0789      	lsls	r1, r1, #30
20000d60:	d50e      	bpl.n	20000d80 <hw_endpoint_start_next_buffer+0x3c>
20000d62:	065b      	lsls	r3, r3, #25
20000d64:	d00e      	beq.n	20000d84 <hw_endpoint_start_next_buffer+0x40>
20000d66:	f025 45a0 	bic.w	r5, r5, #1342177280	@ 0x50000000
20000d6a:	f045 5500 	orr.w	r5, r5, #536870912	@ 0x20000000
20000d6e:	2100      	movs	r1, #0
20000d70:	4620      	mov	r0, r4
20000d72:	6863      	ldr	r3, [r4, #4]
20000d74:	601d      	str	r5, [r3, #0]
20000d76:	b003      	add	sp, #12
20000d78:	e8bd 4030 	ldmia.w	sp!, {r4, r5, lr}
20000d7c:	f7ff bfc0 	b.w	20000d00 <_hw_endpoint_buffer_control_update32>
20000d80:	09db      	lsrs	r3, r3, #7
20000d82:	d0f0      	beq.n	20000d66 <hw_endpoint_start_next_buffer+0x22>
20000d84:	8aa3      	ldrh	r3, [r4, #20]
20000d86:	2b00      	cmp	r3, #0
20000d88:	d0ed      	beq.n	20000d66 <hw_endpoint_start_next_buffer+0x22>
20000d8a:	2101      	movs	r1, #1
20000d8c:	4620      	mov	r0, r4
20000d8e:	9201      	str	r2, [sp, #4]
20000d90:	f7ff feb8 	bl	20000b04 <prepare_ep_buffer>
20000d94:	9a01      	ldr	r2, [sp, #4]
20000d96:	f025 5500 	bic.w	r5, r5, #536870912	@ 0x20000000
20000d9a:	4302      	orrs	r2, r0
20000d9c:	f045 45a0 	orr.w	r5, r5, #1342177280	@ 0x50000000
20000da0:	e7e5      	b.n	20000d6e <hw_endpoint_start_next_buffer+0x2a>
20000da2:	bf00      	nop
20000da4:	50110000 	.word	0x50110000

20000da8 <hw_endpoint_xfer_continue>:
20000da8:	b538      	push	{r3, r4, r5, lr}
20000daa:	7e85      	ldrb	r5, [r0, #26]
20000dac:	4604      	mov	r4, r0
20000dae:	b195      	cbz	r5, 20000dd6 <hw_endpoint_xfer_continue+0x2e>
20000db0:	f7ff ff62 	bl	20000c78 <_hw_endpoint_xfer_sync>
20000db4:	8aa3      	ldrh	r3, [r4, #20]
20000db6:	b90b      	cbnz	r3, 20000dbc <hw_endpoint_xfer_continue+0x14>
20000db8:	4628      	mov	r0, r5
20000dba:	bd38      	pop	{r3, r4, r5, pc}
20000dbc:	4620      	mov	r0, r4
20000dbe:	f7ff ff85 	bl	20000ccc <e15_is_critical_frame_period>
20000dc2:	b120      	cbz	r0, 20000dce <hw_endpoint_xfer_continue+0x26>
20000dc4:	2301      	movs	r3, #1
20000dc6:	7723      	strb	r3, [r4, #28]
20000dc8:	2500      	movs	r5, #0
20000dca:	4628      	mov	r0, r5
20000dcc:	bd38      	pop	{r3, r4, r5, pc}
20000dce:	4620      	mov	r0, r4
20000dd0:	f7ff ffb8 	bl	20000d44 <hw_endpoint_start_next_buffer>
20000dd4:	e7f8      	b.n	20000dc8 <hw_endpoint_xfer_continue+0x20>
20000dd6:	7881      	ldrb	r1, [r0, #2]
20000dd8:	4801      	ldr	r0, [pc, #4]	@ (20000de0 <hw_endpoint_xfer_continue+0x38>)
20000dda:	f000 f921 	bl	20001020 <__panic_veneer>
20000dde:	bf00      	nop
20000de0:	10005370 	.word	0x10005370

20000de4 <dcd_event_handler>:
20000de4:	e92d 43f0 	stmdb	sp!, {r4, r5, r6, r7, r8, r9, lr}
20000de8:	7843      	ldrb	r3, [r0, #1]
20000dea:	4604      	mov	r4, r0
20000dec:	3b02      	subs	r3, #2
20000dee:	460d      	mov	r5, r1
20000df0:	b085      	sub	sp, #20
20000df2:	2b04      	cmp	r3, #4
20000df4:	d813      	bhi.n	20000e1e <dcd_event_handler+0x3a>
20000df6:	e8df f003 	tbb	[pc, r3]
20000dfa:	4803      	.short	0x4803
20000dfc:	7067      	.short	0x7067
20000dfe:	42          	.byte	0x42
20000dff:	00          	.byte	0x00
20000e00:	2100      	movs	r1, #0
20000e02:	4b78      	ldr	r3, [pc, #480]	@ (20000fe4 <dcd_event_handler+0x200>)
20000e04:	781a      	ldrb	r2, [r3, #0]
20000e06:	f022 0201 	bic.w	r2, r2, #1
20000e0a:	701a      	strb	r2, [r3, #0]
20000e0c:	781a      	ldrb	r2, [r3, #0]
20000e0e:	f022 0202 	bic.w	r2, r2, #2
20000e12:	701a      	strb	r2, [r3, #0]
20000e14:	7059      	strb	r1, [r3, #1]
20000e16:	781a      	ldrb	r2, [r3, #0]
20000e18:	f361 0282 	bfi	r2, r1, #2, #1
20000e1c:	701a      	strb	r2, [r3, #0]
20000e1e:	4b72      	ldr	r3, [pc, #456]	@ (20000fe8 <dcd_event_handler+0x204>)
20000e20:	681e      	ldr	r6, [r3, #0]
20000e22:	6973      	ldr	r3, [r6, #20]
20000e24:	f3ef 8210 	mrs	r2, PRIMASK
20000e28:	b672      	cpsid	i
20000e2a:	e8d3 0fcf 	ldaexb	r0, [r3]
20000e2e:	2101      	movs	r1, #1
20000e30:	2800      	cmp	r0, #0
20000e32:	d1fa      	bne.n	20000e2a <dcd_event_handler+0x46>
20000e34:	e8c3 1f40 	strexb	r0, r1, [r3]
20000e38:	2800      	cmp	r0, #0
20000e3a:	d1f6      	bne.n	20000e2a <dcd_event_handler+0x46>
20000e3c:	f3bf 8f5f 	dmb	sy
20000e40:	61b2      	str	r2, [r6, #24]
20000e42:	4621      	mov	r1, r4
20000e44:	4630      	mov	r0, r6
20000e46:	f000 f8f3 	bl	20001030 <__tu_fifo_write_veneer>
20000e4a:	2300      	movs	r3, #0
20000e4c:	6972      	ldr	r2, [r6, #20]
20000e4e:	e8c2 3f8f 	stlb	r3, [r2]
20000e52:	69b3      	ldr	r3, [r6, #24]
20000e54:	f383 8810 	msr	PRIMASK, r3
20000e58:	b948      	cbnz	r0, 20000e6e <dcd_event_handler+0x8a>
20000e5a:	f04f 23e0 	mov.w	r3, #3758153728	@ 0xe000e000
20000e5e:	f8d3 3df0 	ldr.w	r3, [r3, #3568]	@ 0xdf0
20000e62:	07db      	lsls	r3, r3, #31
20000e64:	d508      	bpl.n	20000e78 <dcd_event_handler+0x94>
20000e66:	be00      	bkpt	0x0000
20000e68:	b005      	add	sp, #20
20000e6a:	e8bd 83f0 	ldmia.w	sp!, {r4, r5, r6, r7, r8, r9, pc}
20000e6e:	462a      	mov	r2, r5
20000e70:	7861      	ldrb	r1, [r4, #1]
20000e72:	7820      	ldrb	r0, [r4, #0]
20000e74:	f000 f8cc 	bl	20001010 <__tud_event_hook_cb_veneer>
20000e78:	b005      	add	sp, #20
20000e7a:	e8bd 83f0 	ldmia.w	sp!, {r4, r5, r6, r7, r8, r9, pc}
20000e7e:	4a5b      	ldr	r2, [pc, #364]	@ (20000fec <dcd_event_handler+0x208>)
20000e80:	7813      	ldrb	r3, [r2, #0]
20000e82:	3301      	adds	r3, #1
20000e84:	b2db      	uxtb	r3, r3
20000e86:	7013      	strb	r3, [r2, #0]
20000e88:	e7c9      	b.n	20000e1e <dcd_event_handler+0x3a>
20000e8a:	f04f 0900 	mov.w	r9, #0
20000e8e:	4e58      	ldr	r6, [pc, #352]	@ (20000ff0 <dcd_event_handler+0x20c>)
20000e90:	464b      	mov	r3, r9
20000e92:	7831      	ldrb	r1, [r6, #0]
20000e94:	f8df 8160 	ldr.w	r8, [pc, #352]	@ 20000ff8 <dcd_event_handler+0x214>
20000e98:	4f56      	ldr	r7, [pc, #344]	@ (20000ff4 <dcd_event_handler+0x210>)
20000e9a:	e00f      	b.n	20000ebc <dcd_event_handler+0xd8>
20000e9c:	683a      	ldr	r2, [r7, #0]
20000e9e:	eb12 1343 	adds.w	r3, r2, r3, lsl #5
20000ea2:	d005      	beq.n	20000eb0 <dcd_event_handler+0xcc>
20000ea4:	69db      	ldr	r3, [r3, #28]
20000ea6:	b11b      	cbz	r3, 20000eb0 <dcd_event_handler+0xcc>
20000ea8:	6861      	ldr	r1, [r4, #4]
20000eaa:	7820      	ldrb	r0, [r4, #0]
20000eac:	4798      	blx	r3
20000eae:	7831      	ldrb	r1, [r6, #0]
20000eb0:	f109 0901 	add.w	r9, r9, #1
20000eb4:	fa5f f389 	uxtb.w	r3, r9
20000eb8:	428b      	cmp	r3, r1
20000eba:	d817      	bhi.n	20000eec <dcd_event_handler+0x108>
20000ebc:	4299      	cmp	r1, r3
20000ebe:	d8ed      	bhi.n	20000e9c <dcd_event_handler+0xb8>
20000ec0:	1a5b      	subs	r3, r3, r1
20000ec2:	eb08 1343 	add.w	r3, r8, r3, lsl #5
20000ec6:	e7ed      	b.n	20000ea4 <dcd_event_handler+0xc0>
20000ec8:	4b46      	ldr	r3, [pc, #280]	@ (20000fe4 <dcd_event_handler+0x200>)
20000eca:	781a      	ldrb	r2, [r3, #0]
20000ecc:	07d7      	lsls	r7, r2, #31
20000ece:	d5d3      	bpl.n	20000e78 <dcd_event_handler+0x94>
20000ed0:	781a      	ldrb	r2, [r3, #0]
20000ed2:	f042 0204 	orr.w	r2, r2, #4
20000ed6:	701a      	strb	r2, [r3, #0]
20000ed8:	e7a1      	b.n	20000e1e <dcd_event_handler+0x3a>
20000eda:	4b42      	ldr	r3, [pc, #264]	@ (20000fe4 <dcd_event_handler+0x200>)
20000edc:	781a      	ldrb	r2, [r3, #0]
20000ede:	07d6      	lsls	r6, r2, #31
20000ee0:	d5ca      	bpl.n	20000e78 <dcd_event_handler+0x94>
20000ee2:	781a      	ldrb	r2, [r3, #0]
20000ee4:	f022 0204 	bic.w	r2, r2, #4
20000ee8:	701a      	strb	r2, [r3, #0]
20000eea:	e798      	b.n	20000e1e <dcd_event_handler+0x3a>
20000eec:	4e3d      	ldr	r6, [pc, #244]	@ (20000fe4 <dcd_event_handler+0x200>)
20000eee:	7833      	ldrb	r3, [r6, #0]
20000ef0:	0758      	lsls	r0, r3, #29
20000ef2:	d437      	bmi.n	20000f64 <dcd_event_handler+0x180>
20000ef4:	78f3      	ldrb	r3, [r6, #3]
20000ef6:	07da      	lsls	r2, r3, #31
20000ef8:	d5be      	bpl.n	20000e78 <dcd_event_handler+0x94>
20000efa:	2303      	movs	r3, #3
20000efc:	2700      	movs	r7, #0
20000efe:	4a3a      	ldr	r2, [pc, #232]	@ (20000fe8 <dcd_event_handler+0x204>)
20000f00:	7821      	ldrb	r1, [r4, #0]
20000f02:	6816      	ldr	r6, [r2, #0]
20000f04:	6862      	ldr	r2, [r4, #4]
20000f06:	f88d 1004 	strb.w	r1, [sp, #4]
20000f0a:	f88d 3005 	strb.w	r3, [sp, #5]
20000f0e:	6973      	ldr	r3, [r6, #20]
20000f10:	f8cd 7006 	str.w	r7, [sp, #6]
20000f14:	f8cd 700a 	str.w	r7, [sp, #10]
20000f18:	f8ad 700e 	strh.w	r7, [sp, #14]
20000f1c:	9202      	str	r2, [sp, #8]
20000f1e:	f3ef 8210 	mrs	r2, PRIMASK
20000f22:	b672      	cpsid	i
20000f24:	e8d3 0fcf 	ldaexb	r0, [r3]
20000f28:	2101      	movs	r1, #1
20000f2a:	2800      	cmp	r0, #0
20000f2c:	d1fa      	bne.n	20000f24 <dcd_event_handler+0x140>
20000f2e:	e8c3 1f40 	strexb	r0, r1, [r3]
20000f32:	2800      	cmp	r0, #0
20000f34:	d1f6      	bne.n	20000f24 <dcd_event_handler+0x140>
20000f36:	f3bf 8f5f 	dmb	sy
20000f3a:	4630      	mov	r0, r6
20000f3c:	61b2      	str	r2, [r6, #24]
20000f3e:	a901      	add	r1, sp, #4
20000f40:	f000 f876 	bl	20001030 <__tu_fifo_write_veneer>
20000f44:	6973      	ldr	r3, [r6, #20]
20000f46:	e8c3 7f8f 	stlb	r7, [r3]
20000f4a:	69b3      	ldr	r3, [r6, #24]
20000f4c:	f383 8810 	msr	PRIMASK, r3
20000f50:	2800      	cmp	r0, #0
20000f52:	d082      	beq.n	20000e5a <dcd_event_handler+0x76>
20000f54:	462a      	mov	r2, r5
20000f56:	f89d 1005 	ldrb.w	r1, [sp, #5]
20000f5a:	f89d 0004 	ldrb.w	r0, [sp, #4]
20000f5e:	f000 f857 	bl	20001010 <__tud_event_hook_cb_veneer>
20000f62:	e789      	b.n	20000e78 <dcd_event_handler+0x94>
20000f64:	7833      	ldrb	r3, [r6, #0]
20000f66:	f04f 0800 	mov.w	r8, #0
20000f6a:	f023 0304 	bic.w	r3, r3, #4
20000f6e:	7033      	strb	r3, [r6, #0]
20000f70:	2305      	movs	r3, #5
20000f72:	4a1d      	ldr	r2, [pc, #116]	@ (20000fe8 <dcd_event_handler+0x204>)
20000f74:	f88d 3005 	strb.w	r3, [sp, #5]
20000f78:	6817      	ldr	r7, [r2, #0]
20000f7a:	7822      	ldrb	r2, [r4, #0]
20000f7c:	f8ad 800e 	strh.w	r8, [sp, #14]
20000f80:	f88d 2004 	strb.w	r2, [sp, #4]
20000f84:	697b      	ldr	r3, [r7, #20]
20000f86:	f8cd 8006 	str.w	r8, [sp, #6]
20000f8a:	f8cd 800a 	str.w	r8, [sp, #10]
20000f8e:	f3ef 8210 	mrs	r2, PRIMASK
20000f92:	b672      	cpsid	i
20000f94:	e8d3 0fcf 	ldaexb	r0, [r3]
20000f98:	2101      	movs	r1, #1
20000f9a:	2800      	cmp	r0, #0
20000f9c:	d1fa      	bne.n	20000f94 <dcd_event_handler+0x1b0>
20000f9e:	e8c3 1f40 	strexb	r0, r1, [r3]
20000fa2:	2800      	cmp	r0, #0
20000fa4:	d1f6      	bne.n	20000f94 <dcd_event_handler+0x1b0>
20000fa6:	f3bf 8f5f 	dmb	sy
20000faa:	4638      	mov	r0, r7
20000fac:	61ba      	str	r2, [r7, #24]
20000fae:	a901      	add	r1, sp, #4
20000fb0:	f000 f83e 	bl	20001030 <__tu_fifo_write_veneer>
20000fb4:	697b      	ldr	r3, [r7, #20]
20000fb6:	e8c3 8f8f 	stlb	r8, [r3]
20000fba:	69bb      	ldr	r3, [r7, #24]
20000fbc:	f383 8810 	msr	PRIMASK, r3
20000fc0:	b938      	cbnz	r0, 20000fd2 <dcd_event_handler+0x1ee>
20000fc2:	f04f 23e0 	mov.w	r3, #3758153728	@ 0xe000e000
20000fc6:	f8d3 3df0 	ldr.w	r3, [r3, #3568]	@ 0xdf0
20000fca:	07d9      	lsls	r1, r3, #31
20000fcc:	d592      	bpl.n	20000ef4 <dcd_event_handler+0x110>
20000fce:	be00      	bkpt	0x0000
20000fd0:	e790      	b.n	20000ef4 <dcd_event_handler+0x110>
20000fd2:	462a      	mov	r2, r5
20000fd4:	f89d 1005 	ldrb.w	r1, [sp, #5]
20000fd8:	f89d 0004 	ldrb.w	r0, [sp, #4]
20000fdc:	f000 f818 	bl	20001010 <__tud_event_hook_cb_veneer>
20000fe0:	e788      	b.n	20000ef4 <dcd_event_handler+0x110>
20000fe2:	bf00      	nop
20000fe4:	20001b60 	.word	0x20001b60
20000fe8:	20001bb8 	.word	0x20001bb8
20000fec:	200025de 	.word	0x200025de
20000ff0:	200025dc 	.word	0x200025dc
20000ff4:	20001810 	.word	0x20001810
20000ff8:	10005468 	.word	0x10005468
20000ffc:	00000000 	.word	0x00000000

20001000 <__best_effort_wfe_or_timeout_veneer>:
20001000:	f85f f000 	ldr.w	pc, [pc]	@ 20001004 <__best_effort_wfe_or_timeout_veneer+0x4>
20001004:	1000261d 	.word	0x1000261d

20001008 <__hard_assertion_failure_veneer>:
20001008:	f85f f000 	ldr.w	pc, [pc]	@ 2000100c <__hard_assertion_failure_veneer+0x4>
2000100c:	10002c0d 	.word	0x10002c0d

20001010 <__tud_event_hook_cb_veneer>:
20001010:	f85f f000 	ldr.w	pc, [pc]	@ 20001014 <__tud_event_hook_cb_veneer+0x4>
20001014:	10003471 	.word	0x10003471

20001018 <__time_us_64_veneer>:
20001018:	f85f f000 	ldr.w	pc, [pc]	@ 2000101c <__time_us_64_veneer+0x4>
2000101c:	100027fd 	.word	0x100027fd

20001020 <__panic_veneer>:
20001020:	f85f f000 	ldr.w	pc, [pc]	@ 20001024 <__panic_veneer+0x4>
20001024:	10001861 	.word	0x10001861

20001028 <__memset_veneer>:
20001028:	f85f f000 	ldr.w	pc, [pc]	@ 2000102c <__memset_veneer+0x4>
2000102c:	10004cb1 	.word	0x10004cb1

20001030 <__tu_fifo_write_veneer>:
20001030:	f85f f000 	ldr.w	pc, [pc]	@ 20001034 <__tu_fifo_write_veneer+0x4>
20001034:	10004a01 	.word	0x10004a01

20001038 <s_tx>:
	...
20001048:	                                         ...

2000104b <striped_spin_lock_num>:
2000104b:	                                         .

2000104c <irq_handler_chain_slots>:
2000104c:	00000000 	.word	0x00000000
20001050:	00010000 	.word	0x00010000
	...
2000105c:	00020000 	.word	0x00020000
	...
20001068:	00030000 	.word	0x00030000
	...
20001074:	00ff0000 	.word	0x00ff0000
20001078:	00000000 	.word	0x00000000

2000107c <irq_handler_chain_first_slot>:
2000107c:	b501      	push	{r0, lr}
2000107e:	6848      	ldr	r0, [r1, #4]
20001080:	3101      	adds	r1, #1
20001082:	468e      	mov	lr, r1
20001084:	4700      	bx	r0

20001086 <irq_handler_chain_remove_tail>:
20001086:	4670      	mov	r0, lr
20001088:	3809      	subs	r0, #9
2000108a:	4901      	ldr	r1, [pc, #4]	@ (20001090 <irq_handler_chain_remove_tail+0xa>)
2000108c:	4788      	blx	r1
2000108e:	bd01      	pop	{r0, pc}
20001090:	10001e81 	.word	0x10001e81

20001094 <default_alarm_pool>:
	...
200010a8:	200010d8                                ... 

200010ac <_usbd_qdef>:
200010ac:	20001bbc 000c0010 00000000 00000000     ... ............
	...

200010c8 <_usbd_rhport>:
200010c8:	000000ff                                ....

200010cc <__atexit_recursive_mutex>:
200010cc:	2000180c                                ... 

200010d0 <print_mutex>:
	...
